ARM GAS  /var/folders/_5/7dt5dlyd7598cb98063hl5tr0000gn/T//ccgSyEuv.s 			page 1


   1              		.cpu cortex-m0
   2              		.arch armv6s-m
   3              		.fpu softvfp
   4              		.eabi_attribute 20, 1
   5              		.eabi_attribute 21, 1
   6              		.eabi_attribute 23, 3
   7              		.eabi_attribute 24, 1
   8              		.eabi_attribute 25, 1
   9              		.eabi_attribute 26, 1
  10              		.eabi_attribute 30, 1
  11              		.eabi_attribute 34, 0
  12              		.eabi_attribute 18, 4
  13              		.file	"er_tft040.c"
  14              		.text
  15              	.Ltext0:
  16              		.cfi_sections	.debug_frame
  17              		.file 1 "Core/Src/er_tft040.c"
  18              		.section	.text.write_data,"ax",%progbits
  19              		.align	1
  20              		.syntax unified
  21              		.code	16
  22              		.thumb_func
  24              	write_data:
  25              	.LVL0:
  26              	.LFB40:
   1:Core/Src/er_tft040.c **** #include "er_tft040.h"
   2:Core/Src/er_tft040.c **** #include "main.h"
   3:Core/Src/er_tft040.c **** 
   4:Core/Src/er_tft040.c **** /**
   5:Core/Src/er_tft040.c ****  * LCD_cs 	DISPLAY_CSX_Pin 	chip select when low
   6:Core/Src/er_tft040.c ****  * RS		DISPLAY_DC_Pin		high :data  low:command
   7:Core/Src/er_tft040.c ****  * wrb		DISPLAY_WR_Pin		write
   8:Core/Src/er_tft040.c ****  * rdb		DISPLAY_RD_Pin		read
   9:Core/Src/er_tft040.c ****  * RES		DISPLAY_RESET_Pin	reset
  10:Core/Src/er_tft040.c ****  */
  11:Core/Src/er_tft040.c **** 
  12:Core/Src/er_tft040.c **** unsigned char HSDLCD = 1;
  13:Core/Src/er_tft040.c **** unsigned char CPTLCD = 2;
  14:Core/Src/er_tft040.c **** 
  15:Core/Src/er_tft040.c **** // #define LCD  1	  // HSDLCD	 IPS
  16:Core/Src/er_tft040.c **** #define LCD 2 // CPTLCD  TN
  17:Core/Src/er_tft040.c **** 
  18:Core/Src/er_tft040.c **** static void write_data(uint16_t data)
  19:Core/Src/er_tft040.c **** {
  27              		.loc 1 19 1 view -0
  28              		.cfi_startproc
  29              		@ args = 0, pretend = 0, frame = 0
  30              		@ frame_needed = 0, uses_anonymous_args = 0
  31              		@ link register save eliminated.
  20:Core/Src/er_tft040.c **** 	uint16_t setData = data & ER_TFT040_DATA_MASK;
  32              		.loc 1 20 2 view .LVU1
  21:Core/Src/er_tft040.c **** 
  22:Core/Src/er_tft040.c **** 	GPIOB->BRR = ER_TFT040_DATA_MASK;
  33              		.loc 1 22 2 view .LVU2
  34              		.loc 1 22 13 is_stmt 0 view .LVU3
  35 0000 024B     		ldr	r3, .L2
  36 0002 034A     		ldr	r2, .L2+4
ARM GAS  /var/folders/_5/7dt5dlyd7598cb98063hl5tr0000gn/T//ccgSyEuv.s 			page 2


  37 0004 9A62     		str	r2, [r3, #40]
  23:Core/Src/er_tft040.c **** 	GPIOB->BSRR = setData;
  38              		.loc 1 23 2 is_stmt 1 view .LVU4
  39              		.loc 1 23 14 is_stmt 0 view .LVU5
  40 0006 9861     		str	r0, [r3, #24]
  24:Core/Src/er_tft040.c **** }
  41              		.loc 1 24 1 view .LVU6
  42              		@ sp needed
  43 0008 7047     		bx	lr
  44              	.L3:
  45 000a C046     		.align	2
  46              	.L2:
  47 000c 00040048 		.word	1207960576
  48 0010 FFFF0000 		.word	65535
  49              		.cfi_endproc
  50              	.LFE40:
  52              		.section	.text.Write_Command,"ax",%progbits
  53              		.align	1
  54              		.global	Write_Command
  55              		.syntax unified
  56              		.code	16
  57              		.thumb_func
  59              	Write_Command:
  60              	.LVL1:
  61              	.LFB41:
  25:Core/Src/er_tft040.c **** 
  26:Core/Src/er_tft040.c **** void Write_Command(uint16_t command)
  27:Core/Src/er_tft040.c **** {
  62              		.loc 1 27 1 is_stmt 1 view -0
  63              		.cfi_startproc
  64              		@ args = 0, pretend = 0, frame = 0
  65              		@ frame_needed = 0, uses_anonymous_args = 0
  66              		.loc 1 27 1 is_stmt 0 view .LVU8
  67 0000 70B5     		push	{r4, r5, r6, lr}
  68              		.cfi_def_cfa_offset 16
  69              		.cfi_offset 4, -16
  70              		.cfi_offset 5, -12
  71              		.cfi_offset 6, -8
  72              		.cfi_offset 14, -4
  73 0002 0600     		movs	r6, r0
  28:Core/Src/er_tft040.c **** 	HAL_GPIO_WritePin(DISPLAY_CSX_GPIO_Port, DISPLAY_CSX_Pin, 0);
  74              		.loc 1 28 2 is_stmt 1 view .LVU9
  75 0004 144C     		ldr	r4, .L5
  76 0006 0022     		movs	r2, #0
  77 0008 8021     		movs	r1, #128
  78 000a 2000     		movs	r0, r4
  79              	.LVL2:
  80              		.loc 1 28 2 is_stmt 0 view .LVU10
  81 000c FFF7FEFF 		bl	HAL_GPIO_WritePin
  82              	.LVL3:
  29:Core/Src/er_tft040.c **** 	HAL_GPIO_WritePin(DISPLAY_RD_GPIO_Port, DISPLAY_RD_Pin, 1);
  83              		.loc 1 29 2 is_stmt 1 view .LVU11
  84 0010 8021     		movs	r1, #128
  85 0012 9025     		movs	r5, #144
  86 0014 ED05     		lsls	r5, r5, #23
  87 0016 0122     		movs	r2, #1
  88 0018 4901     		lsls	r1, r1, #5
ARM GAS  /var/folders/_5/7dt5dlyd7598cb98063hl5tr0000gn/T//ccgSyEuv.s 			page 3


  89 001a 2800     		movs	r0, r5
  90 001c FFF7FEFF 		bl	HAL_GPIO_WritePin
  91              	.LVL4:
  30:Core/Src/er_tft040.c **** 	HAL_GPIO_WritePin(DISPLAY_DC_GPIO_Port, DISPLAY_DC_Pin, 0);
  92              		.loc 1 30 2 view .LVU12
  93 0020 8021     		movs	r1, #128
  94 0022 0022     		movs	r2, #0
  95 0024 4900     		lsls	r1, r1, #1
  96 0026 2000     		movs	r0, r4
  97 0028 FFF7FEFF 		bl	HAL_GPIO_WritePin
  98              	.LVL5:
  31:Core/Src/er_tft040.c **** 
  32:Core/Src/er_tft040.c **** 	write_data(command);
  99              		.loc 1 32 2 view .LVU13
 100 002c 3000     		movs	r0, r6
 101 002e FFF7FEFF 		bl	write_data
 102              	.LVL6:
  33:Core/Src/er_tft040.c **** 
  34:Core/Src/er_tft040.c **** 	HAL_GPIO_WritePin(DISPLAY_WR_GPIO_Port, DISPLAY_WR_Pin, 0);
 103              		.loc 1 34 2 view .LVU14
 104 0032 8026     		movs	r6, #128
 105 0034 3601     		lsls	r6, r6, #4
 106 0036 0022     		movs	r2, #0
 107 0038 3100     		movs	r1, r6
 108 003a 2800     		movs	r0, r5
 109 003c FFF7FEFF 		bl	HAL_GPIO_WritePin
 110              	.LVL7:
  35:Core/Src/er_tft040.c **** 	HAL_GPIO_WritePin(DISPLAY_WR_GPIO_Port, DISPLAY_WR_Pin, 1);
 111              		.loc 1 35 2 view .LVU15
 112 0040 0122     		movs	r2, #1
 113 0042 3100     		movs	r1, r6
 114 0044 2800     		movs	r0, r5
 115 0046 FFF7FEFF 		bl	HAL_GPIO_WritePin
 116              	.LVL8:
  36:Core/Src/er_tft040.c **** 	HAL_GPIO_WritePin(DISPLAY_CSX_GPIO_Port, DISPLAY_CSX_Pin, 1);
 117              		.loc 1 36 2 view .LVU16
 118 004a 0122     		movs	r2, #1
 119 004c 8021     		movs	r1, #128
 120 004e 2000     		movs	r0, r4
 121 0050 FFF7FEFF 		bl	HAL_GPIO_WritePin
 122              	.LVL9:
  37:Core/Src/er_tft040.c **** }
 123              		.loc 1 37 1 is_stmt 0 view .LVU17
 124              		@ sp needed
 125 0054 70BD     		pop	{r4, r5, r6, pc}
 126              	.L6:
 127 0056 C046     		.align	2
 128              	.L5:
 129 0058 00080048 		.word	1207961600
 130              		.cfi_endproc
 131              	.LFE41:
 133              		.section	.text.Write_Data_int,"ax",%progbits
 134              		.align	1
 135              		.global	Write_Data_int
 136              		.syntax unified
 137              		.code	16
 138              		.thumb_func
ARM GAS  /var/folders/_5/7dt5dlyd7598cb98063hl5tr0000gn/T//ccgSyEuv.s 			page 4


 140              	Write_Data_int:
 141              	.LVL10:
 142              	.LFB42:
  38:Core/Src/er_tft040.c **** 
  39:Core/Src/er_tft040.c **** void Write_Data_int(uint16_t data)
  40:Core/Src/er_tft040.c **** {
 143              		.loc 1 40 1 is_stmt 1 view -0
 144              		.cfi_startproc
 145              		@ args = 0, pretend = 0, frame = 0
 146              		@ frame_needed = 0, uses_anonymous_args = 0
 147              		.loc 1 40 1 is_stmt 0 view .LVU19
 148 0000 70B5     		push	{r4, r5, r6, lr}
 149              		.cfi_def_cfa_offset 16
 150              		.cfi_offset 4, -16
 151              		.cfi_offset 5, -12
 152              		.cfi_offset 6, -8
 153              		.cfi_offset 14, -4
 154 0002 0600     		movs	r6, r0
  41:Core/Src/er_tft040.c **** 	HAL_GPIO_WritePin(DISPLAY_CSX_GPIO_Port, DISPLAY_CSX_Pin, 0);
 155              		.loc 1 41 2 is_stmt 1 view .LVU20
 156 0004 144C     		ldr	r4, .L8
 157 0006 0022     		movs	r2, #0
 158 0008 8021     		movs	r1, #128
 159 000a 2000     		movs	r0, r4
 160              	.LVL11:
 161              		.loc 1 41 2 is_stmt 0 view .LVU21
 162 000c FFF7FEFF 		bl	HAL_GPIO_WritePin
 163              	.LVL12:
  42:Core/Src/er_tft040.c **** 	HAL_GPIO_WritePin(DISPLAY_RD_GPIO_Port, DISPLAY_RD_Pin, 1);
 164              		.loc 1 42 2 is_stmt 1 view .LVU22
 165 0010 8021     		movs	r1, #128
 166 0012 9025     		movs	r5, #144
 167 0014 ED05     		lsls	r5, r5, #23
 168 0016 0122     		movs	r2, #1
 169 0018 4901     		lsls	r1, r1, #5
 170 001a 2800     		movs	r0, r5
 171 001c FFF7FEFF 		bl	HAL_GPIO_WritePin
 172              	.LVL13:
  43:Core/Src/er_tft040.c **** 	HAL_GPIO_WritePin(DISPLAY_DC_GPIO_Port, DISPLAY_DC_Pin, 1);
 173              		.loc 1 43 2 view .LVU23
 174 0020 8021     		movs	r1, #128
 175 0022 0122     		movs	r2, #1
 176 0024 4900     		lsls	r1, r1, #1
 177 0026 2000     		movs	r0, r4
 178 0028 FFF7FEFF 		bl	HAL_GPIO_WritePin
 179              	.LVL14:
  44:Core/Src/er_tft040.c **** 
  45:Core/Src/er_tft040.c **** 	write_data(data);
 180              		.loc 1 45 2 view .LVU24
 181 002c 3000     		movs	r0, r6
 182 002e FFF7FEFF 		bl	write_data
 183              	.LVL15:
  46:Core/Src/er_tft040.c **** 
  47:Core/Src/er_tft040.c **** 	HAL_GPIO_WritePin(DISPLAY_WR_GPIO_Port, DISPLAY_WR_Pin, 0);
 184              		.loc 1 47 2 view .LVU25
 185 0032 8026     		movs	r6, #128
 186 0034 3601     		lsls	r6, r6, #4
ARM GAS  /var/folders/_5/7dt5dlyd7598cb98063hl5tr0000gn/T//ccgSyEuv.s 			page 5


 187 0036 0022     		movs	r2, #0
 188 0038 3100     		movs	r1, r6
 189 003a 2800     		movs	r0, r5
 190 003c FFF7FEFF 		bl	HAL_GPIO_WritePin
 191              	.LVL16:
  48:Core/Src/er_tft040.c **** 	HAL_GPIO_WritePin(DISPLAY_WR_GPIO_Port, DISPLAY_WR_Pin, 1);
 192              		.loc 1 48 2 view .LVU26
 193 0040 0122     		movs	r2, #1
 194 0042 3100     		movs	r1, r6
 195 0044 2800     		movs	r0, r5
 196 0046 FFF7FEFF 		bl	HAL_GPIO_WritePin
 197              	.LVL17:
  49:Core/Src/er_tft040.c **** 	HAL_GPIO_WritePin(DISPLAY_CSX_GPIO_Port, DISPLAY_CSX_Pin, 1);
 198              		.loc 1 49 2 view .LVU27
 199 004a 0122     		movs	r2, #1
 200 004c 8021     		movs	r1, #128
 201 004e 2000     		movs	r0, r4
 202 0050 FFF7FEFF 		bl	HAL_GPIO_WritePin
 203              	.LVL18:
  50:Core/Src/er_tft040.c **** }
 204              		.loc 1 50 1 is_stmt 0 view .LVU28
 205              		@ sp needed
 206 0054 70BD     		pop	{r4, r5, r6, pc}
 207              	.L9:
 208 0056 C046     		.align	2
 209              	.L8:
 210 0058 00080048 		.word	1207961600
 211              		.cfi_endproc
 212              	.LFE42:
 214              		.section	.text.LCD_SetPos_Vertical,"ax",%progbits
 215              		.align	1
 216              		.global	LCD_SetPos_Vertical
 217              		.syntax unified
 218              		.code	16
 219              		.thumb_func
 221              	LCD_SetPos_Vertical:
 222              	.LVL19:
 223              	.LFB47:
  51:Core/Src/er_tft040.c **** 
  52:Core/Src/er_tft040.c **** void LCD_clear(unsigned int i)
  53:Core/Src/er_tft040.c **** {
  54:Core/Src/er_tft040.c **** 	unsigned int l = 480, w;
  55:Core/Src/er_tft040.c **** 	LCD_SetPos_Vertical(0, 479, 0, 799);
  56:Core/Src/er_tft040.c **** 	while (l--)
  57:Core/Src/er_tft040.c **** 	{
  58:Core/Src/er_tft040.c **** 		for (w = 0; w < 800; w++)
  59:Core/Src/er_tft040.c **** 		{
  60:Core/Src/er_tft040.c **** 			Write_Data_int(i);
  61:Core/Src/er_tft040.c **** 		}
  62:Core/Src/er_tft040.c **** 	}
  63:Core/Src/er_tft040.c **** }
  64:Core/Src/er_tft040.c **** 
  65:Core/Src/er_tft040.c **** void LCD_FULL(unsigned int i)
  66:Core/Src/er_tft040.c **** {
  67:Core/Src/er_tft040.c **** 	unsigned int w, u;
  68:Core/Src/er_tft040.c **** 	LCD_SetPos_Vertical(0, 479, 0, 799);
  69:Core/Src/er_tft040.c **** 
ARM GAS  /var/folders/_5/7dt5dlyd7598cb98063hl5tr0000gn/T//ccgSyEuv.s 			page 6


  70:Core/Src/er_tft040.c **** 	for (w = 0; w < 480; w++)
  71:Core/Src/er_tft040.c **** 	{
  72:Core/Src/er_tft040.c **** 		Write_Data_int(~i);
  73:Core/Src/er_tft040.c **** 	}
  74:Core/Src/er_tft040.c **** 
  75:Core/Src/er_tft040.c **** 	for (w = 0; w < 798; w++)
  76:Core/Src/er_tft040.c **** 	{
  77:Core/Src/er_tft040.c **** 		Write_Data_int(~i);
  78:Core/Src/er_tft040.c **** 
  79:Core/Src/er_tft040.c **** 		for (u = 0; u < 478; u++)
  80:Core/Src/er_tft040.c **** 			Write_Data_int(i);
  81:Core/Src/er_tft040.c **** 
  82:Core/Src/er_tft040.c **** 		Write_Data_int(~i);
  83:Core/Src/er_tft040.c **** 	}
  84:Core/Src/er_tft040.c **** 
  85:Core/Src/er_tft040.c **** 	for (w = 0; w < 480; w++)
  86:Core/Src/er_tft040.c **** 	{
  87:Core/Src/er_tft040.c **** 		Write_Data_int(~i);
  88:Core/Src/er_tft040.c **** 	}
  89:Core/Src/er_tft040.c **** }
  90:Core/Src/er_tft040.c **** 
  91:Core/Src/er_tft040.c **** void show_pic(unsigned char p[]) // 200*120
  92:Core/Src/er_tft040.c **** {
  93:Core/Src/er_tft040.c **** 	unsigned int i, w, l, x1, x2, y1, y2, xa, xb, ya, yb;
  94:Core/Src/er_tft040.c **** 	unsigned char k, m;
  95:Core/Src/er_tft040.c **** 	Write_Command(0x3600);
  96:Core/Src/er_tft040.c **** 	Write_Data_int(0xa0);
  97:Core/Src/er_tft040.c **** 
  98:Core/Src/er_tft040.c **** 	xa = 0;
  99:Core/Src/er_tft040.c **** 	xb = 199;
 100:Core/Src/er_tft040.c **** 	ya = 0;
 101:Core/Src/er_tft040.c **** 	yb = 119;
 102:Core/Src/er_tft040.c **** 	i = 0;
 103:Core/Src/er_tft040.c **** 	for (m = 0; m < 4; m++)
 104:Core/Src/er_tft040.c **** 	{
 105:Core/Src/er_tft040.c **** 		for (k = 0; k < 4; k++)
 106:Core/Src/er_tft040.c **** 		{
 107:Core/Src/er_tft040.c **** 			x1 = xa;
 108:Core/Src/er_tft040.c **** 			x2 = xb;
 109:Core/Src/er_tft040.c **** 			y1 = ya;
 110:Core/Src/er_tft040.c **** 			y2 = yb;
 111:Core/Src/er_tft040.c **** 			LCD_SetPos_Horizontal(x1, x2, y1, y2);
 112:Core/Src/er_tft040.c **** 			for (l = 0; l < 120; l++)
 113:Core/Src/er_tft040.c **** 			{
 114:Core/Src/er_tft040.c **** 				for (w = 0; w < 200; w++)
 115:Core/Src/er_tft040.c **** 				{
 116:Core/Src/er_tft040.c **** 					Write_Data_int(ER_TFT040_CONVERT_DATA(p[i], p[i + 1]));
 117:Core/Src/er_tft040.c **** 					i += 2;
 118:Core/Src/er_tft040.c **** 				}
 119:Core/Src/er_tft040.c **** 			}
 120:Core/Src/er_tft040.c **** 			xa += 200;
 121:Core/Src/er_tft040.c **** 			xb += 200;
 122:Core/Src/er_tft040.c **** 			i = 0;
 123:Core/Src/er_tft040.c **** 		}
 124:Core/Src/er_tft040.c **** 		xa = 0;
 125:Core/Src/er_tft040.c **** 		xb = 199;
 126:Core/Src/er_tft040.c **** 		ya += 120;
ARM GAS  /var/folders/_5/7dt5dlyd7598cb98063hl5tr0000gn/T//ccgSyEuv.s 			page 7


 127:Core/Src/er_tft040.c **** 		yb += 120;
 128:Core/Src/er_tft040.c **** 	}
 129:Core/Src/er_tft040.c **** 
 130:Core/Src/er_tft040.c **** 	Write_Command(0x3600);
 131:Core/Src/er_tft040.c **** 	Write_Data_int(0x00);
 132:Core/Src/er_tft040.c **** }
 133:Core/Src/er_tft040.c **** 
 134:Core/Src/er_tft040.c **** void DispRGBGray(void)
 135:Core/Src/er_tft040.c **** {
 136:Core/Src/er_tft040.c **** 
 137:Core/Src/er_tft040.c **** 	unsigned int COL = 800;
 138:Core/Src/er_tft040.c **** 	unsigned char i, j, k, dbl, dbh;
 139:Core/Src/er_tft040.c **** 	Write_Command(0x3600);
 140:Core/Src/er_tft040.c **** 	Write_Data_int(0xa0);
 141:Core/Src/er_tft040.c **** 	LCD_SetPos_Horizontal(0, 799, 0, 479);
 142:Core/Src/er_tft040.c **** 
 143:Core/Src/er_tft040.c **** 	// balck -> red
 144:Core/Src/er_tft040.c **** 	for (k = 0; k < 80; k++)
 145:Core/Src/er_tft040.c **** 	{
 146:Core/Src/er_tft040.c **** 		for (i = 0; i < 32; i++)
 147:Core/Src/er_tft040.c **** 		{
 148:Core/Src/er_tft040.c **** 			for (j = 0; j < 25; j++)
 149:Core/Src/er_tft040.c **** 			{
 150:Core/Src/er_tft040.c **** 				dbh = i << 3;
 151:Core/Src/er_tft040.c **** 				dbl = 0;
 152:Core/Src/er_tft040.c **** 				Write_Data_int(ER_TFT040_CONVERT_DATA(dbh, dbl));
 153:Core/Src/er_tft040.c **** 			}
 154:Core/Src/er_tft040.c **** 		}
 155:Core/Src/er_tft040.c **** 	}
 156:Core/Src/er_tft040.c **** 
 157:Core/Src/er_tft040.c **** 	// red -> black
 158:Core/Src/er_tft040.c **** 	for (k = 0; k < 80; k++)
 159:Core/Src/er_tft040.c **** 	{
 160:Core/Src/er_tft040.c **** 
 161:Core/Src/er_tft040.c **** 		for (i = 31; i > 0; i--)
 162:Core/Src/er_tft040.c **** 		{
 163:Core/Src/er_tft040.c **** 			for (j = 0; j < 25; j++)
 164:Core/Src/er_tft040.c **** 			{
 165:Core/Src/er_tft040.c **** 				dbh = i << 3;
 166:Core/Src/er_tft040.c **** 				dbl = 0;
 167:Core/Src/er_tft040.c **** 				Write_Data_int(ER_TFT040_CONVERT_DATA(dbh, dbl));
 168:Core/Src/er_tft040.c **** 			}
 169:Core/Src/er_tft040.c **** 		}
 170:Core/Src/er_tft040.c **** 
 171:Core/Src/er_tft040.c **** 		dbh = 0x00;
 172:Core/Src/er_tft040.c **** 		dbl = 0x00;
 173:Core/Src/er_tft040.c **** 		for (i = 0; i < 25; i++)
 174:Core/Src/er_tft040.c **** 			Write_Data_int(0x0);
 175:Core/Src/er_tft040.c **** 	}
 176:Core/Src/er_tft040.c **** 
 177:Core/Src/er_tft040.c **** 	// black -> green
 178:Core/Src/er_tft040.c **** 	for (k = 0; k < 80; k++)
 179:Core/Src/er_tft040.c **** 	{
 180:Core/Src/er_tft040.c **** 
 181:Core/Src/er_tft040.c **** 		for (i = 0; i < 64; i += 2)
 182:Core/Src/er_tft040.c **** 		{
 183:Core/Src/er_tft040.c **** 			for (j = 0; j < 25; j++)
ARM GAS  /var/folders/_5/7dt5dlyd7598cb98063hl5tr0000gn/T//ccgSyEuv.s 			page 8


 184:Core/Src/er_tft040.c **** 			{
 185:Core/Src/er_tft040.c **** 				dbh = i >> 3;
 186:Core/Src/er_tft040.c **** 				dbl = i << 5;
 187:Core/Src/er_tft040.c **** 				Write_Data_int(ER_TFT040_CONVERT_DATA(dbh, dbl));
 188:Core/Src/er_tft040.c **** 			}
 189:Core/Src/er_tft040.c **** 		}
 190:Core/Src/er_tft040.c **** 	}
 191:Core/Src/er_tft040.c **** 
 192:Core/Src/er_tft040.c **** 	// green -> black
 193:Core/Src/er_tft040.c **** 	for (k = 0; k < 80; k++)
 194:Core/Src/er_tft040.c **** 	{
 195:Core/Src/er_tft040.c **** 		for (i = 63; i != 1; i -= 2)
 196:Core/Src/er_tft040.c **** 		{
 197:Core/Src/er_tft040.c **** 			for (j = 0; j < 25; j++)
 198:Core/Src/er_tft040.c **** 			{
 199:Core/Src/er_tft040.c **** 				dbh = i >> 3;
 200:Core/Src/er_tft040.c **** 				dbl = i << 5;
 201:Core/Src/er_tft040.c **** 				Write_Data_int(ER_TFT040_CONVERT_DATA(dbh, dbl));
 202:Core/Src/er_tft040.c **** 			}
 203:Core/Src/er_tft040.c **** 		}
 204:Core/Src/er_tft040.c **** 		dbh = 0x00;
 205:Core/Src/er_tft040.c **** 		dbl = 0x00;
 206:Core/Src/er_tft040.c **** 		for (i = 0; i < 25; i++)
 207:Core/Src/er_tft040.c **** 			Write_Data_int(0x0);
 208:Core/Src/er_tft040.c **** 	}
 209:Core/Src/er_tft040.c **** 
 210:Core/Src/er_tft040.c **** 	// balck -> blue
 211:Core/Src/er_tft040.c **** 	for (k = 0; k < 80; k++)
 212:Core/Src/er_tft040.c **** 	{
 213:Core/Src/er_tft040.c **** 		for (i = 0; i < 32; i++)
 214:Core/Src/er_tft040.c **** 		{
 215:Core/Src/er_tft040.c **** 			for (j = 0; j < 25; j++)
 216:Core/Src/er_tft040.c **** 			{
 217:Core/Src/er_tft040.c **** 				dbh = 0;
 218:Core/Src/er_tft040.c **** 				dbl = i;
 219:Core/Src/er_tft040.c **** 				Write_Data_int(ER_TFT040_CONVERT_DATA(dbh, dbl));
 220:Core/Src/er_tft040.c **** 			}
 221:Core/Src/er_tft040.c **** 		}
 222:Core/Src/er_tft040.c **** 	}
 223:Core/Src/er_tft040.c **** 
 224:Core/Src/er_tft040.c **** 	// blue -> black
 225:Core/Src/er_tft040.c **** 	for (k = 0; k < 80; k++)
 226:Core/Src/er_tft040.c **** 	{
 227:Core/Src/er_tft040.c **** 
 228:Core/Src/er_tft040.c **** 		for (i = 31; i > 0; i--)
 229:Core/Src/er_tft040.c **** 		{
 230:Core/Src/er_tft040.c **** 			for (j = 0; j < 25; j++)
 231:Core/Src/er_tft040.c **** 			{
 232:Core/Src/er_tft040.c **** 				dbh = 0;
 233:Core/Src/er_tft040.c **** 				dbl = i;
 234:Core/Src/er_tft040.c **** 				Write_Data_int(ER_TFT040_CONVERT_DATA(dbh, dbl));
 235:Core/Src/er_tft040.c **** 			}
 236:Core/Src/er_tft040.c **** 		}
 237:Core/Src/er_tft040.c **** 		dbh = 0x00;
 238:Core/Src/er_tft040.c **** 		dbl = 0x00;
 239:Core/Src/er_tft040.c **** 		for (i = 0; i < 25; i++)
 240:Core/Src/er_tft040.c **** 			Write_Data_int(0x0);
ARM GAS  /var/folders/_5/7dt5dlyd7598cb98063hl5tr0000gn/T//ccgSyEuv.s 			page 9


 241:Core/Src/er_tft040.c **** 	}
 242:Core/Src/er_tft040.c **** 
 243:Core/Src/er_tft040.c **** 	Write_Command(0x3600);
 244:Core/Src/er_tft040.c **** 	Write_Data_int(0x00);
 245:Core/Src/er_tft040.c **** }
 246:Core/Src/er_tft040.c **** 
 247:Core/Src/er_tft040.c **** void LCD_SetPos_Vertical(unsigned int xs, unsigned int xe, unsigned int ys, unsigned int ye)
 248:Core/Src/er_tft040.c **** {
 224              		.loc 1 248 1 is_stmt 1 view -0
 225              		.cfi_startproc
 226              		@ args = 0, pretend = 0, frame = 0
 227              		@ frame_needed = 0, uses_anonymous_args = 0
 228              		.loc 1 248 1 is_stmt 0 view .LVU30
 229 0000 F0B5     		push	{r4, r5, r6, r7, lr}
 230              		.cfi_def_cfa_offset 20
 231              		.cfi_offset 4, -20
 232              		.cfi_offset 5, -16
 233              		.cfi_offset 6, -12
 234              		.cfi_offset 7, -8
 235              		.cfi_offset 14, -4
 236 0002 C646     		mov	lr, r8
 237 0004 00B5     		push	{lr}
 238              		.cfi_def_cfa_offset 24
 239              		.cfi_offset 8, -24
 240 0006 0600     		movs	r6, r0
 241 0008 0D00     		movs	r5, r1
 242 000a 1400     		movs	r4, r2
 243 000c 9846     		mov	r8, r3
 249:Core/Src/er_tft040.c **** 	if (LCD == HSDLCD)
 244              		.loc 1 249 2 is_stmt 1 view .LVU31
 245              		.loc 1 249 10 is_stmt 0 view .LVU32
 246 000e 264B     		ldr	r3, .L13
 247              	.LVL20:
 248              		.loc 1 249 10 view .LVU33
 249 0010 1B78     		ldrb	r3, [r3]
 250              		.loc 1 249 5 view .LVU34
 251 0012 022B     		cmp	r3, #2
 252 0014 42D0     		beq	.L12
 253              	.LVL21:
 254              	.L11:
 250:Core/Src/er_tft040.c **** 	{
 251:Core/Src/er_tft040.c **** 		ys += 4;
 252:Core/Src/er_tft040.c **** 		ye += 4;
 253:Core/Src/er_tft040.c **** 	}
 254:Core/Src/er_tft040.c **** 	if (LCD == CPTLCD)
 255              		.loc 1 254 2 is_stmt 1 view .LVU35
 255:Core/Src/er_tft040.c **** 		;
 256:Core/Src/er_tft040.c **** 	Write_Command(0x2A00);
 256              		.loc 1 256 2 view .LVU36
 257 0016 A820     		movs	r0, #168
 258              	.LVL22:
 259              		.loc 1 256 2 is_stmt 0 view .LVU37
 260 0018 8001     		lsls	r0, r0, #6
 261 001a FFF7FEFF 		bl	Write_Command
 262              	.LVL23:
 257:Core/Src/er_tft040.c **** 	Write_Data_int(xs >> 8);
 263              		.loc 1 257 2 is_stmt 1 view .LVU38
ARM GAS  /var/folders/_5/7dt5dlyd7598cb98063hl5tr0000gn/T//ccgSyEuv.s 			page 10


 264              		.loc 1 257 20 is_stmt 0 view .LVU39
 265 001e 300A     		lsrs	r0, r6, #8
 266              		.loc 1 257 2 view .LVU40
 267 0020 80B2     		uxth	r0, r0
 268 0022 FFF7FEFF 		bl	Write_Data_int
 269              	.LVL24:
 258:Core/Src/er_tft040.c **** 	Write_Command(0x2A01);
 270              		.loc 1 258 2 is_stmt 1 view .LVU41
 271 0026 2148     		ldr	r0, .L13+4
 272 0028 FFF7FEFF 		bl	Write_Command
 273              	.LVL25:
 259:Core/Src/er_tft040.c **** 	Write_Data_int(xs & 0x00ff);
 274              		.loc 1 259 2 view .LVU42
 275 002c FF27     		movs	r7, #255
 276 002e 3000     		movs	r0, r6
 277 0030 3840     		ands	r0, r7
 278 0032 FFF7FEFF 		bl	Write_Data_int
 279              	.LVL26:
 260:Core/Src/er_tft040.c **** 	Write_Command(0x2A02);
 280              		.loc 1 260 2 view .LVU43
 281 0036 1E48     		ldr	r0, .L13+8
 282 0038 FFF7FEFF 		bl	Write_Command
 283              	.LVL27:
 261:Core/Src/er_tft040.c **** 	Write_Data_int(xe >> 8);
 284              		.loc 1 261 2 view .LVU44
 285              		.loc 1 261 20 is_stmt 0 view .LVU45
 286 003c 280A     		lsrs	r0, r5, #8
 287              		.loc 1 261 2 view .LVU46
 288 003e 80B2     		uxth	r0, r0
 289 0040 FFF7FEFF 		bl	Write_Data_int
 290              	.LVL28:
 262:Core/Src/er_tft040.c **** 	Write_Command(0x2A03);
 291              		.loc 1 262 2 is_stmt 1 view .LVU47
 292 0044 1B48     		ldr	r0, .L13+12
 293 0046 FFF7FEFF 		bl	Write_Command
 294              	.LVL29:
 263:Core/Src/er_tft040.c **** 	Write_Data_int(xe & 0x00ff);
 295              		.loc 1 263 2 view .LVU48
 296 004a 2800     		movs	r0, r5
 297 004c 3840     		ands	r0, r7
 298 004e FFF7FEFF 		bl	Write_Data_int
 299              	.LVL30:
 264:Core/Src/er_tft040.c **** 	Write_Command(0x2B00);
 300              		.loc 1 264 2 view .LVU49
 301 0052 AC20     		movs	r0, #172
 302 0054 8001     		lsls	r0, r0, #6
 303 0056 FFF7FEFF 		bl	Write_Command
 304              	.LVL31:
 265:Core/Src/er_tft040.c **** 	Write_Data_int(ys >> 8);
 305              		.loc 1 265 2 view .LVU50
 306              		.loc 1 265 20 is_stmt 0 view .LVU51
 307 005a 200A     		lsrs	r0, r4, #8
 308              		.loc 1 265 2 view .LVU52
 309 005c 80B2     		uxth	r0, r0
 310 005e FFF7FEFF 		bl	Write_Data_int
 311              	.LVL32:
 266:Core/Src/er_tft040.c **** 	Write_Command(0x2B01);
ARM GAS  /var/folders/_5/7dt5dlyd7598cb98063hl5tr0000gn/T//ccgSyEuv.s 			page 11


 312              		.loc 1 266 2 is_stmt 1 view .LVU53
 313 0062 1548     		ldr	r0, .L13+16
 314 0064 FFF7FEFF 		bl	Write_Command
 315              	.LVL33:
 267:Core/Src/er_tft040.c **** 	Write_Data_int(ys & 0x00ff);
 316              		.loc 1 267 2 view .LVU54
 317 0068 2000     		movs	r0, r4
 318 006a 3840     		ands	r0, r7
 319 006c FFF7FEFF 		bl	Write_Data_int
 320              	.LVL34:
 268:Core/Src/er_tft040.c **** 	Write_Command(0x2B02);
 321              		.loc 1 268 2 view .LVU55
 322 0070 1248     		ldr	r0, .L13+20
 323 0072 FFF7FEFF 		bl	Write_Command
 324              	.LVL35:
 269:Core/Src/er_tft040.c **** 	Write_Data_int(ye >> 8);
 325              		.loc 1 269 2 view .LVU56
 326              		.loc 1 269 20 is_stmt 0 view .LVU57
 327 0076 4346     		mov	r3, r8
 328 0078 180A     		lsrs	r0, r3, #8
 329              		.loc 1 269 2 view .LVU58
 330 007a 80B2     		uxth	r0, r0
 331 007c FFF7FEFF 		bl	Write_Data_int
 332              	.LVL36:
 270:Core/Src/er_tft040.c **** 	Write_Command(0x2B03);
 333              		.loc 1 270 2 is_stmt 1 view .LVU59
 334 0080 0F48     		ldr	r0, .L13+24
 335 0082 FFF7FEFF 		bl	Write_Command
 336              	.LVL37:
 271:Core/Src/er_tft040.c **** 	Write_Data_int(ye & 0x00ff);
 337              		.loc 1 271 2 view .LVU60
 338 0086 4046     		mov	r0, r8
 339 0088 3840     		ands	r0, r7
 340 008a FFF7FEFF 		bl	Write_Data_int
 341              	.LVL38:
 272:Core/Src/er_tft040.c **** 
 273:Core/Src/er_tft040.c **** 	Write_Command(0x2C00);
 342              		.loc 1 273 2 view .LVU61
 343 008e B020     		movs	r0, #176
 344 0090 8001     		lsls	r0, r0, #6
 345 0092 FFF7FEFF 		bl	Write_Command
 346              	.LVL39:
 274:Core/Src/er_tft040.c **** }
 347              		.loc 1 274 1 is_stmt 0 view .LVU62
 348              		@ sp needed
 349              	.LVL40:
 350              	.LVL41:
 351              	.LVL42:
 352              	.LVL43:
 353              		.loc 1 274 1 view .LVU63
 354 0096 80BC     		pop	{r7}
 355 0098 B846     		mov	r8, r7
 356 009a F0BD     		pop	{r4, r5, r6, r7, pc}
 357              	.LVL44:
 358              	.L12:
 251:Core/Src/er_tft040.c **** 		ye += 4;
 359              		.loc 1 251 3 is_stmt 1 view .LVU64
ARM GAS  /var/folders/_5/7dt5dlyd7598cb98063hl5tr0000gn/T//ccgSyEuv.s 			page 12


 251:Core/Src/er_tft040.c **** 		ye += 4;
 360              		.loc 1 251 6 is_stmt 0 view .LVU65
 361 009c 0434     		adds	r4, r4, #4
 362              	.LVL45:
 252:Core/Src/er_tft040.c **** 	}
 363              		.loc 1 252 3 is_stmt 1 view .LVU66
 252:Core/Src/er_tft040.c **** 	}
 364              		.loc 1 252 6 is_stmt 0 view .LVU67
 365 009e 0233     		adds	r3, r3, #2
 366 00a0 9C46     		mov	ip, r3
 367 00a2 E044     		add	r8, r8, ip
 368              	.LVL46:
 252:Core/Src/er_tft040.c **** 	}
 369              		.loc 1 252 6 view .LVU68
 370 00a4 B7E7     		b	.L11
 371              	.L14:
 372 00a6 C046     		.align	2
 373              	.L13:
 374 00a8 00000000 		.word	HSDLCD
 375 00ac 012A0000 		.word	10753
 376 00b0 022A0000 		.word	10754
 377 00b4 032A0000 		.word	10755
 378 00b8 012B0000 		.word	11009
 379 00bc 022B0000 		.word	11010
 380 00c0 032B0000 		.word	11011
 381              		.cfi_endproc
 382              	.LFE47:
 384              		.section	.text.LCD_clear,"ax",%progbits
 385              		.align	1
 386              		.global	LCD_clear
 387              		.syntax unified
 388              		.code	16
 389              		.thumb_func
 391              	LCD_clear:
 392              	.LVL47:
 393              	.LFB43:
  53:Core/Src/er_tft040.c **** 	unsigned int l = 480, w;
 394              		.loc 1 53 1 is_stmt 1 view -0
 395              		.cfi_startproc
 396              		@ args = 0, pretend = 0, frame = 0
 397              		@ frame_needed = 0, uses_anonymous_args = 0
  53:Core/Src/er_tft040.c **** 	unsigned int l = 480, w;
 398              		.loc 1 53 1 is_stmt 0 view .LVU70
 399 0000 70B5     		push	{r4, r5, r6, lr}
 400              		.cfi_def_cfa_offset 16
 401              		.cfi_offset 4, -16
 402              		.cfi_offset 5, -12
 403              		.cfi_offset 6, -8
 404              		.cfi_offset 14, -4
 405 0002 0500     		movs	r5, r0
  54:Core/Src/er_tft040.c **** 	LCD_SetPos_Vertical(0, 479, 0, 799);
 406              		.loc 1 54 2 is_stmt 1 view .LVU71
 407              	.LVL48:
  55:Core/Src/er_tft040.c **** 	while (l--)
 408              		.loc 1 55 2 view .LVU72
 409 0004 E021     		movs	r1, #224
 410 0006 0C4B     		ldr	r3, .L21
ARM GAS  /var/folders/_5/7dt5dlyd7598cb98063hl5tr0000gn/T//ccgSyEuv.s 			page 13


 411 0008 0022     		movs	r2, #0
 412 000a FF31     		adds	r1, r1, #255
 413 000c 0020     		movs	r0, #0
 414              	.LVL49:
  55:Core/Src/er_tft040.c **** 	while (l--)
 415              		.loc 1 55 2 is_stmt 0 view .LVU73
 416 000e FFF7FEFF 		bl	LCD_SetPos_Vertical
 417              	.LVL50:
  56:Core/Src/er_tft040.c **** 	{
 418              		.loc 1 56 2 is_stmt 1 view .LVU74
  54:Core/Src/er_tft040.c **** 	LCD_SetPos_Vertical(0, 479, 0, 799);
 419              		.loc 1 54 15 is_stmt 0 view .LVU75
 420 0012 F026     		movs	r6, #240
 421 0014 7600     		lsls	r6, r6, #1
  56:Core/Src/er_tft040.c **** 	{
 422              		.loc 1 56 8 view .LVU76
 423 0016 07E0     		b	.L16
 424              	.LVL51:
 425              	.L17:
  60:Core/Src/er_tft040.c **** 		}
 426              		.loc 1 60 4 is_stmt 1 discriminator 3 view .LVU77
 427 0018 A8B2     		uxth	r0, r5
 428 001a FFF7FEFF 		bl	Write_Data_int
 429              	.LVL52:
  58:Core/Src/er_tft040.c **** 		{
 430              		.loc 1 58 25 discriminator 3 view .LVU78
 431 001e 0134     		adds	r4, r4, #1
 432              	.LVL53:
 433              	.L18:
  58:Core/Src/er_tft040.c **** 		{
 434              		.loc 1 58 17 discriminator 1 view .LVU79
 435 0020 C823     		movs	r3, #200
 436 0022 9B00     		lsls	r3, r3, #2
 437 0024 9C42     		cmp	r4, r3
 438 0026 F7D3     		bcc	.L17
 439              	.LVL54:
 440              	.L16:
  56:Core/Src/er_tft040.c **** 	{
 441              		.loc 1 56 9 view .LVU80
 442 0028 3300     		movs	r3, r6
  56:Core/Src/er_tft040.c **** 	{
 443              		.loc 1 56 10 is_stmt 0 view .LVU81
 444 002a 013E     		subs	r6, r6, #1
 445              	.LVL55:
  56:Core/Src/er_tft040.c **** 	{
 446              		.loc 1 56 9 view .LVU82
 447 002c 002B     		cmp	r3, #0
 448 002e 01D0     		beq	.L20
  58:Core/Src/er_tft040.c **** 		{
 449              		.loc 1 58 10 view .LVU83
 450 0030 0024     		movs	r4, #0
 451 0032 F5E7     		b	.L18
 452              	.L20:
  63:Core/Src/er_tft040.c **** 
 453              		.loc 1 63 1 view .LVU84
 454              		@ sp needed
 455              	.LVL56:
ARM GAS  /var/folders/_5/7dt5dlyd7598cb98063hl5tr0000gn/T//ccgSyEuv.s 			page 14


 456              	.LVL57:
  63:Core/Src/er_tft040.c **** 
 457              		.loc 1 63 1 view .LVU85
 458 0034 70BD     		pop	{r4, r5, r6, pc}
 459              	.L22:
 460 0036 C046     		.align	2
 461              	.L21:
 462 0038 1F030000 		.word	799
 463              		.cfi_endproc
 464              	.LFE43:
 466              		.section	.text.LCD_FULL,"ax",%progbits
 467              		.align	1
 468              		.global	LCD_FULL
 469              		.syntax unified
 470              		.code	16
 471              		.thumb_func
 473              	LCD_FULL:
 474              	.LVL58:
 475              	.LFB44:
  66:Core/Src/er_tft040.c **** 	unsigned int w, u;
 476              		.loc 1 66 1 is_stmt 1 view -0
 477              		.cfi_startproc
 478              		@ args = 0, pretend = 0, frame = 0
 479              		@ frame_needed = 0, uses_anonymous_args = 0
  66:Core/Src/er_tft040.c **** 	unsigned int w, u;
 480              		.loc 1 66 1 is_stmt 0 view .LVU87
 481 0000 F0B5     		push	{r4, r5, r6, r7, lr}
 482              		.cfi_def_cfa_offset 20
 483              		.cfi_offset 4, -20
 484              		.cfi_offset 5, -16
 485              		.cfi_offset 6, -12
 486              		.cfi_offset 7, -8
 487              		.cfi_offset 14, -4
 488 0002 C646     		mov	lr, r8
 489 0004 00B5     		push	{lr}
 490              		.cfi_def_cfa_offset 24
 491              		.cfi_offset 8, -24
 492 0006 0700     		movs	r7, r0
  67:Core/Src/er_tft040.c **** 	LCD_SetPos_Vertical(0, 479, 0, 799);
 493              		.loc 1 67 2 is_stmt 1 view .LVU88
  68:Core/Src/er_tft040.c **** 
 494              		.loc 1 68 2 view .LVU89
 495 0008 E021     		movs	r1, #224
 496 000a 1D4B     		ldr	r3, .L33
 497 000c 0022     		movs	r2, #0
 498 000e FF31     		adds	r1, r1, #255
 499 0010 0020     		movs	r0, #0
 500              	.LVL59:
  68:Core/Src/er_tft040.c **** 
 501              		.loc 1 68 2 is_stmt 0 view .LVU90
 502 0012 FFF7FEFF 		bl	LCD_SetPos_Vertical
 503              	.LVL60:
  70:Core/Src/er_tft040.c **** 	{
 504              		.loc 1 70 2 is_stmt 1 view .LVU91
  70:Core/Src/er_tft040.c **** 	{
 505              		.loc 1 70 9 is_stmt 0 view .LVU92
 506 0016 0024     		movs	r4, #0
ARM GAS  /var/folders/_5/7dt5dlyd7598cb98063hl5tr0000gn/T//ccgSyEuv.s 			page 15


  70:Core/Src/er_tft040.c **** 	{
 507              		.loc 1 70 2 view .LVU93
 508 0018 04E0     		b	.L24
 509              	.LVL61:
 510              	.L25:
  72:Core/Src/er_tft040.c **** 	}
 511              		.loc 1 72 3 is_stmt 1 discriminator 3 view .LVU94
 512 001a F843     		mvns	r0, r7
 513 001c 80B2     		uxth	r0, r0
 514 001e FFF7FEFF 		bl	Write_Data_int
 515              	.LVL62:
  70:Core/Src/er_tft040.c **** 	{
 516              		.loc 1 70 24 discriminator 3 view .LVU95
 517 0022 0134     		adds	r4, r4, #1
 518              	.LVL63:
 519              	.L24:
  70:Core/Src/er_tft040.c **** 	{
 520              		.loc 1 70 16 discriminator 1 view .LVU96
 521 0024 F023     		movs	r3, #240
 522 0026 5B00     		lsls	r3, r3, #1
 523 0028 9C42     		cmp	r4, r3
 524 002a F6D3     		bcc	.L25
  75:Core/Src/er_tft040.c **** 	{
 525              		.loc 1 75 9 is_stmt 0 view .LVU97
 526 002c 0023     		movs	r3, #0
 527 002e 9846     		mov	r8, r3
 528 0030 0DE0     		b	.L26
 529              	.LVL64:
 530              	.L28:
  80:Core/Src/er_tft040.c **** 
 531              		.loc 1 80 4 is_stmt 1 discriminator 3 view .LVU98
 532 0032 2800     		movs	r0, r5
 533 0034 FFF7FEFF 		bl	Write_Data_int
 534              	.LVL65:
  79:Core/Src/er_tft040.c **** 			Write_Data_int(i);
 535              		.loc 1 79 25 discriminator 3 view .LVU99
 536 0038 0134     		adds	r4, r4, #1
 537              	.LVL66:
 538              	.L27:
  79:Core/Src/er_tft040.c **** 			Write_Data_int(i);
 539              		.loc 1 79 17 discriminator 1 view .LVU100
 540 003a EF23     		movs	r3, #239
 541 003c 5B00     		lsls	r3, r3, #1
 542 003e 9C42     		cmp	r4, r3
 543 0040 F7D3     		bcc	.L28
  82:Core/Src/er_tft040.c **** 	}
 544              		.loc 1 82 3 discriminator 2 view .LVU101
 545 0042 3000     		movs	r0, r6
 546 0044 FFF7FEFF 		bl	Write_Data_int
 547              	.LVL67:
  75:Core/Src/er_tft040.c **** 	{
 548              		.loc 1 75 24 discriminator 2 view .LVU102
 549 0048 0123     		movs	r3, #1
 550 004a 9C46     		mov	ip, r3
 551 004c E044     		add	r8, r8, ip
 552              	.LVL68:
 553              	.L26:
ARM GAS  /var/folders/_5/7dt5dlyd7598cb98063hl5tr0000gn/T//ccgSyEuv.s 			page 16


  75:Core/Src/er_tft040.c **** 	{
 554              		.loc 1 75 16 discriminator 1 view .LVU103
 555 004e 0D4B     		ldr	r3, .L33+4
 556 0050 9845     		cmp	r8, r3
 557 0052 07D8     		bhi	.L32
  77:Core/Src/er_tft040.c **** 
 558              		.loc 1 77 3 view .LVU104
 559 0054 BDB2     		uxth	r5, r7
 560 0056 EE43     		mvns	r6, r5
 561 0058 B6B2     		uxth	r6, r6
 562 005a 3000     		movs	r0, r6
 563 005c FFF7FEFF 		bl	Write_Data_int
 564              	.LVL69:
  79:Core/Src/er_tft040.c **** 			Write_Data_int(i);
 565              		.loc 1 79 3 view .LVU105
  79:Core/Src/er_tft040.c **** 			Write_Data_int(i);
 566              		.loc 1 79 10 is_stmt 0 view .LVU106
 567 0060 0024     		movs	r4, #0
  79:Core/Src/er_tft040.c **** 			Write_Data_int(i);
 568              		.loc 1 79 3 view .LVU107
 569 0062 EAE7     		b	.L27
 570              	.LVL70:
 571              	.L32:
  85:Core/Src/er_tft040.c **** 	{
 572              		.loc 1 85 9 view .LVU108
 573 0064 0024     		movs	r4, #0
 574 0066 04E0     		b	.L30
 575              	.LVL71:
 576              	.L31:
  87:Core/Src/er_tft040.c **** 	}
 577              		.loc 1 87 3 is_stmt 1 discriminator 3 view .LVU109
 578 0068 F843     		mvns	r0, r7
 579 006a 80B2     		uxth	r0, r0
 580 006c FFF7FEFF 		bl	Write_Data_int
 581              	.LVL72:
  85:Core/Src/er_tft040.c **** 	{
 582              		.loc 1 85 24 discriminator 3 view .LVU110
 583 0070 0134     		adds	r4, r4, #1
 584              	.LVL73:
 585              	.L30:
  85:Core/Src/er_tft040.c **** 	{
 586              		.loc 1 85 16 discriminator 1 view .LVU111
 587 0072 F023     		movs	r3, #240
 588 0074 5B00     		lsls	r3, r3, #1
 589 0076 9C42     		cmp	r4, r3
 590 0078 F6D3     		bcc	.L31
  89:Core/Src/er_tft040.c **** 
 591              		.loc 1 89 1 is_stmt 0 view .LVU112
 592              		@ sp needed
 593              	.LVL74:
 594              	.LVL75:
  89:Core/Src/er_tft040.c **** 
 595              		.loc 1 89 1 view .LVU113
 596 007a 80BC     		pop	{r7}
 597 007c B846     		mov	r8, r7
 598 007e F0BD     		pop	{r4, r5, r6, r7, pc}
 599              	.L34:
ARM GAS  /var/folders/_5/7dt5dlyd7598cb98063hl5tr0000gn/T//ccgSyEuv.s 			page 17


 600              		.align	2
 601              	.L33:
 602 0080 1F030000 		.word	799
 603 0084 1D030000 		.word	797
 604              		.cfi_endproc
 605              	.LFE44:
 607              		.section	.text.LCD_SetPos_Horizontal,"ax",%progbits
 608              		.align	1
 609              		.global	LCD_SetPos_Horizontal
 610              		.syntax unified
 611              		.code	16
 612              		.thumb_func
 614              	LCD_SetPos_Horizontal:
 615              	.LVL76:
 616              	.LFB48:
 275:Core/Src/er_tft040.c **** 
 276:Core/Src/er_tft040.c **** void LCD_SetPos_Horizontal(unsigned int xs, unsigned int xe, unsigned int ys, unsigned int ye)
 277:Core/Src/er_tft040.c **** {
 617              		.loc 1 277 1 is_stmt 1 view -0
 618              		.cfi_startproc
 619              		@ args = 0, pretend = 0, frame = 0
 620              		@ frame_needed = 0, uses_anonymous_args = 0
 621              		.loc 1 277 1 is_stmt 0 view .LVU115
 622 0000 F0B5     		push	{r4, r5, r6, r7, lr}
 623              		.cfi_def_cfa_offset 20
 624              		.cfi_offset 4, -20
 625              		.cfi_offset 5, -16
 626              		.cfi_offset 6, -12
 627              		.cfi_offset 7, -8
 628              		.cfi_offset 14, -4
 629 0002 C646     		mov	lr, r8
 630 0004 00B5     		push	{lr}
 631              		.cfi_def_cfa_offset 24
 632              		.cfi_offset 8, -24
 633 0006 0500     		movs	r5, r0
 634 0008 0C00     		movs	r4, r1
 635 000a 1700     		movs	r7, r2
 636 000c 9846     		mov	r8, r3
 278:Core/Src/er_tft040.c **** 	if (LCD == HSDLCD)
 637              		.loc 1 278 2 is_stmt 1 view .LVU116
 638              		.loc 1 278 10 is_stmt 0 view .LVU117
 639 000e 254B     		ldr	r3, .L38
 640              	.LVL77:
 641              		.loc 1 278 10 view .LVU118
 642 0010 1B78     		ldrb	r3, [r3]
 643              		.loc 1 278 5 view .LVU119
 644 0012 022B     		cmp	r3, #2
 645 0014 42D0     		beq	.L37
 646              	.LVL78:
 647              	.L36:
 279:Core/Src/er_tft040.c **** 	{
 280:Core/Src/er_tft040.c **** 		xs += 50;
 281:Core/Src/er_tft040.c **** 		xe += 50;
 282:Core/Src/er_tft040.c **** 	}
 283:Core/Src/er_tft040.c **** 	if (LCD == CPTLCD)
 648              		.loc 1 283 2 is_stmt 1 view .LVU120
 284:Core/Src/er_tft040.c **** 		;
ARM GAS  /var/folders/_5/7dt5dlyd7598cb98063hl5tr0000gn/T//ccgSyEuv.s 			page 18


 285:Core/Src/er_tft040.c **** 	Write_Command(0x2A00);
 649              		.loc 1 285 2 view .LVU121
 650 0016 A820     		movs	r0, #168
 651 0018 8001     		lsls	r0, r0, #6
 652 001a FFF7FEFF 		bl	Write_Command
 653              	.LVL79:
 286:Core/Src/er_tft040.c **** 	Write_Data_int(xs >> 8);
 654              		.loc 1 286 2 view .LVU122
 655              		.loc 1 286 20 is_stmt 0 view .LVU123
 656 001e 280A     		lsrs	r0, r5, #8
 657              		.loc 1 286 2 view .LVU124
 658 0020 80B2     		uxth	r0, r0
 659 0022 FFF7FEFF 		bl	Write_Data_int
 660              	.LVL80:
 287:Core/Src/er_tft040.c **** 	Write_Command(0x2A01);
 661              		.loc 1 287 2 is_stmt 1 view .LVU125
 662 0026 2048     		ldr	r0, .L38+4
 663 0028 FFF7FEFF 		bl	Write_Command
 664              	.LVL81:
 288:Core/Src/er_tft040.c **** 	Write_Data_int(xs & 0x00ff);
 665              		.loc 1 288 2 view .LVU126
 666 002c FF26     		movs	r6, #255
 667 002e 2800     		movs	r0, r5
 668 0030 3040     		ands	r0, r6
 669 0032 FFF7FEFF 		bl	Write_Data_int
 670              	.LVL82:
 289:Core/Src/er_tft040.c **** 	Write_Command(0x2A02);
 671              		.loc 1 289 2 view .LVU127
 672 0036 1D48     		ldr	r0, .L38+8
 673 0038 FFF7FEFF 		bl	Write_Command
 674              	.LVL83:
 290:Core/Src/er_tft040.c **** 	Write_Data_int(xe >> 8);
 675              		.loc 1 290 2 view .LVU128
 676              		.loc 1 290 20 is_stmt 0 view .LVU129
 677 003c 200A     		lsrs	r0, r4, #8
 678              		.loc 1 290 2 view .LVU130
 679 003e 80B2     		uxth	r0, r0
 680 0040 FFF7FEFF 		bl	Write_Data_int
 681              	.LVL84:
 291:Core/Src/er_tft040.c **** 	Write_Command(0x2A03);
 682              		.loc 1 291 2 is_stmt 1 view .LVU131
 683 0044 1A48     		ldr	r0, .L38+12
 684 0046 FFF7FEFF 		bl	Write_Command
 685              	.LVL85:
 292:Core/Src/er_tft040.c **** 	Write_Data_int(xe & 0x00ff);
 686              		.loc 1 292 2 view .LVU132
 687 004a 2000     		movs	r0, r4
 688 004c 3040     		ands	r0, r6
 689 004e FFF7FEFF 		bl	Write_Data_int
 690              	.LVL86:
 293:Core/Src/er_tft040.c **** 	Write_Command(0x2B00);
 691              		.loc 1 293 2 view .LVU133
 692 0052 AC20     		movs	r0, #172
 693 0054 8001     		lsls	r0, r0, #6
 694 0056 FFF7FEFF 		bl	Write_Command
 695              	.LVL87:
 294:Core/Src/er_tft040.c **** 	Write_Data_int(ys >> 8);
ARM GAS  /var/folders/_5/7dt5dlyd7598cb98063hl5tr0000gn/T//ccgSyEuv.s 			page 19


 696              		.loc 1 294 2 view .LVU134
 697              		.loc 1 294 20 is_stmt 0 view .LVU135
 698 005a 380A     		lsrs	r0, r7, #8
 699              		.loc 1 294 2 view .LVU136
 700 005c 80B2     		uxth	r0, r0
 701 005e FFF7FEFF 		bl	Write_Data_int
 702              	.LVL88:
 295:Core/Src/er_tft040.c **** 	Write_Command(0x2B01);
 703              		.loc 1 295 2 is_stmt 1 view .LVU137
 704 0062 1448     		ldr	r0, .L38+16
 705 0064 FFF7FEFF 		bl	Write_Command
 706              	.LVL89:
 296:Core/Src/er_tft040.c **** 	Write_Data_int(ys & 0x00ff);
 707              		.loc 1 296 2 view .LVU138
 708 0068 3800     		movs	r0, r7
 709 006a 3040     		ands	r0, r6
 710 006c FFF7FEFF 		bl	Write_Data_int
 711              	.LVL90:
 297:Core/Src/er_tft040.c **** 	Write_Command(0x2B02);
 712              		.loc 1 297 2 view .LVU139
 713 0070 1148     		ldr	r0, .L38+20
 714 0072 FFF7FEFF 		bl	Write_Command
 715              	.LVL91:
 298:Core/Src/er_tft040.c **** 	Write_Data_int(ye >> 8);
 716              		.loc 1 298 2 view .LVU140
 717              		.loc 1 298 20 is_stmt 0 view .LVU141
 718 0076 4346     		mov	r3, r8
 719 0078 180A     		lsrs	r0, r3, #8
 720              		.loc 1 298 2 view .LVU142
 721 007a 80B2     		uxth	r0, r0
 722 007c FFF7FEFF 		bl	Write_Data_int
 723              	.LVL92:
 299:Core/Src/er_tft040.c **** 	Write_Command(0x2B03);
 724              		.loc 1 299 2 is_stmt 1 view .LVU143
 725 0080 0E48     		ldr	r0, .L38+24
 726 0082 FFF7FEFF 		bl	Write_Command
 727              	.LVL93:
 300:Core/Src/er_tft040.c **** 	Write_Data_int(ye & 0x00ff);
 728              		.loc 1 300 2 view .LVU144
 729 0086 4046     		mov	r0, r8
 730 0088 3040     		ands	r0, r6
 731 008a FFF7FEFF 		bl	Write_Data_int
 732              	.LVL94:
 301:Core/Src/er_tft040.c **** 
 302:Core/Src/er_tft040.c **** 	Write_Command(0x2C00);
 733              		.loc 1 302 2 view .LVU145
 734 008e B020     		movs	r0, #176
 735 0090 8001     		lsls	r0, r0, #6
 736 0092 FFF7FEFF 		bl	Write_Command
 737              	.LVL95:
 303:Core/Src/er_tft040.c **** }
 738              		.loc 1 303 1 is_stmt 0 view .LVU146
 739              		@ sp needed
 740              	.LVL96:
 741              	.LVL97:
 742              	.LVL98:
 743              	.LVL99:
ARM GAS  /var/folders/_5/7dt5dlyd7598cb98063hl5tr0000gn/T//ccgSyEuv.s 			page 20


 744              		.loc 1 303 1 view .LVU147
 745 0096 80BC     		pop	{r7}
 746 0098 B846     		mov	r8, r7
 747 009a F0BD     		pop	{r4, r5, r6, r7, pc}
 748              	.LVL100:
 749              	.L37:
 280:Core/Src/er_tft040.c **** 		xe += 50;
 750              		.loc 1 280 3 is_stmt 1 view .LVU148
 280:Core/Src/er_tft040.c **** 		xe += 50;
 751              		.loc 1 280 6 is_stmt 0 view .LVU149
 752 009c 3235     		adds	r5, r5, #50
 753              	.LVL101:
 281:Core/Src/er_tft040.c **** 	}
 754              		.loc 1 281 3 is_stmt 1 view .LVU150
 281:Core/Src/er_tft040.c **** 	}
 755              		.loc 1 281 6 is_stmt 0 view .LVU151
 756 009e 3234     		adds	r4, r4, #50
 757              	.LVL102:
 281:Core/Src/er_tft040.c **** 	}
 758              		.loc 1 281 6 view .LVU152
 759 00a0 B9E7     		b	.L36
 760              	.L39:
 761 00a2 C046     		.align	2
 762              	.L38:
 763 00a4 00000000 		.word	HSDLCD
 764 00a8 012A0000 		.word	10753
 765 00ac 022A0000 		.word	10754
 766 00b0 032A0000 		.word	10755
 767 00b4 012B0000 		.word	11009
 768 00b8 022B0000 		.word	11010
 769 00bc 032B0000 		.word	11011
 770              		.cfi_endproc
 771              	.LFE48:
 773              		.section	.text.show_pic,"ax",%progbits
 774              		.align	1
 775              		.global	show_pic
 776              		.syntax unified
 777              		.code	16
 778              		.thumb_func
 780              	show_pic:
 781              	.LVL103:
 782              	.LFB45:
  92:Core/Src/er_tft040.c **** 	unsigned int i, w, l, x1, x2, y1, y2, xa, xb, ya, yb;
 783              		.loc 1 92 1 is_stmt 1 view -0
 784              		.cfi_startproc
 785              		@ args = 0, pretend = 0, frame = 8
 786              		@ frame_needed = 0, uses_anonymous_args = 0
  92:Core/Src/er_tft040.c **** 	unsigned int i, w, l, x1, x2, y1, y2, xa, xb, ya, yb;
 787              		.loc 1 92 1 is_stmt 0 view .LVU154
 788 0000 F0B5     		push	{r4, r5, r6, r7, lr}
 789              		.cfi_def_cfa_offset 20
 790              		.cfi_offset 4, -20
 791              		.cfi_offset 5, -16
 792              		.cfi_offset 6, -12
 793              		.cfi_offset 7, -8
 794              		.cfi_offset 14, -4
 795 0002 DE46     		mov	lr, fp
ARM GAS  /var/folders/_5/7dt5dlyd7598cb98063hl5tr0000gn/T//ccgSyEuv.s 			page 21


 796 0004 5746     		mov	r7, r10
 797 0006 4E46     		mov	r6, r9
 798 0008 4546     		mov	r5, r8
 799 000a E0B5     		push	{r5, r6, r7, lr}
 800              		.cfi_def_cfa_offset 36
 801              		.cfi_offset 8, -36
 802              		.cfi_offset 9, -32
 803              		.cfi_offset 10, -28
 804              		.cfi_offset 11, -24
 805 000c 83B0     		sub	sp, sp, #12
 806              		.cfi_def_cfa_offset 48
 807 000e 0600     		movs	r6, r0
  93:Core/Src/er_tft040.c **** 	unsigned char k, m;
 808              		.loc 1 93 2 is_stmt 1 view .LVU155
  94:Core/Src/er_tft040.c **** 	Write_Command(0x3600);
 809              		.loc 1 94 2 view .LVU156
  95:Core/Src/er_tft040.c **** 	Write_Data_int(0xa0);
 810              		.loc 1 95 2 view .LVU157
 811 0010 D820     		movs	r0, #216
 812              	.LVL104:
  95:Core/Src/er_tft040.c **** 	Write_Data_int(0xa0);
 813              		.loc 1 95 2 is_stmt 0 view .LVU158
 814 0012 8001     		lsls	r0, r0, #6
 815 0014 FFF7FEFF 		bl	Write_Command
 816              	.LVL105:
  96:Core/Src/er_tft040.c **** 
 817              		.loc 1 96 2 is_stmt 1 view .LVU159
 818 0018 A020     		movs	r0, #160
 819 001a FFF7FEFF 		bl	Write_Data_int
 820              	.LVL106:
  98:Core/Src/er_tft040.c **** 	xb = 199;
 821              		.loc 1 98 2 view .LVU160
  99:Core/Src/er_tft040.c **** 	ya = 0;
 822              		.loc 1 99 2 view .LVU161
 100:Core/Src/er_tft040.c **** 	yb = 119;
 823              		.loc 1 100 2 view .LVU162
 101:Core/Src/er_tft040.c **** 	i = 0;
 824              		.loc 1 101 2 view .LVU163
 102:Core/Src/er_tft040.c **** 	for (m = 0; m < 4; m++)
 825              		.loc 1 102 2 view .LVU164
 103:Core/Src/er_tft040.c **** 	{
 826              		.loc 1 103 2 view .LVU165
 103:Core/Src/er_tft040.c **** 	{
 827              		.loc 1 103 9 is_stmt 0 view .LVU166
 828 001e 0023     		movs	r3, #0
 829 0020 9A46     		mov	r10, r3
 101:Core/Src/er_tft040.c **** 	i = 0;
 830              		.loc 1 101 5 view .LVU167
 831 0022 7733     		adds	r3, r3, #119
 832 0024 9946     		mov	r9, r3
 100:Core/Src/er_tft040.c **** 	yb = 119;
 833              		.loc 1 100 5 view .LVU168
 834 0026 0023     		movs	r3, #0
 835 0028 9846     		mov	r8, r3
 103:Core/Src/er_tft040.c **** 	{
 836              		.loc 1 103 2 view .LVU169
 837 002a 2DE0     		b	.L41
ARM GAS  /var/folders/_5/7dt5dlyd7598cb98063hl5tr0000gn/T//ccgSyEuv.s 			page 22


 838              	.LVL107:
 839              	.L43:
 116:Core/Src/er_tft040.c **** 					i += 2;
 840              		.loc 1 116 6 is_stmt 1 discriminator 3 view .LVU170
 116:Core/Src/er_tft040.c **** 					i += 2;
 841              		.loc 1 116 21 is_stmt 0 discriminator 3 view .LVU171
 842 002c 335D     		ldrb	r3, [r6, r4]
 843 002e 1B02     		lsls	r3, r3, #8
 844 0030 3219     		adds	r2, r6, r4
 845 0032 5078     		ldrb	r0, [r2, #1]
 116:Core/Src/er_tft040.c **** 					i += 2;
 846              		.loc 1 116 6 discriminator 3 view .LVU172
 847 0034 1843     		orrs	r0, r3
 848 0036 FFF7FEFF 		bl	Write_Data_int
 849              	.LVL108:
 117:Core/Src/er_tft040.c **** 				}
 850              		.loc 1 117 6 is_stmt 1 discriminator 3 view .LVU173
 117:Core/Src/er_tft040.c **** 				}
 851              		.loc 1 117 8 is_stmt 0 discriminator 3 view .LVU174
 852 003a 0234     		adds	r4, r4, #2
 853              	.LVL109:
 114:Core/Src/er_tft040.c **** 				{
 854              		.loc 1 114 27 is_stmt 1 discriminator 3 view .LVU175
 855 003c 0135     		adds	r5, r5, #1
 856              	.LVL110:
 857              	.L44:
 114:Core/Src/er_tft040.c **** 				{
 858              		.loc 1 114 19 discriminator 1 view .LVU176
 859 003e C72D     		cmp	r5, #199
 860 0040 F4D9     		bls	.L43
 112:Core/Src/er_tft040.c **** 			{
 861              		.loc 1 112 26 discriminator 2 view .LVU177
 862 0042 0137     		adds	r7, r7, #1
 863              	.LVL111:
 864              	.L42:
 112:Core/Src/er_tft040.c **** 			{
 865              		.loc 1 112 18 discriminator 1 view .LVU178
 866 0044 772F     		cmp	r7, #119
 867 0046 01D8     		bhi	.L49
 114:Core/Src/er_tft040.c **** 				{
 868              		.loc 1 114 12 is_stmt 0 view .LVU179
 869 0048 0025     		movs	r5, #0
 870 004a F8E7     		b	.L44
 871              	.L49:
 120:Core/Src/er_tft040.c **** 			xb += 200;
 872              		.loc 1 120 4 is_stmt 1 discriminator 2 view .LVU180
 120:Core/Src/er_tft040.c **** 			xb += 200;
 873              		.loc 1 120 7 is_stmt 0 discriminator 2 view .LVU181
 874 004c C823     		movs	r3, #200
 875 004e 9C46     		mov	ip, r3
 876 0050 E344     		add	fp, fp, ip
 877              	.LVL112:
 121:Core/Src/er_tft040.c **** 			i = 0;
 878              		.loc 1 121 4 is_stmt 1 discriminator 2 view .LVU182
 121:Core/Src/er_tft040.c **** 			i = 0;
 879              		.loc 1 121 7 is_stmt 0 discriminator 2 view .LVU183
 880 0052 009B     		ldr	r3, [sp]
ARM GAS  /var/folders/_5/7dt5dlyd7598cb98063hl5tr0000gn/T//ccgSyEuv.s 			page 23


 881 0054 C833     		adds	r3, r3, #200
 882 0056 0093     		str	r3, [sp]
 883              	.LVL113:
 122:Core/Src/er_tft040.c **** 		}
 884              		.loc 1 122 4 is_stmt 1 discriminator 2 view .LVU184
 105:Core/Src/er_tft040.c **** 		{
 885              		.loc 1 105 23 discriminator 2 view .LVU185
 886 0058 019B     		ldr	r3, [sp, #4]
 887              	.LVL114:
 105:Core/Src/er_tft040.c **** 		{
 888              		.loc 1 105 23 is_stmt 0 discriminator 2 view .LVU186
 889 005a 0133     		adds	r3, r3, #1
 890 005c DBB2     		uxtb	r3, r3
 891 005e 0193     		str	r3, [sp, #4]
 892              	.LVL115:
 893              	.L46:
 105:Core/Src/er_tft040.c **** 		{
 894              		.loc 1 105 17 is_stmt 1 discriminator 1 view .LVU187
 895 0060 019B     		ldr	r3, [sp, #4]
 896 0062 032B     		cmp	r3, #3
 897 0064 08D8     		bhi	.L50
 107:Core/Src/er_tft040.c **** 			x2 = xb;
 898              		.loc 1 107 4 view .LVU188
 899              	.LVL116:
 108:Core/Src/er_tft040.c **** 			y1 = ya;
 900              		.loc 1 108 4 view .LVU189
 109:Core/Src/er_tft040.c **** 			y2 = yb;
 901              		.loc 1 109 4 view .LVU190
 110:Core/Src/er_tft040.c **** 			LCD_SetPos_Horizontal(x1, x2, y1, y2);
 902              		.loc 1 110 4 view .LVU191
 111:Core/Src/er_tft040.c **** 			for (l = 0; l < 120; l++)
 903              		.loc 1 111 4 view .LVU192
 904 0066 4B46     		mov	r3, r9
 905 0068 4246     		mov	r2, r8
 906 006a 0099     		ldr	r1, [sp]
 907 006c 5846     		mov	r0, fp
 908 006e FFF7FEFF 		bl	LCD_SetPos_Horizontal
 909              	.LVL117:
 112:Core/Src/er_tft040.c **** 			{
 910              		.loc 1 112 4 view .LVU193
 112:Core/Src/er_tft040.c **** 			{
 911              		.loc 1 112 11 is_stmt 0 view .LVU194
 912 0072 0027     		movs	r7, #0
 112:Core/Src/er_tft040.c **** 			{
 913              		.loc 1 112 4 view .LVU195
 914 0074 0024     		movs	r4, #0
 915 0076 E5E7     		b	.L42
 916              	.LVL118:
 917              	.L50:
 124:Core/Src/er_tft040.c **** 		xb = 199;
 918              		.loc 1 124 3 is_stmt 1 discriminator 2 view .LVU196
 125:Core/Src/er_tft040.c **** 		ya += 120;
 919              		.loc 1 125 3 discriminator 2 view .LVU197
 126:Core/Src/er_tft040.c **** 		yb += 120;
 920              		.loc 1 126 3 discriminator 2 view .LVU198
 126:Core/Src/er_tft040.c **** 		yb += 120;
 921              		.loc 1 126 6 is_stmt 0 discriminator 2 view .LVU199
ARM GAS  /var/folders/_5/7dt5dlyd7598cb98063hl5tr0000gn/T//ccgSyEuv.s 			page 24


 922 0078 7823     		movs	r3, #120
 923 007a 9C46     		mov	ip, r3
 924 007c E044     		add	r8, r8, ip
 925              	.LVL119:
 127:Core/Src/er_tft040.c **** 	}
 926              		.loc 1 127 3 is_stmt 1 discriminator 2 view .LVU200
 127:Core/Src/er_tft040.c **** 	}
 927              		.loc 1 127 6 is_stmt 0 discriminator 2 view .LVU201
 928 007e E144     		add	r9, r9, ip
 929              	.LVL120:
 103:Core/Src/er_tft040.c **** 	{
 930              		.loc 1 103 22 is_stmt 1 discriminator 2 view .LVU202
 931 0080 5346     		mov	r3, r10
 932 0082 0133     		adds	r3, r3, #1
 933 0084 DBB2     		uxtb	r3, r3
 934 0086 9A46     		mov	r10, r3
 935              	.LVL121:
 936              	.L41:
 103:Core/Src/er_tft040.c **** 	{
 937              		.loc 1 103 16 discriminator 1 view .LVU203
 938 0088 5346     		mov	r3, r10
 939 008a 032B     		cmp	r3, #3
 940 008c 06D8     		bhi	.L51
 105:Core/Src/er_tft040.c **** 		{
 941              		.loc 1 105 10 is_stmt 0 view .LVU204
 942 008e 0023     		movs	r3, #0
 943 0090 0193     		str	r3, [sp, #4]
 944 0092 C733     		adds	r3, r3, #199
 945 0094 0093     		str	r3, [sp]
 946 0096 0023     		movs	r3, #0
 947 0098 9B46     		mov	fp, r3
 948 009a E1E7     		b	.L46
 949              	.L51:
 130:Core/Src/er_tft040.c **** 	Write_Data_int(0x00);
 950              		.loc 1 130 2 is_stmt 1 view .LVU205
 951 009c D820     		movs	r0, #216
 952 009e 8001     		lsls	r0, r0, #6
 953 00a0 FFF7FEFF 		bl	Write_Command
 954              	.LVL122:
 131:Core/Src/er_tft040.c **** }
 955              		.loc 1 131 2 view .LVU206
 956 00a4 0020     		movs	r0, #0
 957 00a6 FFF7FEFF 		bl	Write_Data_int
 958              	.LVL123:
 132:Core/Src/er_tft040.c **** 
 959              		.loc 1 132 1 is_stmt 0 view .LVU207
 960 00aa 03B0     		add	sp, sp, #12
 961              		@ sp needed
 962              	.LVL124:
 963              	.LVL125:
 964              	.LVL126:
 965              	.LVL127:
 132:Core/Src/er_tft040.c **** 
 966              		.loc 1 132 1 view .LVU208
 967 00ac F0BC     		pop	{r4, r5, r6, r7}
 968 00ae BB46     		mov	fp, r7
 969 00b0 B246     		mov	r10, r6
ARM GAS  /var/folders/_5/7dt5dlyd7598cb98063hl5tr0000gn/T//ccgSyEuv.s 			page 25


 970 00b2 A946     		mov	r9, r5
 971 00b4 A046     		mov	r8, r4
 972 00b6 F0BD     		pop	{r4, r5, r6, r7, pc}
 973              		.cfi_endproc
 974              	.LFE45:
 976              		.section	.text.DispRGBGray,"ax",%progbits
 977              		.align	1
 978              		.global	DispRGBGray
 979              		.syntax unified
 980              		.code	16
 981              		.thumb_func
 983              	DispRGBGray:
 984              	.LFB46:
 135:Core/Src/er_tft040.c **** 
 985              		.loc 1 135 1 is_stmt 1 view -0
 986              		.cfi_startproc
 987              		@ args = 0, pretend = 0, frame = 0
 988              		@ frame_needed = 0, uses_anonymous_args = 0
 989 0000 70B5     		push	{r4, r5, r6, lr}
 990              		.cfi_def_cfa_offset 16
 991              		.cfi_offset 4, -16
 992              		.cfi_offset 5, -12
 993              		.cfi_offset 6, -8
 994              		.cfi_offset 14, -4
 137:Core/Src/er_tft040.c **** 	unsigned char i, j, k, dbl, dbh;
 995              		.loc 1 137 2 view .LVU210
 996              	.LVL128:
 138:Core/Src/er_tft040.c **** 	Write_Command(0x3600);
 997              		.loc 1 138 2 view .LVU211
 139:Core/Src/er_tft040.c **** 	Write_Data_int(0xa0);
 998              		.loc 1 139 2 view .LVU212
 999 0002 D820     		movs	r0, #216
 1000 0004 8001     		lsls	r0, r0, #6
 1001 0006 FFF7FEFF 		bl	Write_Command
 1002              	.LVL129:
 140:Core/Src/er_tft040.c **** 	LCD_SetPos_Horizontal(0, 799, 0, 479);
 1003              		.loc 1 140 2 view .LVU213
 1004 000a A020     		movs	r0, #160
 1005 000c FFF7FEFF 		bl	Write_Data_int
 1006              	.LVL130:
 141:Core/Src/er_tft040.c **** 
 1007              		.loc 1 141 2 view .LVU214
 1008 0010 E023     		movs	r3, #224
 1009 0012 FF33     		adds	r3, r3, #255
 1010 0014 0022     		movs	r2, #0
 1011 0016 5649     		ldr	r1, .L105
 1012 0018 0020     		movs	r0, #0
 1013 001a FFF7FEFF 		bl	LCD_SetPos_Horizontal
 1014              	.LVL131:
 144:Core/Src/er_tft040.c **** 	{
 1015              		.loc 1 144 2 view .LVU215
 144:Core/Src/er_tft040.c **** 	{
 1016              		.loc 1 144 9 is_stmt 0 view .LVU216
 1017 001e 0026     		movs	r6, #0
 144:Core/Src/er_tft040.c **** 	{
 1018              		.loc 1 144 2 view .LVU217
 1019 0020 10E0     		b	.L53
ARM GAS  /var/folders/_5/7dt5dlyd7598cb98063hl5tr0000gn/T//ccgSyEuv.s 			page 26


 1020              	.LVL132:
 1021              	.L54:
 150:Core/Src/er_tft040.c **** 				dbl = 0;
 1022              		.loc 1 150 5 is_stmt 1 discriminator 3 view .LVU218
 150:Core/Src/er_tft040.c **** 				dbl = 0;
 1023              		.loc 1 150 9 is_stmt 0 discriminator 3 view .LVU219
 1024 0022 E800     		lsls	r0, r5, #3
 1025 0024 C0B2     		uxtb	r0, r0
 1026              	.LVL133:
 151:Core/Src/er_tft040.c **** 				Write_Data_int(ER_TFT040_CONVERT_DATA(dbh, dbl));
 1027              		.loc 1 151 5 is_stmt 1 discriminator 3 view .LVU220
 152:Core/Src/er_tft040.c **** 			}
 1028              		.loc 1 152 5 discriminator 3 view .LVU221
 1029 0026 0002     		lsls	r0, r0, #8
 1030              	.LVL134:
 152:Core/Src/er_tft040.c **** 			}
 1031              		.loc 1 152 5 is_stmt 0 discriminator 3 view .LVU222
 1032 0028 FFF7FEFF 		bl	Write_Data_int
 1033              	.LVL135:
 148:Core/Src/er_tft040.c **** 			{
 1034              		.loc 1 148 25 is_stmt 1 discriminator 3 view .LVU223
 1035 002c 0134     		adds	r4, r4, #1
 1036              	.LVL136:
 148:Core/Src/er_tft040.c **** 			{
 1037              		.loc 1 148 25 is_stmt 0 discriminator 3 view .LVU224
 1038 002e E4B2     		uxtb	r4, r4
 1039              	.LVL137:
 1040              	.L55:
 148:Core/Src/er_tft040.c **** 			{
 1041              		.loc 1 148 18 is_stmt 1 discriminator 1 view .LVU225
 1042 0030 182C     		cmp	r4, #24
 1043 0032 F6D9     		bls	.L54
 146:Core/Src/er_tft040.c **** 		{
 1044              		.loc 1 146 24 discriminator 2 view .LVU226
 1045 0034 0135     		adds	r5, r5, #1
 1046              	.LVL138:
 146:Core/Src/er_tft040.c **** 		{
 1047              		.loc 1 146 24 is_stmt 0 discriminator 2 view .LVU227
 1048 0036 EDB2     		uxtb	r5, r5
 1049              	.LVL139:
 1050              	.L56:
 146:Core/Src/er_tft040.c **** 		{
 1051              		.loc 1 146 17 is_stmt 1 discriminator 1 view .LVU228
 1052 0038 1F2D     		cmp	r5, #31
 1053 003a 01D8     		bhi	.L95
 148:Core/Src/er_tft040.c **** 			{
 1054              		.loc 1 148 11 is_stmt 0 view .LVU229
 1055 003c 0024     		movs	r4, #0
 1056 003e F7E7     		b	.L55
 1057              	.L95:
 144:Core/Src/er_tft040.c **** 	{
 1058              		.loc 1 144 23 is_stmt 1 discriminator 2 view .LVU230
 1059 0040 0136     		adds	r6, r6, #1
 1060              	.LVL140:
 144:Core/Src/er_tft040.c **** 	{
 1061              		.loc 1 144 23 is_stmt 0 discriminator 2 view .LVU231
 1062 0042 F6B2     		uxtb	r6, r6
ARM GAS  /var/folders/_5/7dt5dlyd7598cb98063hl5tr0000gn/T//ccgSyEuv.s 			page 27


 1063              	.LVL141:
 1064              	.L53:
 144:Core/Src/er_tft040.c **** 	{
 1065              		.loc 1 144 16 is_stmt 1 discriminator 1 view .LVU232
 1066 0044 4F2E     		cmp	r6, #79
 1067 0046 01D8     		bhi	.L96
 146:Core/Src/er_tft040.c **** 		{
 1068              		.loc 1 146 10 is_stmt 0 view .LVU233
 1069 0048 0025     		movs	r5, #0
 1070 004a F5E7     		b	.L56
 1071              	.L96:
 158:Core/Src/er_tft040.c **** 	{
 1072              		.loc 1 158 9 view .LVU234
 1073 004c 0026     		movs	r6, #0
 1074              	.LVL142:
 158:Core/Src/er_tft040.c **** 	{
 1075              		.loc 1 158 9 view .LVU235
 1076 004e 17E0     		b	.L57
 1077              	.LVL143:
 1078              	.L58:
 165:Core/Src/er_tft040.c **** 				dbl = 0;
 1079              		.loc 1 165 5 is_stmt 1 discriminator 3 view .LVU236
 165:Core/Src/er_tft040.c **** 				dbl = 0;
 1080              		.loc 1 165 9 is_stmt 0 discriminator 3 view .LVU237
 1081 0050 E800     		lsls	r0, r5, #3
 1082 0052 C0B2     		uxtb	r0, r0
 1083              	.LVL144:
 166:Core/Src/er_tft040.c **** 				Write_Data_int(ER_TFT040_CONVERT_DATA(dbh, dbl));
 1084              		.loc 1 166 5 is_stmt 1 discriminator 3 view .LVU238
 167:Core/Src/er_tft040.c **** 			}
 1085              		.loc 1 167 5 discriminator 3 view .LVU239
 1086 0054 0002     		lsls	r0, r0, #8
 1087              	.LVL145:
 167:Core/Src/er_tft040.c **** 			}
 1088              		.loc 1 167 5 is_stmt 0 discriminator 3 view .LVU240
 1089 0056 FFF7FEFF 		bl	Write_Data_int
 1090              	.LVL146:
 163:Core/Src/er_tft040.c **** 			{
 1091              		.loc 1 163 25 is_stmt 1 discriminator 3 view .LVU241
 1092 005a 0134     		adds	r4, r4, #1
 1093              	.LVL147:
 163:Core/Src/er_tft040.c **** 			{
 1094              		.loc 1 163 25 is_stmt 0 discriminator 3 view .LVU242
 1095 005c E4B2     		uxtb	r4, r4
 1096              	.LVL148:
 1097              	.L59:
 163:Core/Src/er_tft040.c **** 			{
 1098              		.loc 1 163 18 is_stmt 1 discriminator 1 view .LVU243
 1099 005e 182C     		cmp	r4, #24
 1100 0060 F6D9     		bls	.L58
 161:Core/Src/er_tft040.c **** 		{
 1101              		.loc 1 161 24 discriminator 2 view .LVU244
 1102 0062 013D     		subs	r5, r5, #1
 1103              	.LVL149:
 161:Core/Src/er_tft040.c **** 		{
 1104              		.loc 1 161 24 is_stmt 0 discriminator 2 view .LVU245
 1105 0064 EDB2     		uxtb	r5, r5
ARM GAS  /var/folders/_5/7dt5dlyd7598cb98063hl5tr0000gn/T//ccgSyEuv.s 			page 28


 1106              	.LVL150:
 1107              	.L62:
 161:Core/Src/er_tft040.c **** 		{
 1108              		.loc 1 161 18 is_stmt 1 discriminator 1 view .LVU246
 1109 0066 002D     		cmp	r5, #0
 1110 0068 06D0     		beq	.L60
 163:Core/Src/er_tft040.c **** 			{
 1111              		.loc 1 163 11 is_stmt 0 view .LVU247
 1112 006a 0024     		movs	r4, #0
 1113 006c F7E7     		b	.L59
 1114              	.L61:
 174:Core/Src/er_tft040.c **** 	}
 1115              		.loc 1 174 4 is_stmt 1 discriminator 3 view .LVU248
 1116 006e 0020     		movs	r0, #0
 1117 0070 FFF7FEFF 		bl	Write_Data_int
 1118              	.LVL151:
 173:Core/Src/er_tft040.c **** 			Write_Data_int(0x0);
 1119              		.loc 1 173 24 discriminator 3 view .LVU249
 1120 0074 0135     		adds	r5, r5, #1
 1121              	.LVL152:
 173:Core/Src/er_tft040.c **** 			Write_Data_int(0x0);
 1122              		.loc 1 173 24 is_stmt 0 discriminator 3 view .LVU250
 1123 0076 EDB2     		uxtb	r5, r5
 1124              	.LVL153:
 1125              	.L60:
 173:Core/Src/er_tft040.c **** 			Write_Data_int(0x0);
 1126              		.loc 1 173 17 is_stmt 1 discriminator 1 view .LVU251
 1127 0078 182D     		cmp	r5, #24
 1128 007a F8D9     		bls	.L61
 158:Core/Src/er_tft040.c **** 	{
 1129              		.loc 1 158 23 discriminator 2 view .LVU252
 1130 007c 0136     		adds	r6, r6, #1
 1131              	.LVL154:
 158:Core/Src/er_tft040.c **** 	{
 1132              		.loc 1 158 23 is_stmt 0 discriminator 2 view .LVU253
 1133 007e F6B2     		uxtb	r6, r6
 1134              	.LVL155:
 1135              	.L57:
 158:Core/Src/er_tft040.c **** 	{
 1136              		.loc 1 158 16 is_stmt 1 discriminator 1 view .LVU254
 1137 0080 4F2E     		cmp	r6, #79
 1138 0082 01D8     		bhi	.L97
 161:Core/Src/er_tft040.c **** 		{
 1139              		.loc 1 161 10 is_stmt 0 view .LVU255
 1140 0084 1F25     		movs	r5, #31
 1141 0086 EEE7     		b	.L62
 1142              	.L97:
 178:Core/Src/er_tft040.c **** 	{
 1143              		.loc 1 178 9 view .LVU256
 1144 0088 0026     		movs	r6, #0
 1145              	.LVL156:
 178:Core/Src/er_tft040.c **** 	{
 1146              		.loc 1 178 9 view .LVU257
 1147 008a 12E0     		b	.L63
 1148              	.LVL157:
 1149              	.L64:
 185:Core/Src/er_tft040.c **** 				dbl = i << 5;
ARM GAS  /var/folders/_5/7dt5dlyd7598cb98063hl5tr0000gn/T//ccgSyEuv.s 			page 29


 1150              		.loc 1 185 5 is_stmt 1 discriminator 3 view .LVU258
 185:Core/Src/er_tft040.c **** 				dbl = i << 5;
 1151              		.loc 1 185 9 is_stmt 0 discriminator 3 view .LVU259
 1152 008c EB08     		lsrs	r3, r5, #3
 186:Core/Src/er_tft040.c **** 				Write_Data_int(ER_TFT040_CONVERT_DATA(dbh, dbl));
 1153              		.loc 1 186 5 is_stmt 1 discriminator 3 view .LVU260
 186:Core/Src/er_tft040.c **** 				Write_Data_int(ER_TFT040_CONVERT_DATA(dbh, dbl));
 1154              		.loc 1 186 9 is_stmt 0 discriminator 3 view .LVU261
 1155 008e 6A01     		lsls	r2, r5, #5
 1156 0090 D2B2     		uxtb	r2, r2
 1157              	.LVL158:
 187:Core/Src/er_tft040.c **** 			}
 1158              		.loc 1 187 5 is_stmt 1 discriminator 3 view .LVU262
 187:Core/Src/er_tft040.c **** 			}
 1159              		.loc 1 187 20 is_stmt 0 discriminator 3 view .LVU263
 1160 0092 1802     		lsls	r0, r3, #8
 187:Core/Src/er_tft040.c **** 			}
 1161              		.loc 1 187 5 discriminator 3 view .LVU264
 1162 0094 1043     		orrs	r0, r2
 1163 0096 FFF7FEFF 		bl	Write_Data_int
 1164              	.LVL159:
 183:Core/Src/er_tft040.c **** 			{
 1165              		.loc 1 183 25 is_stmt 1 discriminator 3 view .LVU265
 1166 009a 0134     		adds	r4, r4, #1
 1167              	.LVL160:
 183:Core/Src/er_tft040.c **** 			{
 1168              		.loc 1 183 25 is_stmt 0 discriminator 3 view .LVU266
 1169 009c E4B2     		uxtb	r4, r4
 1170              	.LVL161:
 1171              	.L65:
 183:Core/Src/er_tft040.c **** 			{
 1172              		.loc 1 183 18 is_stmt 1 discriminator 1 view .LVU267
 1173 009e 182C     		cmp	r4, #24
 1174 00a0 F4D9     		bls	.L64
 181:Core/Src/er_tft040.c **** 		{
 1175              		.loc 1 181 25 discriminator 2 view .LVU268
 1176 00a2 0235     		adds	r5, r5, #2
 1177              	.LVL162:
 181:Core/Src/er_tft040.c **** 		{
 1178              		.loc 1 181 25 is_stmt 0 discriminator 2 view .LVU269
 1179 00a4 EDB2     		uxtb	r5, r5
 1180              	.LVL163:
 1181              	.L66:
 181:Core/Src/er_tft040.c **** 		{
 1182              		.loc 1 181 17 is_stmt 1 discriminator 1 view .LVU270
 1183 00a6 3F2D     		cmp	r5, #63
 1184 00a8 01D8     		bhi	.L98
 183:Core/Src/er_tft040.c **** 			{
 1185              		.loc 1 183 11 is_stmt 0 view .LVU271
 1186 00aa 0024     		movs	r4, #0
 1187 00ac F7E7     		b	.L65
 1188              	.L98:
 178:Core/Src/er_tft040.c **** 	{
 1189              		.loc 1 178 23 is_stmt 1 discriminator 2 view .LVU272
 1190 00ae 0136     		adds	r6, r6, #1
 1191              	.LVL164:
 178:Core/Src/er_tft040.c **** 	{
ARM GAS  /var/folders/_5/7dt5dlyd7598cb98063hl5tr0000gn/T//ccgSyEuv.s 			page 30


 1192              		.loc 1 178 23 is_stmt 0 discriminator 2 view .LVU273
 1193 00b0 F6B2     		uxtb	r6, r6
 1194              	.LVL165:
 1195              	.L63:
 178:Core/Src/er_tft040.c **** 	{
 1196              		.loc 1 178 16 is_stmt 1 discriminator 1 view .LVU274
 1197 00b2 4F2E     		cmp	r6, #79
 1198 00b4 01D8     		bhi	.L99
 181:Core/Src/er_tft040.c **** 		{
 1199              		.loc 1 181 10 is_stmt 0 view .LVU275
 1200 00b6 0025     		movs	r5, #0
 1201 00b8 F5E7     		b	.L66
 1202              	.L99:
 193:Core/Src/er_tft040.c **** 	{
 1203              		.loc 1 193 9 view .LVU276
 1204 00ba 0026     		movs	r6, #0
 1205              	.LVL166:
 193:Core/Src/er_tft040.c **** 	{
 1206              		.loc 1 193 9 view .LVU277
 1207 00bc 1BE0     		b	.L67
 1208              	.LVL167:
 1209              	.L68:
 199:Core/Src/er_tft040.c **** 				dbl = i << 5;
 1210              		.loc 1 199 5 is_stmt 1 discriminator 3 view .LVU278
 199:Core/Src/er_tft040.c **** 				dbl = i << 5;
 1211              		.loc 1 199 9 is_stmt 0 discriminator 3 view .LVU279
 1212 00be EB08     		lsrs	r3, r5, #3
 200:Core/Src/er_tft040.c **** 				Write_Data_int(ER_TFT040_CONVERT_DATA(dbh, dbl));
 1213              		.loc 1 200 5 is_stmt 1 discriminator 3 view .LVU280
 200:Core/Src/er_tft040.c **** 				Write_Data_int(ER_TFT040_CONVERT_DATA(dbh, dbl));
 1214              		.loc 1 200 9 is_stmt 0 discriminator 3 view .LVU281
 1215 00c0 6A01     		lsls	r2, r5, #5
 1216 00c2 D2B2     		uxtb	r2, r2
 1217              	.LVL168:
 201:Core/Src/er_tft040.c **** 			}
 1218              		.loc 1 201 5 is_stmt 1 discriminator 3 view .LVU282
 201:Core/Src/er_tft040.c **** 			}
 1219              		.loc 1 201 20 is_stmt 0 discriminator 3 view .LVU283
 1220 00c4 1802     		lsls	r0, r3, #8
 201:Core/Src/er_tft040.c **** 			}
 1221              		.loc 1 201 5 discriminator 3 view .LVU284
 1222 00c6 1043     		orrs	r0, r2
 1223 00c8 FFF7FEFF 		bl	Write_Data_int
 1224              	.LVL169:
 197:Core/Src/er_tft040.c **** 			{
 1225              		.loc 1 197 25 is_stmt 1 discriminator 3 view .LVU285
 1226 00cc 0134     		adds	r4, r4, #1
 1227              	.LVL170:
 197:Core/Src/er_tft040.c **** 			{
 1228              		.loc 1 197 25 is_stmt 0 discriminator 3 view .LVU286
 1229 00ce E4B2     		uxtb	r4, r4
 1230              	.LVL171:
 1231              	.L69:
 197:Core/Src/er_tft040.c **** 			{
 1232              		.loc 1 197 18 is_stmt 1 discriminator 1 view .LVU287
 1233 00d0 182C     		cmp	r4, #24
 1234 00d2 F4D9     		bls	.L68
ARM GAS  /var/folders/_5/7dt5dlyd7598cb98063hl5tr0000gn/T//ccgSyEuv.s 			page 31


 195:Core/Src/er_tft040.c **** 		{
 1235              		.loc 1 195 26 discriminator 2 view .LVU288
 1236 00d4 023D     		subs	r5, r5, #2
 1237              	.LVL172:
 195:Core/Src/er_tft040.c **** 		{
 1238              		.loc 1 195 26 is_stmt 0 discriminator 2 view .LVU289
 1239 00d6 EDB2     		uxtb	r5, r5
 1240              	.LVL173:
 1241              	.L72:
 195:Core/Src/er_tft040.c **** 		{
 1242              		.loc 1 195 18 is_stmt 1 discriminator 1 view .LVU290
 1243 00d8 012D     		cmp	r5, #1
 1244 00da 01D0     		beq	.L100
 197:Core/Src/er_tft040.c **** 			{
 1245              		.loc 1 197 11 is_stmt 0 view .LVU291
 1246 00dc 0024     		movs	r4, #0
 1247 00de F7E7     		b	.L69
 1248              	.L100:
 206:Core/Src/er_tft040.c **** 			Write_Data_int(0x0);
 1249              		.loc 1 206 10 view .LVU292
 1250 00e0 0024     		movs	r4, #0
 1251 00e2 04E0     		b	.L70
 1252              	.LVL174:
 1253              	.L71:
 207:Core/Src/er_tft040.c **** 	}
 1254              		.loc 1 207 4 is_stmt 1 discriminator 3 view .LVU293
 1255 00e4 0020     		movs	r0, #0
 1256 00e6 FFF7FEFF 		bl	Write_Data_int
 1257              	.LVL175:
 206:Core/Src/er_tft040.c **** 			Write_Data_int(0x0);
 1258              		.loc 1 206 24 discriminator 3 view .LVU294
 1259 00ea 0134     		adds	r4, r4, #1
 1260              	.LVL176:
 206:Core/Src/er_tft040.c **** 			Write_Data_int(0x0);
 1261              		.loc 1 206 24 is_stmt 0 discriminator 3 view .LVU295
 1262 00ec E4B2     		uxtb	r4, r4
 1263              	.LVL177:
 1264              	.L70:
 206:Core/Src/er_tft040.c **** 			Write_Data_int(0x0);
 1265              		.loc 1 206 17 is_stmt 1 discriminator 1 view .LVU296
 1266 00ee 182C     		cmp	r4, #24
 1267 00f0 F8D9     		bls	.L71
 193:Core/Src/er_tft040.c **** 	{
 1268              		.loc 1 193 23 discriminator 2 view .LVU297
 1269 00f2 0136     		adds	r6, r6, #1
 1270              	.LVL178:
 193:Core/Src/er_tft040.c **** 	{
 1271              		.loc 1 193 23 is_stmt 0 discriminator 2 view .LVU298
 1272 00f4 F6B2     		uxtb	r6, r6
 1273              	.LVL179:
 1274              	.L67:
 193:Core/Src/er_tft040.c **** 	{
 1275              		.loc 1 193 16 is_stmt 1 discriminator 1 view .LVU299
 1276 00f6 4F2E     		cmp	r6, #79
 1277 00f8 01D8     		bhi	.L101
 195:Core/Src/er_tft040.c **** 		{
 1278              		.loc 1 195 10 is_stmt 0 view .LVU300
ARM GAS  /var/folders/_5/7dt5dlyd7598cb98063hl5tr0000gn/T//ccgSyEuv.s 			page 32


 1279 00fa 3F25     		movs	r5, #63
 1280 00fc ECE7     		b	.L72
 1281              	.L101:
 211:Core/Src/er_tft040.c **** 	{
 1282              		.loc 1 211 9 view .LVU301
 1283 00fe 0026     		movs	r6, #0
 1284              	.LVL180:
 211:Core/Src/er_tft040.c **** 	{
 1285              		.loc 1 211 9 view .LVU302
 1286 0100 0EE0     		b	.L73
 1287              	.LVL181:
 1288              	.L74:
 217:Core/Src/er_tft040.c **** 				dbl = i;
 1289              		.loc 1 217 5 is_stmt 1 discriminator 3 view .LVU303
 218:Core/Src/er_tft040.c **** 				Write_Data_int(ER_TFT040_CONVERT_DATA(dbh, dbl));
 1290              		.loc 1 218 5 discriminator 3 view .LVU304
 219:Core/Src/er_tft040.c **** 			}
 1291              		.loc 1 219 5 discriminator 3 view .LVU305
 1292 0102 2800     		movs	r0, r5
 1293 0104 FFF7FEFF 		bl	Write_Data_int
 1294              	.LVL182:
 215:Core/Src/er_tft040.c **** 			{
 1295              		.loc 1 215 25 discriminator 3 view .LVU306
 1296 0108 0134     		adds	r4, r4, #1
 1297              	.LVL183:
 215:Core/Src/er_tft040.c **** 			{
 1298              		.loc 1 215 25 is_stmt 0 discriminator 3 view .LVU307
 1299 010a E4B2     		uxtb	r4, r4
 1300              	.LVL184:
 1301              	.L75:
 215:Core/Src/er_tft040.c **** 			{
 1302              		.loc 1 215 18 is_stmt 1 discriminator 1 view .LVU308
 1303 010c 182C     		cmp	r4, #24
 1304 010e F8D9     		bls	.L74
 213:Core/Src/er_tft040.c **** 		{
 1305              		.loc 1 213 24 discriminator 2 view .LVU309
 1306 0110 0135     		adds	r5, r5, #1
 1307              	.LVL185:
 213:Core/Src/er_tft040.c **** 		{
 1308              		.loc 1 213 24 is_stmt 0 discriminator 2 view .LVU310
 1309 0112 EDB2     		uxtb	r5, r5
 1310              	.LVL186:
 1311              	.L76:
 213:Core/Src/er_tft040.c **** 		{
 1312              		.loc 1 213 17 is_stmt 1 discriminator 1 view .LVU311
 1313 0114 1F2D     		cmp	r5, #31
 1314 0116 01D8     		bhi	.L102
 215:Core/Src/er_tft040.c **** 			{
 1315              		.loc 1 215 11 is_stmt 0 view .LVU312
 1316 0118 0024     		movs	r4, #0
 1317 011a F7E7     		b	.L75
 1318              	.L102:
 211:Core/Src/er_tft040.c **** 	{
 1319              		.loc 1 211 23 is_stmt 1 discriminator 2 view .LVU313
 1320 011c 0136     		adds	r6, r6, #1
 1321              	.LVL187:
 211:Core/Src/er_tft040.c **** 	{
ARM GAS  /var/folders/_5/7dt5dlyd7598cb98063hl5tr0000gn/T//ccgSyEuv.s 			page 33


 1322              		.loc 1 211 23 is_stmt 0 discriminator 2 view .LVU314
 1323 011e F6B2     		uxtb	r6, r6
 1324              	.LVL188:
 1325              	.L73:
 211:Core/Src/er_tft040.c **** 	{
 1326              		.loc 1 211 16 is_stmt 1 discriminator 1 view .LVU315
 1327 0120 4F2E     		cmp	r6, #79
 1328 0122 01D8     		bhi	.L103
 213:Core/Src/er_tft040.c **** 		{
 1329              		.loc 1 213 10 is_stmt 0 view .LVU316
 1330 0124 0025     		movs	r5, #0
 1331 0126 F5E7     		b	.L76
 1332              	.L103:
 225:Core/Src/er_tft040.c **** 	{
 1333              		.loc 1 225 9 view .LVU317
 1334 0128 0026     		movs	r6, #0
 1335              	.LVL189:
 225:Core/Src/er_tft040.c **** 	{
 1336              		.loc 1 225 9 view .LVU318
 1337 012a 15E0     		b	.L77
 1338              	.LVL190:
 1339              	.L78:
 232:Core/Src/er_tft040.c **** 				dbl = i;
 1340              		.loc 1 232 5 is_stmt 1 discriminator 3 view .LVU319
 233:Core/Src/er_tft040.c **** 				Write_Data_int(ER_TFT040_CONVERT_DATA(dbh, dbl));
 1341              		.loc 1 233 5 discriminator 3 view .LVU320
 234:Core/Src/er_tft040.c **** 			}
 1342              		.loc 1 234 5 discriminator 3 view .LVU321
 1343 012c 2800     		movs	r0, r5
 1344 012e FFF7FEFF 		bl	Write_Data_int
 1345              	.LVL191:
 230:Core/Src/er_tft040.c **** 			{
 1346              		.loc 1 230 25 discriminator 3 view .LVU322
 1347 0132 0134     		adds	r4, r4, #1
 1348              	.LVL192:
 230:Core/Src/er_tft040.c **** 			{
 1349              		.loc 1 230 25 is_stmt 0 discriminator 3 view .LVU323
 1350 0134 E4B2     		uxtb	r4, r4
 1351              	.LVL193:
 1352              	.L79:
 230:Core/Src/er_tft040.c **** 			{
 1353              		.loc 1 230 18 is_stmt 1 discriminator 1 view .LVU324
 1354 0136 182C     		cmp	r4, #24
 1355 0138 F8D9     		bls	.L78
 228:Core/Src/er_tft040.c **** 		{
 1356              		.loc 1 228 24 discriminator 2 view .LVU325
 1357 013a 013D     		subs	r5, r5, #1
 1358              	.LVL194:
 228:Core/Src/er_tft040.c **** 		{
 1359              		.loc 1 228 24 is_stmt 0 discriminator 2 view .LVU326
 1360 013c EDB2     		uxtb	r5, r5
 1361              	.LVL195:
 1362              	.L82:
 228:Core/Src/er_tft040.c **** 		{
 1363              		.loc 1 228 18 is_stmt 1 discriminator 1 view .LVU327
 1364 013e 002D     		cmp	r5, #0
 1365 0140 06D0     		beq	.L80
ARM GAS  /var/folders/_5/7dt5dlyd7598cb98063hl5tr0000gn/T//ccgSyEuv.s 			page 34


 230:Core/Src/er_tft040.c **** 			{
 1366              		.loc 1 230 11 is_stmt 0 view .LVU328
 1367 0142 0024     		movs	r4, #0
 1368 0144 F7E7     		b	.L79
 1369              	.L81:
 240:Core/Src/er_tft040.c **** 	}
 1370              		.loc 1 240 4 is_stmt 1 discriminator 3 view .LVU329
 1371 0146 0020     		movs	r0, #0
 1372 0148 FFF7FEFF 		bl	Write_Data_int
 1373              	.LVL196:
 239:Core/Src/er_tft040.c **** 			Write_Data_int(0x0);
 1374              		.loc 1 239 24 discriminator 3 view .LVU330
 1375 014c 0135     		adds	r5, r5, #1
 1376              	.LVL197:
 239:Core/Src/er_tft040.c **** 			Write_Data_int(0x0);
 1377              		.loc 1 239 24 is_stmt 0 discriminator 3 view .LVU331
 1378 014e EDB2     		uxtb	r5, r5
 1379              	.LVL198:
 1380              	.L80:
 239:Core/Src/er_tft040.c **** 			Write_Data_int(0x0);
 1381              		.loc 1 239 17 is_stmt 1 discriminator 1 view .LVU332
 1382 0150 182D     		cmp	r5, #24
 1383 0152 F8D9     		bls	.L81
 225:Core/Src/er_tft040.c **** 	{
 1384              		.loc 1 225 23 discriminator 2 view .LVU333
 1385 0154 0136     		adds	r6, r6, #1
 1386              	.LVL199:
 225:Core/Src/er_tft040.c **** 	{
 1387              		.loc 1 225 23 is_stmt 0 discriminator 2 view .LVU334
 1388 0156 F6B2     		uxtb	r6, r6
 1389              	.LVL200:
 1390              	.L77:
 225:Core/Src/er_tft040.c **** 	{
 1391              		.loc 1 225 16 is_stmt 1 discriminator 1 view .LVU335
 1392 0158 4F2E     		cmp	r6, #79
 1393 015a 01D8     		bhi	.L104
 228:Core/Src/er_tft040.c **** 		{
 1394              		.loc 1 228 10 is_stmt 0 view .LVU336
 1395 015c 1F25     		movs	r5, #31
 1396 015e EEE7     		b	.L82
 1397              	.L104:
 243:Core/Src/er_tft040.c **** 	Write_Data_int(0x00);
 1398              		.loc 1 243 2 is_stmt 1 view .LVU337
 1399 0160 D820     		movs	r0, #216
 1400 0162 8001     		lsls	r0, r0, #6
 1401 0164 FFF7FEFF 		bl	Write_Command
 1402              	.LVL201:
 244:Core/Src/er_tft040.c **** }
 1403              		.loc 1 244 2 view .LVU338
 1404 0168 0020     		movs	r0, #0
 1405 016a FFF7FEFF 		bl	Write_Data_int
 1406              	.LVL202:
 245:Core/Src/er_tft040.c **** 
 1407              		.loc 1 245 1 is_stmt 0 view .LVU339
 1408              		@ sp needed
 1409              	.LVL203:
 245:Core/Src/er_tft040.c **** 
ARM GAS  /var/folders/_5/7dt5dlyd7598cb98063hl5tr0000gn/T//ccgSyEuv.s 			page 35


 1410              		.loc 1 245 1 view .LVU340
 1411 016e 70BD     		pop	{r4, r5, r6, pc}
 1412              	.L106:
 1413              		.align	2
 1414              	.L105:
 1415 0170 1F030000 		.word	799
 1416              		.cfi_endproc
 1417              	.LFE46:
 1419              		.section	.text.nt35510_Initial,"ax",%progbits
 1420              		.align	1
 1421              		.global	nt35510_Initial
 1422              		.syntax unified
 1423              		.code	16
 1424              		.thumb_func
 1426              	nt35510_Initial:
 1427              	.LFB49:
 304:Core/Src/er_tft040.c **** 
 305:Core/Src/er_tft040.c **** void nt35510_Initial(void)
 306:Core/Src/er_tft040.c **** {
 1428              		.loc 1 306 1 is_stmt 1 view -0
 1429              		.cfi_startproc
 1430              		@ args = 0, pretend = 0, frame = 0
 1431              		@ frame_needed = 0, uses_anonymous_args = 0
 1432 0000 70B5     		push	{r4, r5, r6, lr}
 1433              		.cfi_def_cfa_offset 16
 1434              		.cfi_offset 4, -16
 1435              		.cfi_offset 5, -12
 1436              		.cfi_offset 6, -8
 1437              		.cfi_offset 14, -4
 307:Core/Src/er_tft040.c **** 
 308:Core/Src/er_tft040.c **** 	HAL_GPIO_WritePin(DISPLAY_RESET_GPIO_Port, DISPLAY_RESET_Pin, 1);
 1438              		.loc 1 308 2 view .LVU342
 1439 0002 FE4C     		ldr	r4, .L112
 1440 0004 0122     		movs	r2, #1
 1441 0006 4021     		movs	r1, #64
 1442 0008 2000     		movs	r0, r4
 1443 000a FFF7FEFF 		bl	HAL_GPIO_WritePin
 1444              	.LVL204:
 309:Core/Src/er_tft040.c **** 	HAL_Delay(200);
 1445              		.loc 1 309 2 view .LVU343
 1446 000e C820     		movs	r0, #200
 1447 0010 FFF7FEFF 		bl	HAL_Delay
 1448              	.LVL205:
 310:Core/Src/er_tft040.c **** 	HAL_GPIO_WritePin(DISPLAY_RESET_GPIO_Port, DISPLAY_RESET_Pin, 0);
 1449              		.loc 1 310 2 view .LVU344
 1450 0014 0022     		movs	r2, #0
 1451 0016 4021     		movs	r1, #64
 1452 0018 2000     		movs	r0, r4
 1453 001a FFF7FEFF 		bl	HAL_GPIO_WritePin
 1454              	.LVL206:
 311:Core/Src/er_tft040.c **** 	HAL_Delay(800);
 1455              		.loc 1 311 2 view .LVU345
 1456 001e C825     		movs	r5, #200
 1457 0020 AD00     		lsls	r5, r5, #2
 1458 0022 2800     		movs	r0, r5
 1459 0024 FFF7FEFF 		bl	HAL_Delay
 1460              	.LVL207:
ARM GAS  /var/folders/_5/7dt5dlyd7598cb98063hl5tr0000gn/T//ccgSyEuv.s 			page 36


 312:Core/Src/er_tft040.c **** 	HAL_GPIO_WritePin(DISPLAY_RESET_GPIO_Port, DISPLAY_RESET_Pin, 1);
 1461              		.loc 1 312 2 view .LVU346
 1462 0028 0122     		movs	r2, #1
 1463 002a 4021     		movs	r1, #64
 1464 002c 2000     		movs	r0, r4
 1465 002e FFF7FEFF 		bl	HAL_GPIO_WritePin
 1466              	.LVL208:
 313:Core/Src/er_tft040.c **** 	HAL_Delay(800);
 1467              		.loc 1 313 2 view .LVU347
 1468 0032 2800     		movs	r0, r5
 1469 0034 FFF7FEFF 		bl	HAL_Delay
 1470              	.LVL209:
 314:Core/Src/er_tft040.c **** 
 315:Core/Src/er_tft040.c **** 	// 35510h
 316:Core/Src/er_tft040.c **** 	Write_Command(0xF000);
 1471              		.loc 1 316 2 view .LVU348
 1472 0038 F020     		movs	r0, #240
 1473 003a 0002     		lsls	r0, r0, #8
 1474 003c FFF7FEFF 		bl	Write_Command
 1475              	.LVL210:
 317:Core/Src/er_tft040.c **** 	Write_Data_int(0x55);
 1476              		.loc 1 317 2 view .LVU349
 1477 0040 5520     		movs	r0, #85
 1478 0042 FFF7FEFF 		bl	Write_Data_int
 1479              	.LVL211:
 318:Core/Src/er_tft040.c **** 	Write_Command(0xF001);
 1480              		.loc 1 318 2 view .LVU350
 1481 0046 EE48     		ldr	r0, .L112+4
 1482 0048 FFF7FEFF 		bl	Write_Command
 1483              	.LVL212:
 319:Core/Src/er_tft040.c **** 	Write_Data_int(0xAA);
 1484              		.loc 1 319 2 view .LVU351
 1485 004c AA20     		movs	r0, #170
 1486 004e FFF7FEFF 		bl	Write_Data_int
 1487              	.LVL213:
 320:Core/Src/er_tft040.c **** 	Write_Command(0xF002);
 1488              		.loc 1 320 2 view .LVU352
 1489 0052 EC48     		ldr	r0, .L112+8
 1490 0054 FFF7FEFF 		bl	Write_Command
 1491              	.LVL214:
 321:Core/Src/er_tft040.c **** 	Write_Data_int(0x52);
 1492              		.loc 1 321 2 view .LVU353
 1493 0058 5220     		movs	r0, #82
 1494 005a FFF7FEFF 		bl	Write_Data_int
 1495              	.LVL215:
 322:Core/Src/er_tft040.c **** 	Write_Command(0xF003);
 1496              		.loc 1 322 2 view .LVU354
 1497 005e EA48     		ldr	r0, .L112+12
 1498 0060 FFF7FEFF 		bl	Write_Command
 1499              	.LVL216:
 323:Core/Src/er_tft040.c **** 	Write_Data_int(0x08);
 1500              		.loc 1 323 2 view .LVU355
 1501 0064 0820     		movs	r0, #8
 1502 0066 FFF7FEFF 		bl	Write_Data_int
 1503              	.LVL217:
 324:Core/Src/er_tft040.c **** 	Write_Command(0xF004);
 1504              		.loc 1 324 2 view .LVU356
ARM GAS  /var/folders/_5/7dt5dlyd7598cb98063hl5tr0000gn/T//ccgSyEuv.s 			page 37


 1505 006a E848     		ldr	r0, .L112+16
 1506 006c FFF7FEFF 		bl	Write_Command
 1507              	.LVL218:
 325:Core/Src/er_tft040.c **** 	Write_Data_int(0x01);
 1508              		.loc 1 325 2 view .LVU357
 1509 0070 0120     		movs	r0, #1
 1510 0072 FFF7FEFF 		bl	Write_Data_int
 1511              	.LVL219:
 326:Core/Src/er_tft040.c **** 
 327:Core/Src/er_tft040.c **** 	// #AVDD Set AVDD 5.2V
 328:Core/Src/er_tft040.c **** 	Write_Command(0xB000);
 1512              		.loc 1 328 2 view .LVU358
 1513 0076 B020     		movs	r0, #176
 1514 0078 0002     		lsls	r0, r0, #8
 1515 007a FFF7FEFF 		bl	Write_Command
 1516              	.LVL220:
 329:Core/Src/er_tft040.c **** 	Write_Data_int(0x0D);
 1517              		.loc 1 329 2 view .LVU359
 1518 007e 0D20     		movs	r0, #13
 1519 0080 FFF7FEFF 		bl	Write_Data_int
 1520              	.LVL221:
 330:Core/Src/er_tft040.c **** 	Write_Command(0xB001);
 1521              		.loc 1 330 2 view .LVU360
 1522 0084 E248     		ldr	r0, .L112+20
 1523 0086 FFF7FEFF 		bl	Write_Command
 1524              	.LVL222:
 331:Core/Src/er_tft040.c **** 	Write_Data_int(0x0D);
 1525              		.loc 1 331 2 view .LVU361
 1526 008a 0D20     		movs	r0, #13
 1527 008c FFF7FEFF 		bl	Write_Data_int
 1528              	.LVL223:
 332:Core/Src/er_tft040.c **** 	Write_Command(0xB002);
 1529              		.loc 1 332 2 view .LVU362
 1530 0090 E048     		ldr	r0, .L112+24
 1531 0092 FFF7FEFF 		bl	Write_Command
 1532              	.LVL224:
 333:Core/Src/er_tft040.c **** 	Write_Data_int(0x0D);
 1533              		.loc 1 333 2 view .LVU363
 1534 0096 0D20     		movs	r0, #13
 1535 0098 FFF7FEFF 		bl	Write_Data_int
 1536              	.LVL225:
 334:Core/Src/er_tft040.c **** 
 335:Core/Src/er_tft040.c **** 	// #AVDD ratio
 336:Core/Src/er_tft040.c **** 	Write_Command(0xB600);
 1537              		.loc 1 336 2 view .LVU364
 1538 009c B620     		movs	r0, #182
 1539 009e 0002     		lsls	r0, r0, #8
 1540 00a0 FFF7FEFF 		bl	Write_Command
 1541              	.LVL226:
 337:Core/Src/er_tft040.c **** 	Write_Data_int(0x34);
 1542              		.loc 1 337 2 view .LVU365
 1543 00a4 3420     		movs	r0, #52
 1544 00a6 FFF7FEFF 		bl	Write_Data_int
 1545              	.LVL227:
 338:Core/Src/er_tft040.c **** 	Write_Command(0xB601);
 1546              		.loc 1 338 2 view .LVU366
 1547 00aa DB48     		ldr	r0, .L112+28
ARM GAS  /var/folders/_5/7dt5dlyd7598cb98063hl5tr0000gn/T//ccgSyEuv.s 			page 38


 1548 00ac FFF7FEFF 		bl	Write_Command
 1549              	.LVL228:
 339:Core/Src/er_tft040.c **** 	Write_Data_int(0x34);
 1550              		.loc 1 339 2 view .LVU367
 1551 00b0 3420     		movs	r0, #52
 1552 00b2 FFF7FEFF 		bl	Write_Data_int
 1553              	.LVL229:
 340:Core/Src/er_tft040.c **** 	Write_Command(0xB602);
 1554              		.loc 1 340 2 view .LVU368
 1555 00b6 D948     		ldr	r0, .L112+32
 1556 00b8 FFF7FEFF 		bl	Write_Command
 1557              	.LVL230:
 341:Core/Src/er_tft040.c **** 	Write_Data_int(0x34);
 1558              		.loc 1 341 2 view .LVU369
 1559 00bc 3420     		movs	r0, #52
 1560 00be FFF7FEFF 		bl	Write_Data_int
 1561              	.LVL231:
 342:Core/Src/er_tft040.c **** 
 343:Core/Src/er_tft040.c **** 	// #AVEE  -5.2V
 344:Core/Src/er_tft040.c **** 	Write_Command(0xB100);
 1562              		.loc 1 344 2 view .LVU370
 1563 00c2 B120     		movs	r0, #177
 1564 00c4 0002     		lsls	r0, r0, #8
 1565 00c6 FFF7FEFF 		bl	Write_Command
 1566              	.LVL232:
 345:Core/Src/er_tft040.c **** 	Write_Data_int(0x0D);
 1567              		.loc 1 345 2 view .LVU371
 1568 00ca 0D20     		movs	r0, #13
 1569 00cc FFF7FEFF 		bl	Write_Data_int
 1570              	.LVL233:
 346:Core/Src/er_tft040.c **** 	Write_Command(0xB101);
 1571              		.loc 1 346 2 view .LVU372
 1572 00d0 D348     		ldr	r0, .L112+36
 1573 00d2 FFF7FEFF 		bl	Write_Command
 1574              	.LVL234:
 347:Core/Src/er_tft040.c **** 	Write_Data_int(0x0D);
 1575              		.loc 1 347 2 view .LVU373
 1576 00d6 0D20     		movs	r0, #13
 1577 00d8 FFF7FEFF 		bl	Write_Data_int
 1578              	.LVL235:
 348:Core/Src/er_tft040.c **** 	Write_Command(0xB102);
 1579              		.loc 1 348 2 view .LVU374
 1580 00dc D148     		ldr	r0, .L112+40
 1581 00de FFF7FEFF 		bl	Write_Command
 1582              	.LVL236:
 349:Core/Src/er_tft040.c **** 	Write_Data_int(0x0D);
 1583              		.loc 1 349 2 view .LVU375
 1584 00e2 0D20     		movs	r0, #13
 1585 00e4 FFF7FEFF 		bl	Write_Data_int
 1586              	.LVL237:
 350:Core/Src/er_tft040.c **** 
 351:Core/Src/er_tft040.c **** 	// #AVEE ratio
 352:Core/Src/er_tft040.c **** 	Write_Command(0xB700);
 1587              		.loc 1 352 2 view .LVU376
 1588 00e8 B720     		movs	r0, #183
 1589 00ea 0002     		lsls	r0, r0, #8
 1590 00ec FFF7FEFF 		bl	Write_Command
ARM GAS  /var/folders/_5/7dt5dlyd7598cb98063hl5tr0000gn/T//ccgSyEuv.s 			page 39


 1591              	.LVL238:
 353:Core/Src/er_tft040.c **** 	Write_Data_int(0x34);
 1592              		.loc 1 353 2 view .LVU377
 1593 00f0 3420     		movs	r0, #52
 1594 00f2 FFF7FEFF 		bl	Write_Data_int
 1595              	.LVL239:
 354:Core/Src/er_tft040.c **** 	Write_Command(0xB701);
 1596              		.loc 1 354 2 view .LVU378
 1597 00f6 CC48     		ldr	r0, .L112+44
 1598 00f8 FFF7FEFF 		bl	Write_Command
 1599              	.LVL240:
 355:Core/Src/er_tft040.c **** 	Write_Data_int(0x34);
 1600              		.loc 1 355 2 view .LVU379
 1601 00fc 3420     		movs	r0, #52
 1602 00fe FFF7FEFF 		bl	Write_Data_int
 1603              	.LVL241:
 356:Core/Src/er_tft040.c **** 	Write_Command(0xB702);
 1604              		.loc 1 356 2 view .LVU380
 1605 0102 CA48     		ldr	r0, .L112+48
 1606 0104 FFF7FEFF 		bl	Write_Command
 1607              	.LVL242:
 357:Core/Src/er_tft040.c **** 	Write_Data_int(0x34);
 1608              		.loc 1 357 2 view .LVU381
 1609 0108 3420     		movs	r0, #52
 1610 010a FFF7FEFF 		bl	Write_Data_int
 1611              	.LVL243:
 358:Core/Src/er_tft040.c **** 
 359:Core/Src/er_tft040.c **** 	// #VCL  -2.5V
 360:Core/Src/er_tft040.c **** 	Write_Command(0xB200);
 1612              		.loc 1 360 2 view .LVU382
 1613 010e B220     		movs	r0, #178
 1614 0110 0002     		lsls	r0, r0, #8
 1615 0112 FFF7FEFF 		bl	Write_Command
 1616              	.LVL244:
 361:Core/Src/er_tft040.c **** 	Write_Data_int(0x00);
 1617              		.loc 1 361 2 view .LVU383
 1618 0116 0020     		movs	r0, #0
 1619 0118 FFF7FEFF 		bl	Write_Data_int
 1620              	.LVL245:
 362:Core/Src/er_tft040.c **** 	Write_Command(0xB201);
 1621              		.loc 1 362 2 view .LVU384
 1622 011c C448     		ldr	r0, .L112+52
 1623 011e FFF7FEFF 		bl	Write_Command
 1624              	.LVL246:
 363:Core/Src/er_tft040.c **** 	Write_Data_int(0x00);
 1625              		.loc 1 363 2 view .LVU385
 1626 0122 0020     		movs	r0, #0
 1627 0124 FFF7FEFF 		bl	Write_Data_int
 1628              	.LVL247:
 364:Core/Src/er_tft040.c **** 	Write_Command(0xB202);
 1629              		.loc 1 364 2 view .LVU386
 1630 0128 C248     		ldr	r0, .L112+56
 1631 012a FFF7FEFF 		bl	Write_Command
 1632              	.LVL248:
 365:Core/Src/er_tft040.c **** 	Write_Data_int(0x00);
 1633              		.loc 1 365 2 view .LVU387
 1634 012e 0020     		movs	r0, #0
ARM GAS  /var/folders/_5/7dt5dlyd7598cb98063hl5tr0000gn/T//ccgSyEuv.s 			page 40


 1635 0130 FFF7FEFF 		bl	Write_Data_int
 1636              	.LVL249:
 366:Core/Src/er_tft040.c **** 
 367:Core/Src/er_tft040.c **** 	// #VCL ratio
 368:Core/Src/er_tft040.c **** 	Write_Command(0xB800);
 1637              		.loc 1 368 2 view .LVU388
 1638 0134 B820     		movs	r0, #184
 1639 0136 0002     		lsls	r0, r0, #8
 1640 0138 FFF7FEFF 		bl	Write_Command
 1641              	.LVL250:
 369:Core/Src/er_tft040.c **** 	Write_Data_int(0x24);
 1642              		.loc 1 369 2 view .LVU389
 1643 013c 2420     		movs	r0, #36
 1644 013e FFF7FEFF 		bl	Write_Data_int
 1645              	.LVL251:
 370:Core/Src/er_tft040.c **** 	Write_Command(0xB801);
 1646              		.loc 1 370 2 view .LVU390
 1647 0142 BD48     		ldr	r0, .L112+60
 1648 0144 FFF7FEFF 		bl	Write_Command
 1649              	.LVL252:
 371:Core/Src/er_tft040.c **** 	Write_Data_int(0x24);
 1650              		.loc 1 371 2 view .LVU391
 1651 0148 2420     		movs	r0, #36
 1652 014a FFF7FEFF 		bl	Write_Data_int
 1653              	.LVL253:
 372:Core/Src/er_tft040.c **** 	Write_Command(0xB802);
 1654              		.loc 1 372 2 view .LVU392
 1655 014e BB48     		ldr	r0, .L112+64
 1656 0150 FFF7FEFF 		bl	Write_Command
 1657              	.LVL254:
 373:Core/Src/er_tft040.c **** 	Write_Data_int(0x24);
 1658              		.loc 1 373 2 view .LVU393
 1659 0154 2420     		movs	r0, #36
 1660 0156 FFF7FEFF 		bl	Write_Data_int
 1661              	.LVL255:
 374:Core/Src/er_tft040.c **** 
 375:Core/Src/er_tft040.c **** 	// #VGH  15V
 376:Core/Src/er_tft040.c **** 	Write_Command(0xBF00);
 1662              		.loc 1 376 2 view .LVU394
 1663 015a BF20     		movs	r0, #191
 1664 015c 0002     		lsls	r0, r0, #8
 1665 015e FFF7FEFF 		bl	Write_Command
 1666              	.LVL256:
 377:Core/Src/er_tft040.c **** 	Write_Data_int(0x01);
 1667              		.loc 1 377 2 view .LVU395
 1668 0162 0120     		movs	r0, #1
 1669 0164 FFF7FEFF 		bl	Write_Data_int
 1670              	.LVL257:
 378:Core/Src/er_tft040.c **** 	Write_Command(0xB300);
 1671              		.loc 1 378 2 view .LVU396
 1672 0168 B320     		movs	r0, #179
 1673 016a 0002     		lsls	r0, r0, #8
 1674 016c FFF7FEFF 		bl	Write_Command
 1675              	.LVL258:
 379:Core/Src/er_tft040.c **** 	Write_Data_int(0x0F);
 1676              		.loc 1 379 2 view .LVU397
 1677 0170 0F20     		movs	r0, #15
ARM GAS  /var/folders/_5/7dt5dlyd7598cb98063hl5tr0000gn/T//ccgSyEuv.s 			page 41


 1678 0172 FFF7FEFF 		bl	Write_Data_int
 1679              	.LVL259:
 380:Core/Src/er_tft040.c **** 	Write_Command(0xB301);
 1680              		.loc 1 380 2 view .LVU398
 1681 0176 B248     		ldr	r0, .L112+68
 1682 0178 FFF7FEFF 		bl	Write_Command
 1683              	.LVL260:
 381:Core/Src/er_tft040.c **** 	Write_Data_int(0x0F);
 1684              		.loc 1 381 2 view .LVU399
 1685 017c 0F20     		movs	r0, #15
 1686 017e FFF7FEFF 		bl	Write_Data_int
 1687              	.LVL261:
 382:Core/Src/er_tft040.c **** 	Write_Command(0xB302);
 1688              		.loc 1 382 2 view .LVU400
 1689 0182 B048     		ldr	r0, .L112+72
 1690 0184 FFF7FEFF 		bl	Write_Command
 1691              	.LVL262:
 383:Core/Src/er_tft040.c **** 	Write_Data_int(0x0F);
 1692              		.loc 1 383 2 view .LVU401
 1693 0188 0F20     		movs	r0, #15
 1694 018a FFF7FEFF 		bl	Write_Data_int
 1695              	.LVL263:
 384:Core/Src/er_tft040.c **** 
 385:Core/Src/er_tft040.c **** 	// #VGH  ratio
 386:Core/Src/er_tft040.c **** 	Write_Command(0xB900);
 1696              		.loc 1 386 2 view .LVU402
 1697 018e B920     		movs	r0, #185
 1698 0190 0002     		lsls	r0, r0, #8
 1699 0192 FFF7FEFF 		bl	Write_Command
 1700              	.LVL264:
 387:Core/Src/er_tft040.c **** 	Write_Data_int(0x34);
 1701              		.loc 1 387 2 view .LVU403
 1702 0196 3420     		movs	r0, #52
 1703 0198 FFF7FEFF 		bl	Write_Data_int
 1704              	.LVL265:
 388:Core/Src/er_tft040.c **** 	Write_Command(0xB901);
 1705              		.loc 1 388 2 view .LVU404
 1706 019c AA48     		ldr	r0, .L112+76
 1707 019e FFF7FEFF 		bl	Write_Command
 1708              	.LVL266:
 389:Core/Src/er_tft040.c **** 	Write_Data_int(0x34);
 1709              		.loc 1 389 2 view .LVU405
 1710 01a2 3420     		movs	r0, #52
 1711 01a4 FFF7FEFF 		bl	Write_Data_int
 1712              	.LVL267:
 390:Core/Src/er_tft040.c **** 	Write_Command(0xB902);
 1713              		.loc 1 390 2 view .LVU406
 1714 01a8 A848     		ldr	r0, .L112+80
 1715 01aa FFF7FEFF 		bl	Write_Command
 1716              	.LVL268:
 391:Core/Src/er_tft040.c **** 	Write_Data_int(0x34);
 1717              		.loc 1 391 2 view .LVU407
 1718 01ae 3420     		movs	r0, #52
 1719 01b0 FFF7FEFF 		bl	Write_Data_int
 1720              	.LVL269:
 392:Core/Src/er_tft040.c **** 
 393:Core/Src/er_tft040.c **** 	// #VGL_REG  -10V
ARM GAS  /var/folders/_5/7dt5dlyd7598cb98063hl5tr0000gn/T//ccgSyEuv.s 			page 42


 394:Core/Src/er_tft040.c **** 	Write_Command(0xB500);
 1721              		.loc 1 394 2 view .LVU408
 1722 01b4 B524     		movs	r4, #181
 1723 01b6 2402     		lsls	r4, r4, #8
 1724 01b8 2000     		movs	r0, r4
 1725 01ba FFF7FEFF 		bl	Write_Command
 1726              	.LVL270:
 395:Core/Src/er_tft040.c **** 	Write_Data_int(0x08);
 1727              		.loc 1 395 2 view .LVU409
 1728 01be 0820     		movs	r0, #8
 1729 01c0 FFF7FEFF 		bl	Write_Data_int
 1730              	.LVL271:
 396:Core/Src/er_tft040.c **** 	Write_Command(0xB500);
 1731              		.loc 1 396 2 view .LVU410
 1732 01c4 2000     		movs	r0, r4
 1733 01c6 FFF7FEFF 		bl	Write_Command
 1734              	.LVL272:
 397:Core/Src/er_tft040.c **** 	Write_Data_int(0x08);
 1735              		.loc 1 397 2 view .LVU411
 1736 01ca 0820     		movs	r0, #8
 1737 01cc FFF7FEFF 		bl	Write_Data_int
 1738              	.LVL273:
 398:Core/Src/er_tft040.c **** 	Write_Command(0xB501);
 1739              		.loc 1 398 2 view .LVU412
 1740 01d0 9F48     		ldr	r0, .L112+84
 1741 01d2 FFF7FEFF 		bl	Write_Command
 1742              	.LVL274:
 399:Core/Src/er_tft040.c **** 	Write_Data_int(0x08);
 1743              		.loc 1 399 2 view .LVU413
 1744 01d6 0820     		movs	r0, #8
 1745 01d8 FFF7FEFF 		bl	Write_Data_int
 1746              	.LVL275:
 400:Core/Src/er_tft040.c **** 	Write_Command(0xC200);
 1747              		.loc 1 400 2 view .LVU414
 1748 01dc C220     		movs	r0, #194
 1749 01de 0002     		lsls	r0, r0, #8
 1750 01e0 FFF7FEFF 		bl	Write_Command
 1751              	.LVL276:
 401:Core/Src/er_tft040.c **** 	Write_Data_int(0x03);
 1752              		.loc 1 401 2 view .LVU415
 1753 01e4 0320     		movs	r0, #3
 1754 01e6 FFF7FEFF 		bl	Write_Data_int
 1755              	.LVL277:
 402:Core/Src/er_tft040.c **** 
 403:Core/Src/er_tft040.c **** 	// #VGLX  ratio
 404:Core/Src/er_tft040.c **** 	Write_Command(0xBA00);
 1756              		.loc 1 404 2 view .LVU416
 1757 01ea BA20     		movs	r0, #186
 1758 01ec 0002     		lsls	r0, r0, #8
 1759 01ee FFF7FEFF 		bl	Write_Command
 1760              	.LVL278:
 405:Core/Src/er_tft040.c **** 	Write_Data_int(0x24);
 1761              		.loc 1 405 2 view .LVU417
 1762 01f2 2420     		movs	r0, #36
 1763 01f4 FFF7FEFF 		bl	Write_Data_int
 1764              	.LVL279:
 406:Core/Src/er_tft040.c **** 	Write_Command(0xBA01);
ARM GAS  /var/folders/_5/7dt5dlyd7598cb98063hl5tr0000gn/T//ccgSyEuv.s 			page 43


 1765              		.loc 1 406 2 view .LVU418
 1766 01f8 9648     		ldr	r0, .L112+88
 1767 01fa FFF7FEFF 		bl	Write_Command
 1768              	.LVL280:
 407:Core/Src/er_tft040.c **** 	Write_Data_int(0x24);
 1769              		.loc 1 407 2 view .LVU419
 1770 01fe 2420     		movs	r0, #36
 1771 0200 FFF7FEFF 		bl	Write_Data_int
 1772              	.LVL281:
 408:Core/Src/er_tft040.c **** 	Write_Command(0xBA02);
 1773              		.loc 1 408 2 view .LVU420
 1774 0204 9448     		ldr	r0, .L112+92
 1775 0206 FFF7FEFF 		bl	Write_Command
 1776              	.LVL282:
 409:Core/Src/er_tft040.c **** 	Write_Data_int(0x24);
 1777              		.loc 1 409 2 view .LVU421
 1778 020a 2420     		movs	r0, #36
 1779 020c FFF7FEFF 		bl	Write_Data_int
 1780              	.LVL283:
 410:Core/Src/er_tft040.c **** 
 411:Core/Src/er_tft040.c **** 	// #VGMP/VGSP 4.5V/0V
 412:Core/Src/er_tft040.c **** 	Write_Command(0xBC00);
 1781              		.loc 1 412 2 view .LVU422
 1782 0210 BC20     		movs	r0, #188
 1783 0212 0002     		lsls	r0, r0, #8
 1784 0214 FFF7FEFF 		bl	Write_Command
 1785              	.LVL284:
 413:Core/Src/er_tft040.c **** 	Write_Data_int(0x00);
 1786              		.loc 1 413 2 view .LVU423
 1787 0218 0020     		movs	r0, #0
 1788 021a FFF7FEFF 		bl	Write_Data_int
 1789              	.LVL285:
 414:Core/Src/er_tft040.c **** 	Write_Command(0xBC01);
 1790              		.loc 1 414 2 view .LVU424
 1791 021e 8F48     		ldr	r0, .L112+96
 1792 0220 FFF7FEFF 		bl	Write_Command
 1793              	.LVL286:
 415:Core/Src/er_tft040.c **** 	Write_Data_int(0x78);
 1794              		.loc 1 415 2 view .LVU425
 1795 0224 7820     		movs	r0, #120
 1796 0226 FFF7FEFF 		bl	Write_Data_int
 1797              	.LVL287:
 416:Core/Src/er_tft040.c **** 	Write_Command(0xBC02);
 1798              		.loc 1 416 2 view .LVU426
 1799 022a 8D48     		ldr	r0, .L112+100
 1800 022c FFF7FEFF 		bl	Write_Command
 1801              	.LVL288:
 417:Core/Src/er_tft040.c **** 	Write_Data_int(0x00);
 1802              		.loc 1 417 2 view .LVU427
 1803 0230 0020     		movs	r0, #0
 1804 0232 FFF7FEFF 		bl	Write_Data_int
 1805              	.LVL289:
 418:Core/Src/er_tft040.c **** 
 419:Core/Src/er_tft040.c **** 	// #VGMN/VGSN -4.5V/0V
 420:Core/Src/er_tft040.c **** 	Write_Command(0xBD00);
 1806              		.loc 1 420 2 view .LVU428
 1807 0236 BD20     		movs	r0, #189
ARM GAS  /var/folders/_5/7dt5dlyd7598cb98063hl5tr0000gn/T//ccgSyEuv.s 			page 44


 1808 0238 0002     		lsls	r0, r0, #8
 1809 023a FFF7FEFF 		bl	Write_Command
 1810              	.LVL290:
 421:Core/Src/er_tft040.c **** 	Write_Data_int(0x00);
 1811              		.loc 1 421 2 view .LVU429
 1812 023e 0020     		movs	r0, #0
 1813 0240 FFF7FEFF 		bl	Write_Data_int
 1814              	.LVL291:
 422:Core/Src/er_tft040.c **** 	Write_Command(0xBD01);
 1815              		.loc 1 422 2 view .LVU430
 1816 0244 8748     		ldr	r0, .L112+104
 1817 0246 FFF7FEFF 		bl	Write_Command
 1818              	.LVL292:
 423:Core/Src/er_tft040.c **** 	Write_Data_int(0x78);
 1819              		.loc 1 423 2 view .LVU431
 1820 024a 7820     		movs	r0, #120
 1821 024c FFF7FEFF 		bl	Write_Data_int
 1822              	.LVL293:
 424:Core/Src/er_tft040.c **** 	Write_Command(0xBD02);
 1823              		.loc 1 424 2 view .LVU432
 1824 0250 8548     		ldr	r0, .L112+108
 1825 0252 FFF7FEFF 		bl	Write_Command
 1826              	.LVL294:
 425:Core/Src/er_tft040.c **** 	Write_Data_int(0x00);
 1827              		.loc 1 425 2 view .LVU433
 1828 0256 0020     		movs	r0, #0
 1829 0258 FFF7FEFF 		bl	Write_Data_int
 1830              	.LVL295:
 426:Core/Src/er_tft040.c **** 
 427:Core/Src/er_tft040.c **** 	// #VCOM  -1.325V
 428:Core/Src/er_tft040.c **** 	Write_Command(0xBE00);
 1831              		.loc 1 428 2 view .LVU434
 1832 025c BE20     		movs	r0, #190
 1833 025e 0002     		lsls	r0, r0, #8
 1834 0260 FFF7FEFF 		bl	Write_Command
 1835              	.LVL296:
 429:Core/Src/er_tft040.c **** 	Write_Data_int(0x00);
 1836              		.loc 1 429 2 view .LVU435
 1837 0264 0020     		movs	r0, #0
 1838 0266 FFF7FEFF 		bl	Write_Data_int
 1839              	.LVL297:
 430:Core/Src/er_tft040.c **** 	Write_Command(0xBE01);
 1840              		.loc 1 430 2 view .LVU436
 1841 026a 8048     		ldr	r0, .L112+112
 1842 026c FFF7FEFF 		bl	Write_Command
 1843              	.LVL298:
 431:Core/Src/er_tft040.c **** 	Write_Data_int(0x89); // 69
 1844              		.loc 1 431 2 view .LVU437
 1845 0270 8920     		movs	r0, #137
 1846 0272 FFF7FEFF 		bl	Write_Data_int
 1847              	.LVL299:
 432:Core/Src/er_tft040.c **** 
 433:Core/Src/er_tft040.c **** 	// Gamma Setting
 434:Core/Src/er_tft040.c **** 	Write_Command(0xD100);
 1848              		.loc 1 434 2 view .LVU438
 1849 0276 D120     		movs	r0, #209
 1850 0278 0002     		lsls	r0, r0, #8
ARM GAS  /var/folders/_5/7dt5dlyd7598cb98063hl5tr0000gn/T//ccgSyEuv.s 			page 45


 1851 027a FFF7FEFF 		bl	Write_Command
 1852              	.LVL300:
 435:Core/Src/er_tft040.c **** 	Write_Data_int(0x00);
 1853              		.loc 1 435 2 view .LVU439
 1854 027e 0020     		movs	r0, #0
 1855 0280 FFF7FEFF 		bl	Write_Data_int
 1856              	.LVL301:
 436:Core/Src/er_tft040.c **** 	Write_Command(0xD101);
 1857              		.loc 1 436 2 view .LVU440
 1858 0284 7A48     		ldr	r0, .L112+116
 1859 0286 FFF7FEFF 		bl	Write_Command
 1860              	.LVL302:
 437:Core/Src/er_tft040.c **** 	Write_Data_int(0x2D);
 1861              		.loc 1 437 2 view .LVU441
 1862 028a 2D20     		movs	r0, #45
 1863 028c FFF7FEFF 		bl	Write_Data_int
 1864              	.LVL303:
 438:Core/Src/er_tft040.c **** 	Write_Command(0xD102);
 1865              		.loc 1 438 2 view .LVU442
 1866 0290 7848     		ldr	r0, .L112+120
 1867 0292 FFF7FEFF 		bl	Write_Command
 1868              	.LVL304:
 439:Core/Src/er_tft040.c **** 	Write_Data_int(0x00);
 1869              		.loc 1 439 2 view .LVU443
 1870 0296 0020     		movs	r0, #0
 1871 0298 FFF7FEFF 		bl	Write_Data_int
 1872              	.LVL305:
 440:Core/Src/er_tft040.c **** 	Write_Command(0xD103);
 1873              		.loc 1 440 2 view .LVU444
 1874 029c 7648     		ldr	r0, .L112+124
 1875 029e FFF7FEFF 		bl	Write_Command
 1876              	.LVL306:
 441:Core/Src/er_tft040.c **** 	Write_Data_int(0x2E);
 1877              		.loc 1 441 2 view .LVU445
 1878 02a2 2E20     		movs	r0, #46
 1879 02a4 FFF7FEFF 		bl	Write_Data_int
 1880              	.LVL307:
 442:Core/Src/er_tft040.c **** 	Write_Command(0xD104);
 1881              		.loc 1 442 2 view .LVU446
 1882 02a8 7448     		ldr	r0, .L112+128
 1883 02aa FFF7FEFF 		bl	Write_Command
 1884              	.LVL308:
 443:Core/Src/er_tft040.c **** 	Write_Data_int(0x00);
 1885              		.loc 1 443 2 view .LVU447
 1886 02ae 0020     		movs	r0, #0
 1887 02b0 FFF7FEFF 		bl	Write_Data_int
 1888              	.LVL309:
 444:Core/Src/er_tft040.c **** 	Write_Command(0xD105);
 1889              		.loc 1 444 2 view .LVU448
 1890 02b4 7248     		ldr	r0, .L112+132
 1891 02b6 FFF7FEFF 		bl	Write_Command
 1892              	.LVL310:
 445:Core/Src/er_tft040.c **** 	Write_Data_int(0x32);
 1893              		.loc 1 445 2 view .LVU449
 1894 02ba 3220     		movs	r0, #50
 1895 02bc FFF7FEFF 		bl	Write_Data_int
 1896              	.LVL311:
ARM GAS  /var/folders/_5/7dt5dlyd7598cb98063hl5tr0000gn/T//ccgSyEuv.s 			page 46


 446:Core/Src/er_tft040.c **** 	Write_Command(0xD106);
 1897              		.loc 1 446 2 view .LVU450
 1898 02c0 7048     		ldr	r0, .L112+136
 1899 02c2 FFF7FEFF 		bl	Write_Command
 1900              	.LVL312:
 447:Core/Src/er_tft040.c **** 	Write_Data_int(0x00);
 1901              		.loc 1 447 2 view .LVU451
 1902 02c6 0020     		movs	r0, #0
 1903 02c8 FFF7FEFF 		bl	Write_Data_int
 1904              	.LVL313:
 448:Core/Src/er_tft040.c **** 	Write_Command(0xD107);
 1905              		.loc 1 448 2 view .LVU452
 1906 02cc 6E48     		ldr	r0, .L112+140
 1907 02ce FFF7FEFF 		bl	Write_Command
 1908              	.LVL314:
 449:Core/Src/er_tft040.c **** 	Write_Data_int(0x44);
 1909              		.loc 1 449 2 view .LVU453
 1910 02d2 4420     		movs	r0, #68
 1911 02d4 FFF7FEFF 		bl	Write_Data_int
 1912              	.LVL315:
 450:Core/Src/er_tft040.c **** 	Write_Command(0xD108);
 1913              		.loc 1 450 2 view .LVU454
 1914 02d8 6C48     		ldr	r0, .L112+144
 1915 02da FFF7FEFF 		bl	Write_Command
 1916              	.LVL316:
 451:Core/Src/er_tft040.c **** 	Write_Data_int(0x00);
 1917              		.loc 1 451 2 view .LVU455
 1918 02de 0020     		movs	r0, #0
 1919 02e0 FFF7FEFF 		bl	Write_Data_int
 1920              	.LVL317:
 452:Core/Src/er_tft040.c **** 	Write_Command(0xD109);
 1921              		.loc 1 452 2 view .LVU456
 1922 02e4 6A48     		ldr	r0, .L112+148
 1923 02e6 FFF7FEFF 		bl	Write_Command
 1924              	.LVL318:
 453:Core/Src/er_tft040.c **** 	Write_Data_int(0x53);
 1925              		.loc 1 453 2 view .LVU457
 1926 02ea 5320     		movs	r0, #83
 1927 02ec FFF7FEFF 		bl	Write_Data_int
 1928              	.LVL319:
 454:Core/Src/er_tft040.c **** 	Write_Command(0xD10A);
 1929              		.loc 1 454 2 view .LVU458
 1930 02f0 6848     		ldr	r0, .L112+152
 1931 02f2 FFF7FEFF 		bl	Write_Command
 1932              	.LVL320:
 455:Core/Src/er_tft040.c **** 	Write_Data_int(0x00);
 1933              		.loc 1 455 2 view .LVU459
 1934 02f6 0020     		movs	r0, #0
 1935 02f8 FFF7FEFF 		bl	Write_Data_int
 1936              	.LVL321:
 456:Core/Src/er_tft040.c **** 	Write_Command(0xD10B);
 1937              		.loc 1 456 2 view .LVU460
 1938 02fc 6648     		ldr	r0, .L112+156
 1939 02fe FFF7FEFF 		bl	Write_Command
 1940              	.LVL322:
 457:Core/Src/er_tft040.c **** 	Write_Data_int(0x88);
 1941              		.loc 1 457 2 view .LVU461
ARM GAS  /var/folders/_5/7dt5dlyd7598cb98063hl5tr0000gn/T//ccgSyEuv.s 			page 47


 1942 0302 8820     		movs	r0, #136
 1943 0304 FFF7FEFF 		bl	Write_Data_int
 1944              	.LVL323:
 458:Core/Src/er_tft040.c **** 	Write_Command(0xD10C);
 1945              		.loc 1 458 2 view .LVU462
 1946 0308 6448     		ldr	r0, .L112+160
 1947 030a FFF7FEFF 		bl	Write_Command
 1948              	.LVL324:
 459:Core/Src/er_tft040.c **** 	Write_Data_int(0x00);
 1949              		.loc 1 459 2 view .LVU463
 1950 030e 0020     		movs	r0, #0
 1951 0310 FFF7FEFF 		bl	Write_Data_int
 1952              	.LVL325:
 460:Core/Src/er_tft040.c **** 	Write_Command(0xD10D);
 1953              		.loc 1 460 2 view .LVU464
 1954 0314 6248     		ldr	r0, .L112+164
 1955 0316 FFF7FEFF 		bl	Write_Command
 1956              	.LVL326:
 461:Core/Src/er_tft040.c **** 	Write_Data_int(0xB6);
 1957              		.loc 1 461 2 view .LVU465
 1958 031a B620     		movs	r0, #182
 1959 031c FFF7FEFF 		bl	Write_Data_int
 1960              	.LVL327:
 462:Core/Src/er_tft040.c **** 	Write_Command(0xD10E);
 1961              		.loc 1 462 2 view .LVU466
 1962 0320 6048     		ldr	r0, .L112+168
 1963 0322 FFF7FEFF 		bl	Write_Command
 1964              	.LVL328:
 463:Core/Src/er_tft040.c **** 	Write_Data_int(0x00);
 1965              		.loc 1 463 2 view .LVU467
 1966 0326 0020     		movs	r0, #0
 1967 0328 FFF7FEFF 		bl	Write_Data_int
 1968              	.LVL329:
 464:Core/Src/er_tft040.c **** 	Write_Command(0xD10F);
 1969              		.loc 1 464 2 view .LVU468
 1970 032c 5E48     		ldr	r0, .L112+172
 1971 032e FFF7FEFF 		bl	Write_Command
 1972              	.LVL330:
 465:Core/Src/er_tft040.c **** 	Write_Data_int(0xF3); //
 1973              		.loc 1 465 2 view .LVU469
 1974 0332 F320     		movs	r0, #243
 1975 0334 FFF7FEFF 		bl	Write_Data_int
 1976              	.LVL331:
 466:Core/Src/er_tft040.c **** 	Write_Command(0xD110);
 1977              		.loc 1 466 2 view .LVU470
 1978 0338 5C48     		ldr	r0, .L112+176
 1979 033a FFF7FEFF 		bl	Write_Command
 1980              	.LVL332:
 467:Core/Src/er_tft040.c **** 	Write_Data_int(0x01);
 1981              		.loc 1 467 2 view .LVU471
 1982 033e 0120     		movs	r0, #1
 1983 0340 FFF7FEFF 		bl	Write_Data_int
 1984              	.LVL333:
 468:Core/Src/er_tft040.c **** 	Write_Command(0xD111);
 1985              		.loc 1 468 2 view .LVU472
 1986 0344 5A48     		ldr	r0, .L112+180
 1987 0346 FFF7FEFF 		bl	Write_Command
ARM GAS  /var/folders/_5/7dt5dlyd7598cb98063hl5tr0000gn/T//ccgSyEuv.s 			page 48


 1988              	.LVL334:
 469:Core/Src/er_tft040.c **** 	Write_Data_int(0x22);
 1989              		.loc 1 469 2 view .LVU473
 1990 034a 2220     		movs	r0, #34
 1991 034c FFF7FEFF 		bl	Write_Data_int
 1992              	.LVL335:
 470:Core/Src/er_tft040.c **** 	Write_Command(0xD112);
 1993              		.loc 1 470 2 view .LVU474
 1994 0350 5848     		ldr	r0, .L112+184
 1995 0352 FFF7FEFF 		bl	Write_Command
 1996              	.LVL336:
 471:Core/Src/er_tft040.c **** 	Write_Data_int(0x01);
 1997              		.loc 1 471 2 view .LVU475
 1998 0356 0120     		movs	r0, #1
 1999 0358 FFF7FEFF 		bl	Write_Data_int
 2000              	.LVL337:
 472:Core/Src/er_tft040.c **** 	Write_Command(0xD113);
 2001              		.loc 1 472 2 view .LVU476
 2002 035c 5648     		ldr	r0, .L112+188
 2003 035e FFF7FEFF 		bl	Write_Command
 2004              	.LVL338:
 473:Core/Src/er_tft040.c **** 	Write_Data_int(0x64);
 2005              		.loc 1 473 2 view .LVU477
 2006 0362 6420     		movs	r0, #100
 2007 0364 FFF7FEFF 		bl	Write_Data_int
 2008              	.LVL339:
 474:Core/Src/er_tft040.c **** 	Write_Command(0xD114);
 2009              		.loc 1 474 2 view .LVU478
 2010 0368 5448     		ldr	r0, .L112+192
 2011 036a FFF7FEFF 		bl	Write_Command
 2012              	.LVL340:
 475:Core/Src/er_tft040.c **** 	Write_Data_int(0x01);
 2013              		.loc 1 475 2 view .LVU479
 2014 036e 0120     		movs	r0, #1
 2015 0370 FFF7FEFF 		bl	Write_Data_int
 2016              	.LVL341:
 476:Core/Src/er_tft040.c **** 	Write_Command(0xD115);
 2017              		.loc 1 476 2 view .LVU480
 2018 0374 5248     		ldr	r0, .L112+196
 2019 0376 FFF7FEFF 		bl	Write_Command
 2020              	.LVL342:
 477:Core/Src/er_tft040.c **** 	Write_Data_int(0x92);
 2021              		.loc 1 477 2 view .LVU481
 2022 037a 9220     		movs	r0, #146
 2023 037c FFF7FEFF 		bl	Write_Data_int
 2024              	.LVL343:
 478:Core/Src/er_tft040.c **** 	Write_Command(0xD116);
 2025              		.loc 1 478 2 view .LVU482
 2026 0380 5048     		ldr	r0, .L112+200
 2027 0382 FFF7FEFF 		bl	Write_Command
 2028              	.LVL344:
 479:Core/Src/er_tft040.c **** 	Write_Data_int(0x01);
 2029              		.loc 1 479 2 view .LVU483
 2030 0386 0120     		movs	r0, #1
 2031 0388 FFF7FEFF 		bl	Write_Data_int
 2032              	.LVL345:
 480:Core/Src/er_tft040.c **** 	Write_Command(0xD117);
ARM GAS  /var/folders/_5/7dt5dlyd7598cb98063hl5tr0000gn/T//ccgSyEuv.s 			page 49


 2033              		.loc 1 480 2 view .LVU484
 2034 038c 4E48     		ldr	r0, .L112+204
 2035 038e FFF7FEFF 		bl	Write_Command
 2036              	.LVL346:
 481:Core/Src/er_tft040.c **** 	Write_Data_int(0xD4);
 2037              		.loc 1 481 2 view .LVU485
 2038 0392 D420     		movs	r0, #212
 2039 0394 FFF7FEFF 		bl	Write_Data_int
 2040              	.LVL347:
 482:Core/Src/er_tft040.c **** 	Write_Command(0xD118);
 2041              		.loc 1 482 2 view .LVU486
 2042 0398 4C48     		ldr	r0, .L112+208
 2043 039a FFF7FEFF 		bl	Write_Command
 2044              	.LVL348:
 483:Core/Src/er_tft040.c **** 	Write_Data_int(0x02);
 2045              		.loc 1 483 2 view .LVU487
 2046 039e 0220     		movs	r0, #2
 2047 03a0 FFF7FEFF 		bl	Write_Data_int
 2048              	.LVL349:
 484:Core/Src/er_tft040.c **** 	Write_Command(0xD119);
 2049              		.loc 1 484 2 view .LVU488
 2050 03a4 4A48     		ldr	r0, .L112+212
 2051 03a6 FFF7FEFF 		bl	Write_Command
 2052              	.LVL350:
 485:Core/Src/er_tft040.c **** 	Write_Data_int(0x07);
 2053              		.loc 1 485 2 view .LVU489
 2054 03aa 0720     		movs	r0, #7
 2055 03ac FFF7FEFF 		bl	Write_Data_int
 2056              	.LVL351:
 486:Core/Src/er_tft040.c **** 	Write_Command(0xD11A);
 2057              		.loc 1 486 2 view .LVU490
 2058 03b0 4848     		ldr	r0, .L112+216
 2059 03b2 FFF7FEFF 		bl	Write_Command
 2060              	.LVL352:
 487:Core/Src/er_tft040.c **** 	Write_Data_int(0x02);
 2061              		.loc 1 487 2 view .LVU491
 2062 03b6 0220     		movs	r0, #2
 2063 03b8 FFF7FEFF 		bl	Write_Data_int
 2064              	.LVL353:
 488:Core/Src/er_tft040.c **** 	Write_Command(0xD11B);
 2065              		.loc 1 488 2 view .LVU492
 2066 03bc 4648     		ldr	r0, .L112+220
 2067 03be FFF7FEFF 		bl	Write_Command
 2068              	.LVL354:
 489:Core/Src/er_tft040.c **** 	Write_Data_int(0x08);
 2069              		.loc 1 489 2 view .LVU493
 2070 03c2 0820     		movs	r0, #8
 2071 03c4 FFF7FEFF 		bl	Write_Data_int
 2072              	.LVL355:
 490:Core/Src/er_tft040.c **** 	Write_Command(0xD11C);
 2073              		.loc 1 490 2 view .LVU494
 2074 03c8 4448     		ldr	r0, .L112+224
 2075 03ca FFF7FEFF 		bl	Write_Command
 2076              	.LVL356:
 491:Core/Src/er_tft040.c **** 	Write_Data_int(0x02);
 2077              		.loc 1 491 2 view .LVU495
 2078 03ce 0220     		movs	r0, #2
ARM GAS  /var/folders/_5/7dt5dlyd7598cb98063hl5tr0000gn/T//ccgSyEuv.s 			page 50


 2079 03d0 FFF7FEFF 		bl	Write_Data_int
 2080              	.LVL357:
 492:Core/Src/er_tft040.c **** 	Write_Command(0xD11D);
 2081              		.loc 1 492 2 view .LVU496
 2082 03d4 4248     		ldr	r0, .L112+228
 2083 03d6 FFF7FEFF 		bl	Write_Command
 2084              	.LVL358:
 493:Core/Src/er_tft040.c **** 	Write_Data_int(0x34);
 2085              		.loc 1 493 2 view .LVU497
 2086 03da 3420     		movs	r0, #52
 2087 03dc FFF7FEFF 		bl	Write_Data_int
 2088              	.LVL359:
 494:Core/Src/er_tft040.c **** 	Write_Command(0xD11E);
 2089              		.loc 1 494 2 view .LVU498
 2090 03e0 4048     		ldr	r0, .L112+232
 2091 03e2 FFF7FEFF 		bl	Write_Command
 2092              	.LVL360:
 495:Core/Src/er_tft040.c **** 	Write_Data_int(0x02);
 2093              		.loc 1 495 2 view .LVU499
 2094 03e6 0220     		movs	r0, #2
 2095 03e8 FFF7FEFF 		bl	Write_Data_int
 2096              	.LVL361:
 496:Core/Src/er_tft040.c **** 	Write_Command(0xD11F);
 2097              		.loc 1 496 2 view .LVU500
 2098 03ec 3E48     		ldr	r0, .L112+236
 2099 03ee FFF7FEFF 		bl	Write_Command
 2100              	.LVL362:
 497:Core/Src/er_tft040.c **** 	Write_Data_int(0x5F); //
 2101              		.loc 1 497 2 view .LVU501
 2102 03f2 5F20     		movs	r0, #95
 2103 03f4 FFF7FEFF 		bl	Write_Data_int
 2104              	.LVL363:
 2105 03f8 78E0     		b	.L113
 2106              	.L114:
 2107 03fa C046     		.align	2
 2108              	.L112:
 2109 03fc 00080048 		.word	1207961600
 2110 0400 01F00000 		.word	61441
 2111 0404 02F00000 		.word	61442
 2112 0408 03F00000 		.word	61443
 2113 040c 04F00000 		.word	61444
 2114 0410 01B00000 		.word	45057
 2115 0414 02B00000 		.word	45058
 2116 0418 01B60000 		.word	46593
 2117 041c 02B60000 		.word	46594
 2118 0420 01B10000 		.word	45313
 2119 0424 02B10000 		.word	45314
 2120 0428 01B70000 		.word	46849
 2121 042c 02B70000 		.word	46850
 2122 0430 01B20000 		.word	45569
 2123 0434 02B20000 		.word	45570
 2124 0438 01B80000 		.word	47105
 2125 043c 02B80000 		.word	47106
 2126 0440 01B30000 		.word	45825
 2127 0444 02B30000 		.word	45826
 2128 0448 01B90000 		.word	47361
 2129 044c 02B90000 		.word	47362
ARM GAS  /var/folders/_5/7dt5dlyd7598cb98063hl5tr0000gn/T//ccgSyEuv.s 			page 51


 2130 0450 01B50000 		.word	46337
 2131 0454 01BA0000 		.word	47617
 2132 0458 02BA0000 		.word	47618
 2133 045c 01BC0000 		.word	48129
 2134 0460 02BC0000 		.word	48130
 2135 0464 01BD0000 		.word	48385
 2136 0468 02BD0000 		.word	48386
 2137 046c 01BE0000 		.word	48641
 2138 0470 01D10000 		.word	53505
 2139 0474 02D10000 		.word	53506
 2140 0478 03D10000 		.word	53507
 2141 047c 04D10000 		.word	53508
 2142 0480 05D10000 		.word	53509
 2143 0484 06D10000 		.word	53510
 2144 0488 07D10000 		.word	53511
 2145 048c 08D10000 		.word	53512
 2146 0490 09D10000 		.word	53513
 2147 0494 0AD10000 		.word	53514
 2148 0498 0BD10000 		.word	53515
 2149 049c 0CD10000 		.word	53516
 2150 04a0 0DD10000 		.word	53517
 2151 04a4 0ED10000 		.word	53518
 2152 04a8 0FD10000 		.word	53519
 2153 04ac 10D10000 		.word	53520
 2154 04b0 11D10000 		.word	53521
 2155 04b4 12D10000 		.word	53522
 2156 04b8 13D10000 		.word	53523
 2157 04bc 14D10000 		.word	53524
 2158 04c0 15D10000 		.word	53525
 2159 04c4 16D10000 		.word	53526
 2160 04c8 17D10000 		.word	53527
 2161 04cc 18D10000 		.word	53528
 2162 04d0 19D10000 		.word	53529
 2163 04d4 1AD10000 		.word	53530
 2164 04d8 1BD10000 		.word	53531
 2165 04dc 1CD10000 		.word	53532
 2166 04e0 1DD10000 		.word	53533
 2167 04e4 1ED10000 		.word	53534
 2168 04e8 1FD10000 		.word	53535
 2169              	.L113:
 498:Core/Src/er_tft040.c **** 	Write_Command(0xD120);
 2170              		.loc 1 498 2 view .LVU502
 2171 04ec FD48     		ldr	r0, .L115
 2172 04ee FFF7FEFF 		bl	Write_Command
 2173              	.LVL364:
 499:Core/Src/er_tft040.c **** 	Write_Data_int(0x02);
 2174              		.loc 1 499 2 view .LVU503
 2175 04f2 0220     		movs	r0, #2
 2176 04f4 FFF7FEFF 		bl	Write_Data_int
 2177              	.LVL365:
 500:Core/Src/er_tft040.c **** 	Write_Command(0xD121);
 2178              		.loc 1 500 2 view .LVU504
 2179 04f8 FB48     		ldr	r0, .L115+4
 2180 04fa FFF7FEFF 		bl	Write_Command
 2181              	.LVL366:
 501:Core/Src/er_tft040.c **** 	Write_Data_int(0x78);
 2182              		.loc 1 501 2 view .LVU505
ARM GAS  /var/folders/_5/7dt5dlyd7598cb98063hl5tr0000gn/T//ccgSyEuv.s 			page 52


 2183 04fe 7820     		movs	r0, #120
 2184 0500 FFF7FEFF 		bl	Write_Data_int
 2185              	.LVL367:
 502:Core/Src/er_tft040.c **** 	Write_Command(0xD122);
 2186              		.loc 1 502 2 view .LVU506
 2187 0504 F948     		ldr	r0, .L115+8
 2188 0506 FFF7FEFF 		bl	Write_Command
 2189              	.LVL368:
 503:Core/Src/er_tft040.c **** 	Write_Data_int(0x02);
 2190              		.loc 1 503 2 view .LVU507
 2191 050a 0220     		movs	r0, #2
 2192 050c FFF7FEFF 		bl	Write_Data_int
 2193              	.LVL369:
 504:Core/Src/er_tft040.c **** 	Write_Command(0xD123);
 2194              		.loc 1 504 2 view .LVU508
 2195 0510 F748     		ldr	r0, .L115+12
 2196 0512 FFF7FEFF 		bl	Write_Command
 2197              	.LVL370:
 505:Core/Src/er_tft040.c **** 	Write_Data_int(0x94);
 2198              		.loc 1 505 2 view .LVU509
 2199 0516 9420     		movs	r0, #148
 2200 0518 FFF7FEFF 		bl	Write_Data_int
 2201              	.LVL371:
 506:Core/Src/er_tft040.c **** 	Write_Command(0xD124);
 2202              		.loc 1 506 2 view .LVU510
 2203 051c F548     		ldr	r0, .L115+16
 2204 051e FFF7FEFF 		bl	Write_Command
 2205              	.LVL372:
 507:Core/Src/er_tft040.c **** 	Write_Data_int(0x02);
 2206              		.loc 1 507 2 view .LVU511
 2207 0522 0220     		movs	r0, #2
 2208 0524 FFF7FEFF 		bl	Write_Data_int
 2209              	.LVL373:
 508:Core/Src/er_tft040.c **** 	Write_Command(0xD125);
 2210              		.loc 1 508 2 view .LVU512
 2211 0528 F348     		ldr	r0, .L115+20
 2212 052a FFF7FEFF 		bl	Write_Command
 2213              	.LVL374:
 509:Core/Src/er_tft040.c **** 	Write_Data_int(0xA6);
 2214              		.loc 1 509 2 view .LVU513
 2215 052e A620     		movs	r0, #166
 2216 0530 FFF7FEFF 		bl	Write_Data_int
 2217              	.LVL375:
 510:Core/Src/er_tft040.c **** 	Write_Command(0xD126);
 2218              		.loc 1 510 2 view .LVU514
 2219 0534 F148     		ldr	r0, .L115+24
 2220 0536 FFF7FEFF 		bl	Write_Command
 2221              	.LVL376:
 511:Core/Src/er_tft040.c **** 	Write_Data_int(0x02);
 2222              		.loc 1 511 2 view .LVU515
 2223 053a 0220     		movs	r0, #2
 2224 053c FFF7FEFF 		bl	Write_Data_int
 2225              	.LVL377:
 512:Core/Src/er_tft040.c **** 	Write_Command(0xD127);
 2226              		.loc 1 512 2 view .LVU516
 2227 0540 EF48     		ldr	r0, .L115+28
 2228 0542 FFF7FEFF 		bl	Write_Command
ARM GAS  /var/folders/_5/7dt5dlyd7598cb98063hl5tr0000gn/T//ccgSyEuv.s 			page 53


 2229              	.LVL378:
 513:Core/Src/er_tft040.c **** 	Write_Data_int(0xBB);
 2230              		.loc 1 513 2 view .LVU517
 2231 0546 BB20     		movs	r0, #187
 2232 0548 FFF7FEFF 		bl	Write_Data_int
 2233              	.LVL379:
 514:Core/Src/er_tft040.c **** 	Write_Command(0xD128);
 2234              		.loc 1 514 2 view .LVU518
 2235 054c ED48     		ldr	r0, .L115+32
 2236 054e FFF7FEFF 		bl	Write_Command
 2237              	.LVL380:
 515:Core/Src/er_tft040.c **** 	Write_Data_int(0x02);
 2238              		.loc 1 515 2 view .LVU519
 2239 0552 0220     		movs	r0, #2
 2240 0554 FFF7FEFF 		bl	Write_Data_int
 2241              	.LVL381:
 516:Core/Src/er_tft040.c **** 	Write_Command(0xD129);
 2242              		.loc 1 516 2 view .LVU520
 2243 0558 EB48     		ldr	r0, .L115+36
 2244 055a FFF7FEFF 		bl	Write_Command
 2245              	.LVL382:
 517:Core/Src/er_tft040.c **** 	Write_Data_int(0xCA);
 2246              		.loc 1 517 2 view .LVU521
 2247 055e CA20     		movs	r0, #202
 2248 0560 FFF7FEFF 		bl	Write_Data_int
 2249              	.LVL383:
 518:Core/Src/er_tft040.c **** 	Write_Command(0xD12A);
 2250              		.loc 1 518 2 view .LVU522
 2251 0564 E948     		ldr	r0, .L115+40
 2252 0566 FFF7FEFF 		bl	Write_Command
 2253              	.LVL384:
 519:Core/Src/er_tft040.c **** 	Write_Data_int(0x02);
 2254              		.loc 1 519 2 view .LVU523
 2255 056a 0220     		movs	r0, #2
 2256 056c FFF7FEFF 		bl	Write_Data_int
 2257              	.LVL385:
 520:Core/Src/er_tft040.c **** 	Write_Command(0xD12B);
 2258              		.loc 1 520 2 view .LVU524
 2259 0570 E748     		ldr	r0, .L115+44
 2260 0572 FFF7FEFF 		bl	Write_Command
 2261              	.LVL386:
 521:Core/Src/er_tft040.c **** 	Write_Data_int(0xDB);
 2262              		.loc 1 521 2 view .LVU525
 2263 0576 DB20     		movs	r0, #219
 2264 0578 FFF7FEFF 		bl	Write_Data_int
 2265              	.LVL387:
 522:Core/Src/er_tft040.c **** 	Write_Command(0xD12C);
 2266              		.loc 1 522 2 view .LVU526
 2267 057c E548     		ldr	r0, .L115+48
 2268 057e FFF7FEFF 		bl	Write_Command
 2269              	.LVL388:
 523:Core/Src/er_tft040.c **** 	Write_Data_int(0x02);
 2270              		.loc 1 523 2 view .LVU527
 2271 0582 0220     		movs	r0, #2
 2272 0584 FFF7FEFF 		bl	Write_Data_int
 2273              	.LVL389:
 524:Core/Src/er_tft040.c **** 	Write_Command(0xD12D);
ARM GAS  /var/folders/_5/7dt5dlyd7598cb98063hl5tr0000gn/T//ccgSyEuv.s 			page 54


 2274              		.loc 1 524 2 view .LVU528
 2275 0588 E348     		ldr	r0, .L115+52
 2276 058a FFF7FEFF 		bl	Write_Command
 2277              	.LVL390:
 525:Core/Src/er_tft040.c **** 	Write_Data_int(0xE8);
 2278              		.loc 1 525 2 view .LVU529
 2279 058e E820     		movs	r0, #232
 2280 0590 FFF7FEFF 		bl	Write_Data_int
 2281              	.LVL391:
 526:Core/Src/er_tft040.c **** 	Write_Command(0xD12E);
 2282              		.loc 1 526 2 view .LVU530
 2283 0594 E148     		ldr	r0, .L115+56
 2284 0596 FFF7FEFF 		bl	Write_Command
 2285              	.LVL392:
 527:Core/Src/er_tft040.c **** 	Write_Data_int(0x02);
 2286              		.loc 1 527 2 view .LVU531
 2287 059a 0220     		movs	r0, #2
 2288 059c FFF7FEFF 		bl	Write_Data_int
 2289              	.LVL393:
 528:Core/Src/er_tft040.c **** 	Write_Command(0xD12F);
 2290              		.loc 1 528 2 view .LVU532
 2291 05a0 DF48     		ldr	r0, .L115+60
 2292 05a2 FFF7FEFF 		bl	Write_Command
 2293              	.LVL394:
 529:Core/Src/er_tft040.c **** 	Write_Data_int(0xF9); //
 2294              		.loc 1 529 2 view .LVU533
 2295 05a6 F920     		movs	r0, #249
 2296 05a8 FFF7FEFF 		bl	Write_Data_int
 2297              	.LVL395:
 530:Core/Src/er_tft040.c **** 	Write_Command(0xD130);
 2298              		.loc 1 530 2 view .LVU534
 2299 05ac DD48     		ldr	r0, .L115+64
 2300 05ae FFF7FEFF 		bl	Write_Command
 2301              	.LVL396:
 531:Core/Src/er_tft040.c **** 	Write_Data_int(0x03);
 2302              		.loc 1 531 2 view .LVU535
 2303 05b2 0320     		movs	r0, #3
 2304 05b4 FFF7FEFF 		bl	Write_Data_int
 2305              	.LVL397:
 532:Core/Src/er_tft040.c **** 	Write_Command(0xD131);
 2306              		.loc 1 532 2 view .LVU536
 2307 05b8 DB48     		ldr	r0, .L115+68
 2308 05ba FFF7FEFF 		bl	Write_Command
 2309              	.LVL398:
 533:Core/Src/er_tft040.c **** 	Write_Data_int(0x1F);
 2310              		.loc 1 533 2 view .LVU537
 2311 05be 1F20     		movs	r0, #31
 2312 05c0 FFF7FEFF 		bl	Write_Data_int
 2313              	.LVL399:
 534:Core/Src/er_tft040.c **** 	Write_Command(0xD132);
 2314              		.loc 1 534 2 view .LVU538
 2315 05c4 D948     		ldr	r0, .L115+72
 2316 05c6 FFF7FEFF 		bl	Write_Command
 2317              	.LVL400:
 535:Core/Src/er_tft040.c **** 	Write_Data_int(0x03);
 2318              		.loc 1 535 2 view .LVU539
 2319 05ca 0320     		movs	r0, #3
ARM GAS  /var/folders/_5/7dt5dlyd7598cb98063hl5tr0000gn/T//ccgSyEuv.s 			page 55


 2320 05cc FFF7FEFF 		bl	Write_Data_int
 2321              	.LVL401:
 536:Core/Src/er_tft040.c **** 	Write_Command(0xD133);
 2322              		.loc 1 536 2 view .LVU540
 2323 05d0 D748     		ldr	r0, .L115+76
 2324 05d2 FFF7FEFF 		bl	Write_Command
 2325              	.LVL402:
 537:Core/Src/er_tft040.c **** 	Write_Data_int(0x7F);
 2326              		.loc 1 537 2 view .LVU541
 2327 05d6 7F20     		movs	r0, #127
 2328 05d8 FFF7FEFF 		bl	Write_Data_int
 2329              	.LVL403:
 538:Core/Src/er_tft040.c **** 
 539:Core/Src/er_tft040.c **** 	Write_Command(0xD200);
 2330              		.loc 1 539 2 view .LVU542
 2331 05dc D220     		movs	r0, #210
 2332 05de 0002     		lsls	r0, r0, #8
 2333 05e0 FFF7FEFF 		bl	Write_Command
 2334              	.LVL404:
 540:Core/Src/er_tft040.c **** 	Write_Data_int(0x00);
 2335              		.loc 1 540 2 view .LVU543
 2336 05e4 0020     		movs	r0, #0
 2337 05e6 FFF7FEFF 		bl	Write_Data_int
 2338              	.LVL405:
 541:Core/Src/er_tft040.c **** 	Write_Command(0xD201);
 2339              		.loc 1 541 2 view .LVU544
 2340 05ea D248     		ldr	r0, .L115+80
 2341 05ec FFF7FEFF 		bl	Write_Command
 2342              	.LVL406:
 542:Core/Src/er_tft040.c **** 	Write_Data_int(0x2D);
 2343              		.loc 1 542 2 view .LVU545
 2344 05f0 2D20     		movs	r0, #45
 2345 05f2 FFF7FEFF 		bl	Write_Data_int
 2346              	.LVL407:
 543:Core/Src/er_tft040.c **** 	Write_Command(0xD202);
 2347              		.loc 1 543 2 view .LVU546
 2348 05f6 D048     		ldr	r0, .L115+84
 2349 05f8 FFF7FEFF 		bl	Write_Command
 2350              	.LVL408:
 544:Core/Src/er_tft040.c **** 	Write_Data_int(0x00);
 2351              		.loc 1 544 2 view .LVU547
 2352 05fc 0020     		movs	r0, #0
 2353 05fe FFF7FEFF 		bl	Write_Data_int
 2354              	.LVL409:
 545:Core/Src/er_tft040.c **** 	Write_Command(0xD203);
 2355              		.loc 1 545 2 view .LVU548
 2356 0602 CE48     		ldr	r0, .L115+88
 2357 0604 FFF7FEFF 		bl	Write_Command
 2358              	.LVL410:
 546:Core/Src/er_tft040.c **** 	Write_Data_int(0x2E);
 2359              		.loc 1 546 2 view .LVU549
 2360 0608 2E20     		movs	r0, #46
 2361 060a FFF7FEFF 		bl	Write_Data_int
 2362              	.LVL411:
 547:Core/Src/er_tft040.c **** 	Write_Command(0xD204);
 2363              		.loc 1 547 2 view .LVU550
 2364 060e CC48     		ldr	r0, .L115+92
ARM GAS  /var/folders/_5/7dt5dlyd7598cb98063hl5tr0000gn/T//ccgSyEuv.s 			page 56


 2365 0610 FFF7FEFF 		bl	Write_Command
 2366              	.LVL412:
 548:Core/Src/er_tft040.c **** 	Write_Data_int(0x00);
 2367              		.loc 1 548 2 view .LVU551
 2368 0614 0020     		movs	r0, #0
 2369 0616 FFF7FEFF 		bl	Write_Data_int
 2370              	.LVL413:
 549:Core/Src/er_tft040.c **** 	Write_Command(0xD205);
 2371              		.loc 1 549 2 view .LVU552
 2372 061a CA48     		ldr	r0, .L115+96
 2373 061c FFF7FEFF 		bl	Write_Command
 2374              	.LVL414:
 550:Core/Src/er_tft040.c **** 	Write_Data_int(0x32);
 2375              		.loc 1 550 2 view .LVU553
 2376 0620 3220     		movs	r0, #50
 2377 0622 FFF7FEFF 		bl	Write_Data_int
 2378              	.LVL415:
 551:Core/Src/er_tft040.c **** 	Write_Command(0xD206);
 2379              		.loc 1 551 2 view .LVU554
 2380 0626 C848     		ldr	r0, .L115+100
 2381 0628 FFF7FEFF 		bl	Write_Command
 2382              	.LVL416:
 552:Core/Src/er_tft040.c **** 	Write_Data_int(0x00);
 2383              		.loc 1 552 2 view .LVU555
 2384 062c 0020     		movs	r0, #0
 2385 062e FFF7FEFF 		bl	Write_Data_int
 2386              	.LVL417:
 553:Core/Src/er_tft040.c **** 	Write_Command(0xD207);
 2387              		.loc 1 553 2 view .LVU556
 2388 0632 C648     		ldr	r0, .L115+104
 2389 0634 FFF7FEFF 		bl	Write_Command
 2390              	.LVL418:
 554:Core/Src/er_tft040.c **** 	Write_Data_int(0x44);
 2391              		.loc 1 554 2 view .LVU557
 2392 0638 4420     		movs	r0, #68
 2393 063a FFF7FEFF 		bl	Write_Data_int
 2394              	.LVL419:
 555:Core/Src/er_tft040.c **** 	Write_Command(0xD208);
 2395              		.loc 1 555 2 view .LVU558
 2396 063e C448     		ldr	r0, .L115+108
 2397 0640 FFF7FEFF 		bl	Write_Command
 2398              	.LVL420:
 556:Core/Src/er_tft040.c **** 	Write_Data_int(0x00);
 2399              		.loc 1 556 2 view .LVU559
 2400 0644 0020     		movs	r0, #0
 2401 0646 FFF7FEFF 		bl	Write_Data_int
 2402              	.LVL421:
 557:Core/Src/er_tft040.c **** 	Write_Command(0xD209);
 2403              		.loc 1 557 2 view .LVU560
 2404 064a C248     		ldr	r0, .L115+112
 2405 064c FFF7FEFF 		bl	Write_Command
 2406              	.LVL422:
 558:Core/Src/er_tft040.c **** 	Write_Data_int(0x53);
 2407              		.loc 1 558 2 view .LVU561
 2408 0650 5320     		movs	r0, #83
 2409 0652 FFF7FEFF 		bl	Write_Data_int
 2410              	.LVL423:
ARM GAS  /var/folders/_5/7dt5dlyd7598cb98063hl5tr0000gn/T//ccgSyEuv.s 			page 57


 559:Core/Src/er_tft040.c **** 	Write_Command(0xD20A);
 2411              		.loc 1 559 2 view .LVU562
 2412 0656 C048     		ldr	r0, .L115+116
 2413 0658 FFF7FEFF 		bl	Write_Command
 2414              	.LVL424:
 560:Core/Src/er_tft040.c **** 	Write_Data_int(0x00);
 2415              		.loc 1 560 2 view .LVU563
 2416 065c 0020     		movs	r0, #0
 2417 065e FFF7FEFF 		bl	Write_Data_int
 2418              	.LVL425:
 561:Core/Src/er_tft040.c **** 	Write_Command(0xD20B);
 2419              		.loc 1 561 2 view .LVU564
 2420 0662 BE48     		ldr	r0, .L115+120
 2421 0664 FFF7FEFF 		bl	Write_Command
 2422              	.LVL426:
 562:Core/Src/er_tft040.c **** 	Write_Data_int(0x88);
 2423              		.loc 1 562 2 view .LVU565
 2424 0668 8820     		movs	r0, #136
 2425 066a FFF7FEFF 		bl	Write_Data_int
 2426              	.LVL427:
 563:Core/Src/er_tft040.c **** 	Write_Command(0xD20C);
 2427              		.loc 1 563 2 view .LVU566
 2428 066e BC48     		ldr	r0, .L115+124
 2429 0670 FFF7FEFF 		bl	Write_Command
 2430              	.LVL428:
 564:Core/Src/er_tft040.c **** 	Write_Data_int(0x00);
 2431              		.loc 1 564 2 view .LVU567
 2432 0674 0020     		movs	r0, #0
 2433 0676 FFF7FEFF 		bl	Write_Data_int
 2434              	.LVL429:
 565:Core/Src/er_tft040.c **** 	Write_Command(0xD20D);
 2435              		.loc 1 565 2 view .LVU568
 2436 067a BA48     		ldr	r0, .L115+128
 2437 067c FFF7FEFF 		bl	Write_Command
 2438              	.LVL430:
 566:Core/Src/er_tft040.c **** 	Write_Data_int(0xB6);
 2439              		.loc 1 566 2 view .LVU569
 2440 0680 B620     		movs	r0, #182
 2441 0682 FFF7FEFF 		bl	Write_Data_int
 2442              	.LVL431:
 567:Core/Src/er_tft040.c **** 	Write_Command(0xD20E);
 2443              		.loc 1 567 2 view .LVU570
 2444 0686 B848     		ldr	r0, .L115+132
 2445 0688 FFF7FEFF 		bl	Write_Command
 2446              	.LVL432:
 568:Core/Src/er_tft040.c **** 	Write_Data_int(0x00);
 2447              		.loc 1 568 2 view .LVU571
 2448 068c 0020     		movs	r0, #0
 2449 068e FFF7FEFF 		bl	Write_Data_int
 2450              	.LVL433:
 569:Core/Src/er_tft040.c **** 	Write_Command(0xD20F);
 2451              		.loc 1 569 2 view .LVU572
 2452 0692 B648     		ldr	r0, .L115+136
 2453 0694 FFF7FEFF 		bl	Write_Command
 2454              	.LVL434:
 570:Core/Src/er_tft040.c **** 	Write_Data_int(0xF3); //
 2455              		.loc 1 570 2 view .LVU573
ARM GAS  /var/folders/_5/7dt5dlyd7598cb98063hl5tr0000gn/T//ccgSyEuv.s 			page 58


 2456 0698 F320     		movs	r0, #243
 2457 069a FFF7FEFF 		bl	Write_Data_int
 2458              	.LVL435:
 571:Core/Src/er_tft040.c **** 	Write_Command(0xD210);
 2459              		.loc 1 571 2 view .LVU574
 2460 069e B448     		ldr	r0, .L115+140
 2461 06a0 FFF7FEFF 		bl	Write_Command
 2462              	.LVL436:
 572:Core/Src/er_tft040.c **** 	Write_Data_int(0x01);
 2463              		.loc 1 572 2 view .LVU575
 2464 06a4 0120     		movs	r0, #1
 2465 06a6 FFF7FEFF 		bl	Write_Data_int
 2466              	.LVL437:
 573:Core/Src/er_tft040.c **** 	Write_Command(0xD211);
 2467              		.loc 1 573 2 view .LVU576
 2468 06aa B248     		ldr	r0, .L115+144
 2469 06ac FFF7FEFF 		bl	Write_Command
 2470              	.LVL438:
 574:Core/Src/er_tft040.c **** 	Write_Data_int(0x22);
 2471              		.loc 1 574 2 view .LVU577
 2472 06b0 2220     		movs	r0, #34
 2473 06b2 FFF7FEFF 		bl	Write_Data_int
 2474              	.LVL439:
 575:Core/Src/er_tft040.c **** 	Write_Command(0xD212);
 2475              		.loc 1 575 2 view .LVU578
 2476 06b6 B048     		ldr	r0, .L115+148
 2477 06b8 FFF7FEFF 		bl	Write_Command
 2478              	.LVL440:
 576:Core/Src/er_tft040.c **** 	Write_Data_int(0x01);
 2479              		.loc 1 576 2 view .LVU579
 2480 06bc 0120     		movs	r0, #1
 2481 06be FFF7FEFF 		bl	Write_Data_int
 2482              	.LVL441:
 577:Core/Src/er_tft040.c **** 	Write_Command(0xD213);
 2483              		.loc 1 577 2 view .LVU580
 2484 06c2 AE48     		ldr	r0, .L115+152
 2485 06c4 FFF7FEFF 		bl	Write_Command
 2486              	.LVL442:
 578:Core/Src/er_tft040.c **** 	Write_Data_int(0x64);
 2487              		.loc 1 578 2 view .LVU581
 2488 06c8 6420     		movs	r0, #100
 2489 06ca FFF7FEFF 		bl	Write_Data_int
 2490              	.LVL443:
 579:Core/Src/er_tft040.c **** 	Write_Command(0xD214);
 2491              		.loc 1 579 2 view .LVU582
 2492 06ce AC48     		ldr	r0, .L115+156
 2493 06d0 FFF7FEFF 		bl	Write_Command
 2494              	.LVL444:
 580:Core/Src/er_tft040.c **** 	Write_Data_int(0x01);
 2495              		.loc 1 580 2 view .LVU583
 2496 06d4 0120     		movs	r0, #1
 2497 06d6 FFF7FEFF 		bl	Write_Data_int
 2498              	.LVL445:
 581:Core/Src/er_tft040.c **** 	Write_Command(0xD215);
 2499              		.loc 1 581 2 view .LVU584
 2500 06da AA48     		ldr	r0, .L115+160
 2501 06dc FFF7FEFF 		bl	Write_Command
ARM GAS  /var/folders/_5/7dt5dlyd7598cb98063hl5tr0000gn/T//ccgSyEuv.s 			page 59


 2502              	.LVL446:
 582:Core/Src/er_tft040.c **** 	Write_Data_int(0x92);
 2503              		.loc 1 582 2 view .LVU585
 2504 06e0 9220     		movs	r0, #146
 2505 06e2 FFF7FEFF 		bl	Write_Data_int
 2506              	.LVL447:
 583:Core/Src/er_tft040.c **** 	Write_Command(0xD216);
 2507              		.loc 1 583 2 view .LVU586
 2508 06e6 A848     		ldr	r0, .L115+164
 2509 06e8 FFF7FEFF 		bl	Write_Command
 2510              	.LVL448:
 584:Core/Src/er_tft040.c **** 	Write_Data_int(0x01);
 2511              		.loc 1 584 2 view .LVU587
 2512 06ec 0120     		movs	r0, #1
 2513 06ee FFF7FEFF 		bl	Write_Data_int
 2514              	.LVL449:
 585:Core/Src/er_tft040.c **** 	Write_Command(0xD217);
 2515              		.loc 1 585 2 view .LVU588
 2516 06f2 A648     		ldr	r0, .L115+168
 2517 06f4 FFF7FEFF 		bl	Write_Command
 2518              	.LVL450:
 586:Core/Src/er_tft040.c **** 	Write_Data_int(0xD4);
 2519              		.loc 1 586 2 view .LVU589
 2520 06f8 D420     		movs	r0, #212
 2521 06fa FFF7FEFF 		bl	Write_Data_int
 2522              	.LVL451:
 587:Core/Src/er_tft040.c **** 	Write_Command(0xD218);
 2523              		.loc 1 587 2 view .LVU590
 2524 06fe A448     		ldr	r0, .L115+172
 2525 0700 FFF7FEFF 		bl	Write_Command
 2526              	.LVL452:
 588:Core/Src/er_tft040.c **** 	Write_Data_int(0x02);
 2527              		.loc 1 588 2 view .LVU591
 2528 0704 0220     		movs	r0, #2
 2529 0706 FFF7FEFF 		bl	Write_Data_int
 2530              	.LVL453:
 589:Core/Src/er_tft040.c **** 	Write_Command(0xD219);
 2531              		.loc 1 589 2 view .LVU592
 2532 070a A248     		ldr	r0, .L115+176
 2533 070c FFF7FEFF 		bl	Write_Command
 2534              	.LVL454:
 590:Core/Src/er_tft040.c **** 	Write_Data_int(0x07);
 2535              		.loc 1 590 2 view .LVU593
 2536 0710 0720     		movs	r0, #7
 2537 0712 FFF7FEFF 		bl	Write_Data_int
 2538              	.LVL455:
 591:Core/Src/er_tft040.c **** 	Write_Command(0xD21A);
 2539              		.loc 1 591 2 view .LVU594
 2540 0716 A048     		ldr	r0, .L115+180
 2541 0718 FFF7FEFF 		bl	Write_Command
 2542              	.LVL456:
 592:Core/Src/er_tft040.c **** 	Write_Data_int(0x02);
 2543              		.loc 1 592 2 view .LVU595
 2544 071c 0220     		movs	r0, #2
 2545 071e FFF7FEFF 		bl	Write_Data_int
 2546              	.LVL457:
 593:Core/Src/er_tft040.c **** 	Write_Command(0xD21B);
ARM GAS  /var/folders/_5/7dt5dlyd7598cb98063hl5tr0000gn/T//ccgSyEuv.s 			page 60


 2547              		.loc 1 593 2 view .LVU596
 2548 0722 9E48     		ldr	r0, .L115+184
 2549 0724 FFF7FEFF 		bl	Write_Command
 2550              	.LVL458:
 594:Core/Src/er_tft040.c **** 	Write_Data_int(0x08);
 2551              		.loc 1 594 2 view .LVU597
 2552 0728 0820     		movs	r0, #8
 2553 072a FFF7FEFF 		bl	Write_Data_int
 2554              	.LVL459:
 595:Core/Src/er_tft040.c **** 	Write_Command(0xD21C);
 2555              		.loc 1 595 2 view .LVU598
 2556 072e 9C48     		ldr	r0, .L115+188
 2557 0730 FFF7FEFF 		bl	Write_Command
 2558              	.LVL460:
 596:Core/Src/er_tft040.c **** 	Write_Data_int(0x02);
 2559              		.loc 1 596 2 view .LVU599
 2560 0734 0220     		movs	r0, #2
 2561 0736 FFF7FEFF 		bl	Write_Data_int
 2562              	.LVL461:
 597:Core/Src/er_tft040.c **** 	Write_Command(0xD21D);
 2563              		.loc 1 597 2 view .LVU600
 2564 073a 9A48     		ldr	r0, .L115+192
 2565 073c FFF7FEFF 		bl	Write_Command
 2566              	.LVL462:
 598:Core/Src/er_tft040.c **** 	Write_Data_int(0x34);
 2567              		.loc 1 598 2 view .LVU601
 2568 0740 3420     		movs	r0, #52
 2569 0742 FFF7FEFF 		bl	Write_Data_int
 2570              	.LVL463:
 599:Core/Src/er_tft040.c **** 	Write_Command(0xD21E);
 2571              		.loc 1 599 2 view .LVU602
 2572 0746 9848     		ldr	r0, .L115+196
 2573 0748 FFF7FEFF 		bl	Write_Command
 2574              	.LVL464:
 600:Core/Src/er_tft040.c **** 	Write_Data_int(0x02);
 2575              		.loc 1 600 2 view .LVU603
 2576 074c 0220     		movs	r0, #2
 2577 074e FFF7FEFF 		bl	Write_Data_int
 2578              	.LVL465:
 601:Core/Src/er_tft040.c **** 	Write_Command(0xD21F);
 2579              		.loc 1 601 2 view .LVU604
 2580 0752 9648     		ldr	r0, .L115+200
 2581 0754 FFF7FEFF 		bl	Write_Command
 2582              	.LVL466:
 602:Core/Src/er_tft040.c **** 	Write_Data_int(0x5F); //
 2583              		.loc 1 602 2 view .LVU605
 2584 0758 5F20     		movs	r0, #95
 2585 075a FFF7FEFF 		bl	Write_Data_int
 2586              	.LVL467:
 603:Core/Src/er_tft040.c **** 	Write_Command(0xD220);
 2587              		.loc 1 603 2 view .LVU606
 2588 075e 9448     		ldr	r0, .L115+204
 2589 0760 FFF7FEFF 		bl	Write_Command
 2590              	.LVL468:
 604:Core/Src/er_tft040.c **** 	Write_Data_int(0x02);
 2591              		.loc 1 604 2 view .LVU607
 2592 0764 0220     		movs	r0, #2
ARM GAS  /var/folders/_5/7dt5dlyd7598cb98063hl5tr0000gn/T//ccgSyEuv.s 			page 61


 2593 0766 FFF7FEFF 		bl	Write_Data_int
 2594              	.LVL469:
 605:Core/Src/er_tft040.c **** 	Write_Command(0xD221);
 2595              		.loc 1 605 2 view .LVU608
 2596 076a 9248     		ldr	r0, .L115+208
 2597 076c FFF7FEFF 		bl	Write_Command
 2598              	.LVL470:
 606:Core/Src/er_tft040.c **** 	Write_Data_int(0x78);
 2599              		.loc 1 606 2 view .LVU609
 2600 0770 7820     		movs	r0, #120
 2601 0772 FFF7FEFF 		bl	Write_Data_int
 2602              	.LVL471:
 607:Core/Src/er_tft040.c **** 	Write_Command(0xD222);
 2603              		.loc 1 607 2 view .LVU610
 2604 0776 9048     		ldr	r0, .L115+212
 2605 0778 FFF7FEFF 		bl	Write_Command
 2606              	.LVL472:
 608:Core/Src/er_tft040.c **** 	Write_Data_int(0x02);
 2607              		.loc 1 608 2 view .LVU611
 2608 077c 0220     		movs	r0, #2
 2609 077e FFF7FEFF 		bl	Write_Data_int
 2610              	.LVL473:
 609:Core/Src/er_tft040.c **** 	Write_Command(0xD223);
 2611              		.loc 1 609 2 view .LVU612
 2612 0782 8E48     		ldr	r0, .L115+216
 2613 0784 FFF7FEFF 		bl	Write_Command
 2614              	.LVL474:
 610:Core/Src/er_tft040.c **** 	Write_Data_int(0x94);
 2615              		.loc 1 610 2 view .LVU613
 2616 0788 9420     		movs	r0, #148
 2617 078a FFF7FEFF 		bl	Write_Data_int
 2618              	.LVL475:
 611:Core/Src/er_tft040.c **** 	Write_Command(0xD224);
 2619              		.loc 1 611 2 view .LVU614
 2620 078e 8C48     		ldr	r0, .L115+220
 2621 0790 FFF7FEFF 		bl	Write_Command
 2622              	.LVL476:
 612:Core/Src/er_tft040.c **** 	Write_Data_int(0x02);
 2623              		.loc 1 612 2 view .LVU615
 2624 0794 0220     		movs	r0, #2
 2625 0796 FFF7FEFF 		bl	Write_Data_int
 2626              	.LVL477:
 613:Core/Src/er_tft040.c **** 	Write_Command(0xD225);
 2627              		.loc 1 613 2 view .LVU616
 2628 079a 8A48     		ldr	r0, .L115+224
 2629 079c FFF7FEFF 		bl	Write_Command
 2630              	.LVL478:
 614:Core/Src/er_tft040.c **** 	Write_Data_int(0xA6);
 2631              		.loc 1 614 2 view .LVU617
 2632 07a0 A620     		movs	r0, #166
 2633 07a2 FFF7FEFF 		bl	Write_Data_int
 2634              	.LVL479:
 615:Core/Src/er_tft040.c **** 	Write_Command(0xD226);
 2635              		.loc 1 615 2 view .LVU618
 2636 07a6 8848     		ldr	r0, .L115+228
 2637 07a8 FFF7FEFF 		bl	Write_Command
 2638              	.LVL480:
ARM GAS  /var/folders/_5/7dt5dlyd7598cb98063hl5tr0000gn/T//ccgSyEuv.s 			page 62


 616:Core/Src/er_tft040.c **** 	Write_Data_int(0x02);
 2639              		.loc 1 616 2 view .LVU619
 2640 07ac 0220     		movs	r0, #2
 2641 07ae FFF7FEFF 		bl	Write_Data_int
 2642              	.LVL481:
 617:Core/Src/er_tft040.c **** 	Write_Command(0xD227);
 2643              		.loc 1 617 2 view .LVU620
 2644 07b2 8648     		ldr	r0, .L115+232
 2645 07b4 FFF7FEFF 		bl	Write_Command
 2646              	.LVL482:
 618:Core/Src/er_tft040.c **** 	Write_Data_int(0xBB);
 2647              		.loc 1 618 2 view .LVU621
 2648 07b8 BB20     		movs	r0, #187
 2649 07ba FFF7FEFF 		bl	Write_Data_int
 2650              	.LVL483:
 619:Core/Src/er_tft040.c **** 	Write_Command(0xD228);
 2651              		.loc 1 619 2 view .LVU622
 2652 07be 8448     		ldr	r0, .L115+236
 2653 07c0 FFF7FEFF 		bl	Write_Command
 2654              	.LVL484:
 620:Core/Src/er_tft040.c **** 	Write_Data_int(0x02);
 2655              		.loc 1 620 2 view .LVU623
 2656 07c4 0220     		movs	r0, #2
 2657 07c6 FFF7FEFF 		bl	Write_Data_int
 2658              	.LVL485:
 621:Core/Src/er_tft040.c **** 	Write_Command(0xD229);
 2659              		.loc 1 621 2 view .LVU624
 2660 07ca 8248     		ldr	r0, .L115+240
 2661 07cc FFF7FEFF 		bl	Write_Command
 2662              	.LVL486:
 622:Core/Src/er_tft040.c **** 	Write_Data_int(0xCA);
 2663              		.loc 1 622 2 view .LVU625
 2664 07d0 CA20     		movs	r0, #202
 2665 07d2 FFF7FEFF 		bl	Write_Data_int
 2666              	.LVL487:
 623:Core/Src/er_tft040.c **** 	Write_Command(0xD22A);
 2667              		.loc 1 623 2 view .LVU626
 2668 07d6 8048     		ldr	r0, .L115+244
 2669 07d8 FFF7FEFF 		bl	Write_Command
 2670              	.LVL488:
 624:Core/Src/er_tft040.c **** 	Write_Data_int(0x02);
 2671              		.loc 1 624 2 view .LVU627
 2672 07dc 0220     		movs	r0, #2
 2673 07de FFF7FEFF 		bl	Write_Data_int
 2674              	.LVL489:
 625:Core/Src/er_tft040.c **** 	Write_Command(0xD22B);
 2675              		.loc 1 625 2 view .LVU628
 2676 07e2 7E48     		ldr	r0, .L115+248
 2677 07e4 FFF7FEFF 		bl	Write_Command
 2678              	.LVL490:
 626:Core/Src/er_tft040.c **** 	Write_Data_int(0xDB);
 2679              		.loc 1 626 2 view .LVU629
 2680 07e8 DB20     		movs	r0, #219
 2681 07ea FFF7FEFF 		bl	Write_Data_int
 2682              	.LVL491:
 627:Core/Src/er_tft040.c **** 	Write_Command(0xD22C);
 2683              		.loc 1 627 2 view .LVU630
ARM GAS  /var/folders/_5/7dt5dlyd7598cb98063hl5tr0000gn/T//ccgSyEuv.s 			page 63


 2684 07ee 7C48     		ldr	r0, .L115+252
 2685 07f0 FFF7FEFF 		bl	Write_Command
 2686              	.LVL492:
 628:Core/Src/er_tft040.c **** 	Write_Data_int(0x02);
 2687              		.loc 1 628 2 view .LVU631
 2688 07f4 0220     		movs	r0, #2
 2689 07f6 FFF7FEFF 		bl	Write_Data_int
 2690              	.LVL493:
 629:Core/Src/er_tft040.c **** 	Write_Command(0xD22D);
 2691              		.loc 1 629 2 view .LVU632
 2692 07fa 7A48     		ldr	r0, .L115+256
 2693 07fc FFF7FEFF 		bl	Write_Command
 2694              	.LVL494:
 630:Core/Src/er_tft040.c **** 	Write_Data_int(0xE8);
 2695              		.loc 1 630 2 view .LVU633
 2696 0800 E820     		movs	r0, #232
 2697 0802 FFF7FEFF 		bl	Write_Data_int
 2698              	.LVL495:
 631:Core/Src/er_tft040.c **** 	Write_Command(0xD22E);
 2699              		.loc 1 631 2 view .LVU634
 2700 0806 7848     		ldr	r0, .L115+260
 2701 0808 FFF7FEFF 		bl	Write_Command
 2702              	.LVL496:
 632:Core/Src/er_tft040.c **** 	Write_Data_int(0x02);
 2703              		.loc 1 632 2 view .LVU635
 2704 080c 0220     		movs	r0, #2
 2705 080e FFF7FEFF 		bl	Write_Data_int
 2706              	.LVL497:
 633:Core/Src/er_tft040.c **** 	Write_Command(0xD22F);
 2707              		.loc 1 633 2 view .LVU636
 2708 0812 7648     		ldr	r0, .L115+264
 2709 0814 FFF7FEFF 		bl	Write_Command
 2710              	.LVL498:
 634:Core/Src/er_tft040.c **** 	Write_Data_int(0xF9); //
 2711              		.loc 1 634 2 view .LVU637
 2712 0818 F920     		movs	r0, #249
 2713 081a FFF7FEFF 		bl	Write_Data_int
 2714              	.LVL499:
 635:Core/Src/er_tft040.c **** 	Write_Command(0xD230);
 2715              		.loc 1 635 2 view .LVU638
 2716 081e 7448     		ldr	r0, .L115+268
 2717 0820 FFF7FEFF 		bl	Write_Command
 2718              	.LVL500:
 636:Core/Src/er_tft040.c **** 	Write_Data_int(0x03);
 2719              		.loc 1 636 2 view .LVU639
 2720 0824 0320     		movs	r0, #3
 2721 0826 FFF7FEFF 		bl	Write_Data_int
 2722              	.LVL501:
 637:Core/Src/er_tft040.c **** 	Write_Command(0xD231);
 2723              		.loc 1 637 2 view .LVU640
 2724 082a 7248     		ldr	r0, .L115+272
 2725 082c FFF7FEFF 		bl	Write_Command
 2726              	.LVL502:
 638:Core/Src/er_tft040.c **** 	Write_Data_int(0x1F);
 2727              		.loc 1 638 2 view .LVU641
 2728 0830 1F20     		movs	r0, #31
 2729 0832 FFF7FEFF 		bl	Write_Data_int
ARM GAS  /var/folders/_5/7dt5dlyd7598cb98063hl5tr0000gn/T//ccgSyEuv.s 			page 64


 2730              	.LVL503:
 639:Core/Src/er_tft040.c **** 	Write_Command(0xD232);
 2731              		.loc 1 639 2 view .LVU642
 2732 0836 7048     		ldr	r0, .L115+276
 2733 0838 FFF7FEFF 		bl	Write_Command
 2734              	.LVL504:
 640:Core/Src/er_tft040.c **** 	Write_Data_int(0x03);
 2735              		.loc 1 640 2 view .LVU643
 2736 083c 0320     		movs	r0, #3
 2737 083e FFF7FEFF 		bl	Write_Data_int
 2738              	.LVL505:
 641:Core/Src/er_tft040.c **** 	Write_Command(0xD233);
 2739              		.loc 1 641 2 view .LVU644
 2740 0842 6E48     		ldr	r0, .L115+280
 2741 0844 FFF7FEFF 		bl	Write_Command
 2742              	.LVL506:
 642:Core/Src/er_tft040.c **** 	Write_Data_int(0x7F);
 2743              		.loc 1 642 2 view .LVU645
 2744 0848 7F20     		movs	r0, #127
 2745 084a FFF7FEFF 		bl	Write_Data_int
 2746              	.LVL507:
 643:Core/Src/er_tft040.c **** 
 644:Core/Src/er_tft040.c **** 	Write_Command(0xD300);
 2747              		.loc 1 644 2 view .LVU646
 2748 084e D320     		movs	r0, #211
 2749 0850 0002     		lsls	r0, r0, #8
 2750 0852 FFF7FEFF 		bl	Write_Command
 2751              	.LVL508:
 645:Core/Src/er_tft040.c **** 	Write_Data_int(0x00);
 2752              		.loc 1 645 2 view .LVU647
 2753 0856 0020     		movs	r0, #0
 2754 0858 FFF7FEFF 		bl	Write_Data_int
 2755              	.LVL509:
 646:Core/Src/er_tft040.c **** 	Write_Command(0xD301);
 2756              		.loc 1 646 2 view .LVU648
 2757 085c 6848     		ldr	r0, .L115+284
 2758 085e FFF7FEFF 		bl	Write_Command
 2759              	.LVL510:
 647:Core/Src/er_tft040.c **** 	Write_Data_int(0x2D);
 2760              		.loc 1 647 2 view .LVU649
 2761 0862 2D20     		movs	r0, #45
 2762 0864 FFF7FEFF 		bl	Write_Data_int
 2763              	.LVL511:
 648:Core/Src/er_tft040.c **** 	Write_Command(0xD302);
 2764              		.loc 1 648 2 view .LVU650
 2765 0868 6648     		ldr	r0, .L115+288
 2766 086a FFF7FEFF 		bl	Write_Command
 2767              	.LVL512:
 649:Core/Src/er_tft040.c **** 	Write_Data_int(0x00);
 2768              		.loc 1 649 2 view .LVU651
 2769 086e 0020     		movs	r0, #0
 2770 0870 FFF7FEFF 		bl	Write_Data_int
 2771              	.LVL513:
 650:Core/Src/er_tft040.c **** 	Write_Command(0xD303);
 2772              		.loc 1 650 2 view .LVU652
 2773 0874 6448     		ldr	r0, .L115+292
 2774 0876 FFF7FEFF 		bl	Write_Command
ARM GAS  /var/folders/_5/7dt5dlyd7598cb98063hl5tr0000gn/T//ccgSyEuv.s 			page 65


 2775              	.LVL514:
 651:Core/Src/er_tft040.c **** 	Write_Data_int(0x2E);
 2776              		.loc 1 651 2 view .LVU653
 2777 087a 2E20     		movs	r0, #46
 2778 087c FFF7FEFF 		bl	Write_Data_int
 2779              	.LVL515:
 652:Core/Src/er_tft040.c **** 	Write_Command(0xD304);
 2780              		.loc 1 652 2 view .LVU654
 2781 0880 6248     		ldr	r0, .L115+296
 2782 0882 FFF7FEFF 		bl	Write_Command
 2783              	.LVL516:
 653:Core/Src/er_tft040.c **** 	Write_Data_int(0x00);
 2784              		.loc 1 653 2 view .LVU655
 2785 0886 0020     		movs	r0, #0
 2786 0888 FFF7FEFF 		bl	Write_Data_int
 2787              	.LVL517:
 654:Core/Src/er_tft040.c **** 	Write_Command(0xD305);
 2788              		.loc 1 654 2 view .LVU656
 2789 088c 6048     		ldr	r0, .L115+300
 2790 088e FFF7FEFF 		bl	Write_Command
 2791              	.LVL518:
 655:Core/Src/er_tft040.c **** 	Write_Data_int(0x32);
 2792              		.loc 1 655 2 view .LVU657
 2793 0892 3220     		movs	r0, #50
 2794 0894 FFF7FEFF 		bl	Write_Data_int
 2795              	.LVL519:
 656:Core/Src/er_tft040.c **** 	Write_Command(0xD306);
 2796              		.loc 1 656 2 view .LVU658
 2797 0898 5E48     		ldr	r0, .L115+304
 2798 089a FFF7FEFF 		bl	Write_Command
 2799              	.LVL520:
 657:Core/Src/er_tft040.c **** 	Write_Data_int(0x00);
 2800              		.loc 1 657 2 view .LVU659
 2801 089e 0020     		movs	r0, #0
 2802 08a0 FFF7FEFF 		bl	Write_Data_int
 2803              	.LVL521:
 658:Core/Src/er_tft040.c **** 	Write_Command(0xD307);
 2804              		.loc 1 658 2 view .LVU660
 2805 08a4 5C48     		ldr	r0, .L115+308
 2806 08a6 FFF7FEFF 		bl	Write_Command
 2807              	.LVL522:
 659:Core/Src/er_tft040.c **** 	Write_Data_int(0x44);
 2808              		.loc 1 659 2 view .LVU661
 2809 08aa 4420     		movs	r0, #68
 2810 08ac FFF7FEFF 		bl	Write_Data_int
 2811              	.LVL523:
 660:Core/Src/er_tft040.c **** 	Write_Command(0xD308);
 2812              		.loc 1 660 2 view .LVU662
 2813 08b0 5A48     		ldr	r0, .L115+312
 2814 08b2 FFF7FEFF 		bl	Write_Command
 2815              	.LVL524:
 661:Core/Src/er_tft040.c **** 	Write_Data_int(0x00);
 2816              		.loc 1 661 2 view .LVU663
 2817 08b6 0020     		movs	r0, #0
 2818 08b8 FFF7FEFF 		bl	Write_Data_int
 2819              	.LVL525:
 662:Core/Src/er_tft040.c **** 	Write_Command(0xD309);
ARM GAS  /var/folders/_5/7dt5dlyd7598cb98063hl5tr0000gn/T//ccgSyEuv.s 			page 66


 2820              		.loc 1 662 2 view .LVU664
 2821 08bc 5848     		ldr	r0, .L115+316
 2822 08be FFF7FEFF 		bl	Write_Command
 2823              	.LVL526:
 663:Core/Src/er_tft040.c **** 	Write_Data_int(0x53);
 2824              		.loc 1 663 2 view .LVU665
 2825 08c2 5320     		movs	r0, #83
 2826 08c4 FFF7FEFF 		bl	Write_Data_int
 2827              	.LVL527:
 664:Core/Src/er_tft040.c **** 	Write_Command(0xD30A);
 2828              		.loc 1 664 2 view .LVU666
 2829 08c8 5648     		ldr	r0, .L115+320
 2830 08ca FFF7FEFF 		bl	Write_Command
 2831              	.LVL528:
 665:Core/Src/er_tft040.c **** 	Write_Data_int(0x00);
 2832              		.loc 1 665 2 view .LVU667
 2833 08ce 0020     		movs	r0, #0
 2834 08d0 FFF7FEFF 		bl	Write_Data_int
 2835              	.LVL529:
 666:Core/Src/er_tft040.c **** 	Write_Command(0xD30B);
 2836              		.loc 1 666 2 view .LVU668
 2837 08d4 5448     		ldr	r0, .L115+324
 2838 08d6 FFF7FEFF 		bl	Write_Command
 2839              	.LVL530:
 667:Core/Src/er_tft040.c **** 	Write_Data_int(0x88);
 2840              		.loc 1 667 2 view .LVU669
 2841 08da 8820     		movs	r0, #136
 2842 08dc FFF7FEFF 		bl	Write_Data_int
 2843              	.LVL531:
 2844 08e0 A4E0     		b	.L116
 2845              	.L117:
 2846 08e2 C046     		.align	2
 2847              	.L115:
 2848 08e4 20D10000 		.word	53536
 2849 08e8 21D10000 		.word	53537
 2850 08ec 22D10000 		.word	53538
 2851 08f0 23D10000 		.word	53539
 2852 08f4 24D10000 		.word	53540
 2853 08f8 25D10000 		.word	53541
 2854 08fc 26D10000 		.word	53542
 2855 0900 27D10000 		.word	53543
 2856 0904 28D10000 		.word	53544
 2857 0908 29D10000 		.word	53545
 2858 090c 2AD10000 		.word	53546
 2859 0910 2BD10000 		.word	53547
 2860 0914 2CD10000 		.word	53548
 2861 0918 2DD10000 		.word	53549
 2862 091c 2ED10000 		.word	53550
 2863 0920 2FD10000 		.word	53551
 2864 0924 30D10000 		.word	53552
 2865 0928 31D10000 		.word	53553
 2866 092c 32D10000 		.word	53554
 2867 0930 33D10000 		.word	53555
 2868 0934 01D20000 		.word	53761
 2869 0938 02D20000 		.word	53762
 2870 093c 03D20000 		.word	53763
 2871 0940 04D20000 		.word	53764
ARM GAS  /var/folders/_5/7dt5dlyd7598cb98063hl5tr0000gn/T//ccgSyEuv.s 			page 67


 2872 0944 05D20000 		.word	53765
 2873 0948 06D20000 		.word	53766
 2874 094c 07D20000 		.word	53767
 2875 0950 08D20000 		.word	53768
 2876 0954 09D20000 		.word	53769
 2877 0958 0AD20000 		.word	53770
 2878 095c 0BD20000 		.word	53771
 2879 0960 0CD20000 		.word	53772
 2880 0964 0DD20000 		.word	53773
 2881 0968 0ED20000 		.word	53774
 2882 096c 0FD20000 		.word	53775
 2883 0970 10D20000 		.word	53776
 2884 0974 11D20000 		.word	53777
 2885 0978 12D20000 		.word	53778
 2886 097c 13D20000 		.word	53779
 2887 0980 14D20000 		.word	53780
 2888 0984 15D20000 		.word	53781
 2889 0988 16D20000 		.word	53782
 2890 098c 17D20000 		.word	53783
 2891 0990 18D20000 		.word	53784
 2892 0994 19D20000 		.word	53785
 2893 0998 1AD20000 		.word	53786
 2894 099c 1BD20000 		.word	53787
 2895 09a0 1CD20000 		.word	53788
 2896 09a4 1DD20000 		.word	53789
 2897 09a8 1ED20000 		.word	53790
 2898 09ac 1FD20000 		.word	53791
 2899 09b0 20D20000 		.word	53792
 2900 09b4 21D20000 		.word	53793
 2901 09b8 22D20000 		.word	53794
 2902 09bc 23D20000 		.word	53795
 2903 09c0 24D20000 		.word	53796
 2904 09c4 25D20000 		.word	53797
 2905 09c8 26D20000 		.word	53798
 2906 09cc 27D20000 		.word	53799
 2907 09d0 28D20000 		.word	53800
 2908 09d4 29D20000 		.word	53801
 2909 09d8 2AD20000 		.word	53802
 2910 09dc 2BD20000 		.word	53803
 2911 09e0 2CD20000 		.word	53804
 2912 09e4 2DD20000 		.word	53805
 2913 09e8 2ED20000 		.word	53806
 2914 09ec 2FD20000 		.word	53807
 2915 09f0 30D20000 		.word	53808
 2916 09f4 31D20000 		.word	53809
 2917 09f8 32D20000 		.word	53810
 2918 09fc 33D20000 		.word	53811
 2919 0a00 01D30000 		.word	54017
 2920 0a04 02D30000 		.word	54018
 2921 0a08 03D30000 		.word	54019
 2922 0a0c 04D30000 		.word	54020
 2923 0a10 05D30000 		.word	54021
 2924 0a14 06D30000 		.word	54022
 2925 0a18 07D30000 		.word	54023
 2926 0a1c 08D30000 		.word	54024
 2927 0a20 09D30000 		.word	54025
 2928 0a24 0AD30000 		.word	54026
ARM GAS  /var/folders/_5/7dt5dlyd7598cb98063hl5tr0000gn/T//ccgSyEuv.s 			page 68


 2929 0a28 0BD30000 		.word	54027
 2930              	.L116:
 668:Core/Src/er_tft040.c **** 	Write_Command(0xD30C);
 2931              		.loc 1 668 2 view .LVU670
 2932 0a2c FE48     		ldr	r0, .L118
 2933 0a2e FFF7FEFF 		bl	Write_Command
 2934              	.LVL532:
 669:Core/Src/er_tft040.c **** 	Write_Data_int(0x00);
 2935              		.loc 1 669 2 view .LVU671
 2936 0a32 0020     		movs	r0, #0
 2937 0a34 FFF7FEFF 		bl	Write_Data_int
 2938              	.LVL533:
 670:Core/Src/er_tft040.c **** 	Write_Command(0xD30D);
 2939              		.loc 1 670 2 view .LVU672
 2940 0a38 FC48     		ldr	r0, .L118+4
 2941 0a3a FFF7FEFF 		bl	Write_Command
 2942              	.LVL534:
 671:Core/Src/er_tft040.c **** 	Write_Data_int(0xB6);
 2943              		.loc 1 671 2 view .LVU673
 2944 0a3e B620     		movs	r0, #182
 2945 0a40 FFF7FEFF 		bl	Write_Data_int
 2946              	.LVL535:
 672:Core/Src/er_tft040.c **** 	Write_Command(0xD30E);
 2947              		.loc 1 672 2 view .LVU674
 2948 0a44 FA48     		ldr	r0, .L118+8
 2949 0a46 FFF7FEFF 		bl	Write_Command
 2950              	.LVL536:
 673:Core/Src/er_tft040.c **** 	Write_Data_int(0x00);
 2951              		.loc 1 673 2 view .LVU675
 2952 0a4a 0020     		movs	r0, #0
 2953 0a4c FFF7FEFF 		bl	Write_Data_int
 2954              	.LVL537:
 674:Core/Src/er_tft040.c **** 	Write_Command(0xD30F);
 2955              		.loc 1 674 2 view .LVU676
 2956 0a50 F848     		ldr	r0, .L118+12
 2957 0a52 FFF7FEFF 		bl	Write_Command
 2958              	.LVL538:
 675:Core/Src/er_tft040.c **** 	Write_Data_int(0xF3); //
 2959              		.loc 1 675 2 view .LVU677
 2960 0a56 F320     		movs	r0, #243
 2961 0a58 FFF7FEFF 		bl	Write_Data_int
 2962              	.LVL539:
 676:Core/Src/er_tft040.c **** 	Write_Command(0xD310);
 2963              		.loc 1 676 2 view .LVU678
 2964 0a5c F648     		ldr	r0, .L118+16
 2965 0a5e FFF7FEFF 		bl	Write_Command
 2966              	.LVL540:
 677:Core/Src/er_tft040.c **** 	Write_Data_int(0x01);
 2967              		.loc 1 677 2 view .LVU679
 2968 0a62 0120     		movs	r0, #1
 2969 0a64 FFF7FEFF 		bl	Write_Data_int
 2970              	.LVL541:
 678:Core/Src/er_tft040.c **** 	Write_Command(0xD311);
 2971              		.loc 1 678 2 view .LVU680
 2972 0a68 F448     		ldr	r0, .L118+20
 2973 0a6a FFF7FEFF 		bl	Write_Command
 2974              	.LVL542:
ARM GAS  /var/folders/_5/7dt5dlyd7598cb98063hl5tr0000gn/T//ccgSyEuv.s 			page 69


 679:Core/Src/er_tft040.c **** 	Write_Data_int(0x22);
 2975              		.loc 1 679 2 view .LVU681
 2976 0a6e 2220     		movs	r0, #34
 2977 0a70 FFF7FEFF 		bl	Write_Data_int
 2978              	.LVL543:
 680:Core/Src/er_tft040.c **** 	Write_Command(0xD312);
 2979              		.loc 1 680 2 view .LVU682
 2980 0a74 F248     		ldr	r0, .L118+24
 2981 0a76 FFF7FEFF 		bl	Write_Command
 2982              	.LVL544:
 681:Core/Src/er_tft040.c **** 	Write_Data_int(0x01);
 2983              		.loc 1 681 2 view .LVU683
 2984 0a7a 0120     		movs	r0, #1
 2985 0a7c FFF7FEFF 		bl	Write_Data_int
 2986              	.LVL545:
 682:Core/Src/er_tft040.c **** 	Write_Command(0xD313);
 2987              		.loc 1 682 2 view .LVU684
 2988 0a80 F048     		ldr	r0, .L118+28
 2989 0a82 FFF7FEFF 		bl	Write_Command
 2990              	.LVL546:
 683:Core/Src/er_tft040.c **** 	Write_Data_int(0x64);
 2991              		.loc 1 683 2 view .LVU685
 2992 0a86 6420     		movs	r0, #100
 2993 0a88 FFF7FEFF 		bl	Write_Data_int
 2994              	.LVL547:
 684:Core/Src/er_tft040.c **** 	Write_Command(0xD314);
 2995              		.loc 1 684 2 view .LVU686
 2996 0a8c EE48     		ldr	r0, .L118+32
 2997 0a8e FFF7FEFF 		bl	Write_Command
 2998              	.LVL548:
 685:Core/Src/er_tft040.c **** 	Write_Data_int(0x01);
 2999              		.loc 1 685 2 view .LVU687
 3000 0a92 0120     		movs	r0, #1
 3001 0a94 FFF7FEFF 		bl	Write_Data_int
 3002              	.LVL549:
 686:Core/Src/er_tft040.c **** 	Write_Command(0xD315);
 3003              		.loc 1 686 2 view .LVU688
 3004 0a98 EC48     		ldr	r0, .L118+36
 3005 0a9a FFF7FEFF 		bl	Write_Command
 3006              	.LVL550:
 687:Core/Src/er_tft040.c **** 	Write_Data_int(0x92);
 3007              		.loc 1 687 2 view .LVU689
 3008 0a9e 9220     		movs	r0, #146
 3009 0aa0 FFF7FEFF 		bl	Write_Data_int
 3010              	.LVL551:
 688:Core/Src/er_tft040.c **** 	Write_Command(0xD316);
 3011              		.loc 1 688 2 view .LVU690
 3012 0aa4 EA48     		ldr	r0, .L118+40
 3013 0aa6 FFF7FEFF 		bl	Write_Command
 3014              	.LVL552:
 689:Core/Src/er_tft040.c **** 	Write_Data_int(0x01);
 3015              		.loc 1 689 2 view .LVU691
 3016 0aaa 0120     		movs	r0, #1
 3017 0aac FFF7FEFF 		bl	Write_Data_int
 3018              	.LVL553:
 690:Core/Src/er_tft040.c **** 	Write_Command(0xD317);
 3019              		.loc 1 690 2 view .LVU692
ARM GAS  /var/folders/_5/7dt5dlyd7598cb98063hl5tr0000gn/T//ccgSyEuv.s 			page 70


 3020 0ab0 E848     		ldr	r0, .L118+44
 3021 0ab2 FFF7FEFF 		bl	Write_Command
 3022              	.LVL554:
 691:Core/Src/er_tft040.c **** 	Write_Data_int(0xD4);
 3023              		.loc 1 691 2 view .LVU693
 3024 0ab6 D420     		movs	r0, #212
 3025 0ab8 FFF7FEFF 		bl	Write_Data_int
 3026              	.LVL555:
 692:Core/Src/er_tft040.c **** 	Write_Command(0xD318);
 3027              		.loc 1 692 2 view .LVU694
 3028 0abc E648     		ldr	r0, .L118+48
 3029 0abe FFF7FEFF 		bl	Write_Command
 3030              	.LVL556:
 693:Core/Src/er_tft040.c **** 	Write_Data_int(0x02);
 3031              		.loc 1 693 2 view .LVU695
 3032 0ac2 0220     		movs	r0, #2
 3033 0ac4 FFF7FEFF 		bl	Write_Data_int
 3034              	.LVL557:
 694:Core/Src/er_tft040.c **** 	Write_Command(0xD319);
 3035              		.loc 1 694 2 view .LVU696
 3036 0ac8 E448     		ldr	r0, .L118+52
 3037 0aca FFF7FEFF 		bl	Write_Command
 3038              	.LVL558:
 695:Core/Src/er_tft040.c **** 	Write_Data_int(0x07);
 3039              		.loc 1 695 2 view .LVU697
 3040 0ace 0720     		movs	r0, #7
 3041 0ad0 FFF7FEFF 		bl	Write_Data_int
 3042              	.LVL559:
 696:Core/Src/er_tft040.c **** 	Write_Command(0xD31A);
 3043              		.loc 1 696 2 view .LVU698
 3044 0ad4 E248     		ldr	r0, .L118+56
 3045 0ad6 FFF7FEFF 		bl	Write_Command
 3046              	.LVL560:
 697:Core/Src/er_tft040.c **** 	Write_Data_int(0x02);
 3047              		.loc 1 697 2 view .LVU699
 3048 0ada 0220     		movs	r0, #2
 3049 0adc FFF7FEFF 		bl	Write_Data_int
 3050              	.LVL561:
 698:Core/Src/er_tft040.c **** 	Write_Command(0xD31B);
 3051              		.loc 1 698 2 view .LVU700
 3052 0ae0 E048     		ldr	r0, .L118+60
 3053 0ae2 FFF7FEFF 		bl	Write_Command
 3054              	.LVL562:
 699:Core/Src/er_tft040.c **** 	Write_Data_int(0x08);
 3055              		.loc 1 699 2 view .LVU701
 3056 0ae6 0820     		movs	r0, #8
 3057 0ae8 FFF7FEFF 		bl	Write_Data_int
 3058              	.LVL563:
 700:Core/Src/er_tft040.c **** 	Write_Command(0xD31C);
 3059              		.loc 1 700 2 view .LVU702
 3060 0aec DE48     		ldr	r0, .L118+64
 3061 0aee FFF7FEFF 		bl	Write_Command
 3062              	.LVL564:
 701:Core/Src/er_tft040.c **** 	Write_Data_int(0x02);
 3063              		.loc 1 701 2 view .LVU703
 3064 0af2 0220     		movs	r0, #2
 3065 0af4 FFF7FEFF 		bl	Write_Data_int
ARM GAS  /var/folders/_5/7dt5dlyd7598cb98063hl5tr0000gn/T//ccgSyEuv.s 			page 71


 3066              	.LVL565:
 702:Core/Src/er_tft040.c **** 	Write_Command(0xD31D);
 3067              		.loc 1 702 2 view .LVU704
 3068 0af8 DC48     		ldr	r0, .L118+68
 3069 0afa FFF7FEFF 		bl	Write_Command
 3070              	.LVL566:
 703:Core/Src/er_tft040.c **** 	Write_Data_int(0x34);
 3071              		.loc 1 703 2 view .LVU705
 3072 0afe 3420     		movs	r0, #52
 3073 0b00 FFF7FEFF 		bl	Write_Data_int
 3074              	.LVL567:
 704:Core/Src/er_tft040.c **** 	Write_Command(0xD31E);
 3075              		.loc 1 704 2 view .LVU706
 3076 0b04 DA48     		ldr	r0, .L118+72
 3077 0b06 FFF7FEFF 		bl	Write_Command
 3078              	.LVL568:
 705:Core/Src/er_tft040.c **** 	Write_Data_int(0x02);
 3079              		.loc 1 705 2 view .LVU707
 3080 0b0a 0220     		movs	r0, #2
 3081 0b0c FFF7FEFF 		bl	Write_Data_int
 3082              	.LVL569:
 706:Core/Src/er_tft040.c **** 	Write_Command(0xD31F);
 3083              		.loc 1 706 2 view .LVU708
 3084 0b10 D848     		ldr	r0, .L118+76
 3085 0b12 FFF7FEFF 		bl	Write_Command
 3086              	.LVL570:
 707:Core/Src/er_tft040.c **** 	Write_Data_int(0x5F); //
 3087              		.loc 1 707 2 view .LVU709
 3088 0b16 5F20     		movs	r0, #95
 3089 0b18 FFF7FEFF 		bl	Write_Data_int
 3090              	.LVL571:
 708:Core/Src/er_tft040.c **** 	Write_Command(0xD320);
 3091              		.loc 1 708 2 view .LVU710
 3092 0b1c D648     		ldr	r0, .L118+80
 3093 0b1e FFF7FEFF 		bl	Write_Command
 3094              	.LVL572:
 709:Core/Src/er_tft040.c **** 	Write_Data_int(0x02);
 3095              		.loc 1 709 2 view .LVU711
 3096 0b22 0220     		movs	r0, #2
 3097 0b24 FFF7FEFF 		bl	Write_Data_int
 3098              	.LVL573:
 710:Core/Src/er_tft040.c **** 	Write_Command(0xD321);
 3099              		.loc 1 710 2 view .LVU712
 3100 0b28 D448     		ldr	r0, .L118+84
 3101 0b2a FFF7FEFF 		bl	Write_Command
 3102              	.LVL574:
 711:Core/Src/er_tft040.c **** 	Write_Data_int(0x78);
 3103              		.loc 1 711 2 view .LVU713
 3104 0b2e 7820     		movs	r0, #120
 3105 0b30 FFF7FEFF 		bl	Write_Data_int
 3106              	.LVL575:
 712:Core/Src/er_tft040.c **** 	Write_Command(0xD322);
 3107              		.loc 1 712 2 view .LVU714
 3108 0b34 D248     		ldr	r0, .L118+88
 3109 0b36 FFF7FEFF 		bl	Write_Command
 3110              	.LVL576:
 713:Core/Src/er_tft040.c **** 	Write_Data_int(0x02);
ARM GAS  /var/folders/_5/7dt5dlyd7598cb98063hl5tr0000gn/T//ccgSyEuv.s 			page 72


 3111              		.loc 1 713 2 view .LVU715
 3112 0b3a 0220     		movs	r0, #2
 3113 0b3c FFF7FEFF 		bl	Write_Data_int
 3114              	.LVL577:
 714:Core/Src/er_tft040.c **** 	Write_Command(0xD323);
 3115              		.loc 1 714 2 view .LVU716
 3116 0b40 D048     		ldr	r0, .L118+92
 3117 0b42 FFF7FEFF 		bl	Write_Command
 3118              	.LVL578:
 715:Core/Src/er_tft040.c **** 	Write_Data_int(0x94);
 3119              		.loc 1 715 2 view .LVU717
 3120 0b46 9420     		movs	r0, #148
 3121 0b48 FFF7FEFF 		bl	Write_Data_int
 3122              	.LVL579:
 716:Core/Src/er_tft040.c **** 	Write_Command(0xD324);
 3123              		.loc 1 716 2 view .LVU718
 3124 0b4c CE48     		ldr	r0, .L118+96
 3125 0b4e FFF7FEFF 		bl	Write_Command
 3126              	.LVL580:
 717:Core/Src/er_tft040.c **** 	Write_Data_int(0x02);
 3127              		.loc 1 717 2 view .LVU719
 3128 0b52 0220     		movs	r0, #2
 3129 0b54 FFF7FEFF 		bl	Write_Data_int
 3130              	.LVL581:
 718:Core/Src/er_tft040.c **** 	Write_Command(0xD325);
 3131              		.loc 1 718 2 view .LVU720
 3132 0b58 CC48     		ldr	r0, .L118+100
 3133 0b5a FFF7FEFF 		bl	Write_Command
 3134              	.LVL582:
 719:Core/Src/er_tft040.c **** 	Write_Data_int(0xA6);
 3135              		.loc 1 719 2 view .LVU721
 3136 0b5e A620     		movs	r0, #166
 3137 0b60 FFF7FEFF 		bl	Write_Data_int
 3138              	.LVL583:
 720:Core/Src/er_tft040.c **** 	Write_Command(0xD326);
 3139              		.loc 1 720 2 view .LVU722
 3140 0b64 CA48     		ldr	r0, .L118+104
 3141 0b66 FFF7FEFF 		bl	Write_Command
 3142              	.LVL584:
 721:Core/Src/er_tft040.c **** 	Write_Data_int(0x02);
 3143              		.loc 1 721 2 view .LVU723
 3144 0b6a 0220     		movs	r0, #2
 3145 0b6c FFF7FEFF 		bl	Write_Data_int
 3146              	.LVL585:
 722:Core/Src/er_tft040.c **** 	Write_Command(0xD327);
 3147              		.loc 1 722 2 view .LVU724
 3148 0b70 C848     		ldr	r0, .L118+108
 3149 0b72 FFF7FEFF 		bl	Write_Command
 3150              	.LVL586:
 723:Core/Src/er_tft040.c **** 	Write_Data_int(0xBB);
 3151              		.loc 1 723 2 view .LVU725
 3152 0b76 BB20     		movs	r0, #187
 3153 0b78 FFF7FEFF 		bl	Write_Data_int
 3154              	.LVL587:
 724:Core/Src/er_tft040.c **** 	Write_Command(0xD328);
 3155              		.loc 1 724 2 view .LVU726
 3156 0b7c C648     		ldr	r0, .L118+112
ARM GAS  /var/folders/_5/7dt5dlyd7598cb98063hl5tr0000gn/T//ccgSyEuv.s 			page 73


 3157 0b7e FFF7FEFF 		bl	Write_Command
 3158              	.LVL588:
 725:Core/Src/er_tft040.c **** 	Write_Data_int(0x02);
 3159              		.loc 1 725 2 view .LVU727
 3160 0b82 0220     		movs	r0, #2
 3161 0b84 FFF7FEFF 		bl	Write_Data_int
 3162              	.LVL589:
 726:Core/Src/er_tft040.c **** 	Write_Command(0xD329);
 3163              		.loc 1 726 2 view .LVU728
 3164 0b88 C448     		ldr	r0, .L118+116
 3165 0b8a FFF7FEFF 		bl	Write_Command
 3166              	.LVL590:
 727:Core/Src/er_tft040.c **** 	Write_Data_int(0xCA);
 3167              		.loc 1 727 2 view .LVU729
 3168 0b8e CA20     		movs	r0, #202
 3169 0b90 FFF7FEFF 		bl	Write_Data_int
 3170              	.LVL591:
 728:Core/Src/er_tft040.c **** 	Write_Command(0xD32A);
 3171              		.loc 1 728 2 view .LVU730
 3172 0b94 C248     		ldr	r0, .L118+120
 3173 0b96 FFF7FEFF 		bl	Write_Command
 3174              	.LVL592:
 729:Core/Src/er_tft040.c **** 	Write_Data_int(0x02);
 3175              		.loc 1 729 2 view .LVU731
 3176 0b9a 0220     		movs	r0, #2
 3177 0b9c FFF7FEFF 		bl	Write_Data_int
 3178              	.LVL593:
 730:Core/Src/er_tft040.c **** 	Write_Command(0xD32B);
 3179              		.loc 1 730 2 view .LVU732
 3180 0ba0 C048     		ldr	r0, .L118+124
 3181 0ba2 FFF7FEFF 		bl	Write_Command
 3182              	.LVL594:
 731:Core/Src/er_tft040.c **** 	Write_Data_int(0xDB);
 3183              		.loc 1 731 2 view .LVU733
 3184 0ba6 DB20     		movs	r0, #219
 3185 0ba8 FFF7FEFF 		bl	Write_Data_int
 3186              	.LVL595:
 732:Core/Src/er_tft040.c **** 	Write_Command(0xD32C);
 3187              		.loc 1 732 2 view .LVU734
 3188 0bac BE48     		ldr	r0, .L118+128
 3189 0bae FFF7FEFF 		bl	Write_Command
 3190              	.LVL596:
 733:Core/Src/er_tft040.c **** 	Write_Data_int(0x02);
 3191              		.loc 1 733 2 view .LVU735
 3192 0bb2 0220     		movs	r0, #2
 3193 0bb4 FFF7FEFF 		bl	Write_Data_int
 3194              	.LVL597:
 734:Core/Src/er_tft040.c **** 	Write_Command(0xD32D);
 3195              		.loc 1 734 2 view .LVU736
 3196 0bb8 BC48     		ldr	r0, .L118+132
 3197 0bba FFF7FEFF 		bl	Write_Command
 3198              	.LVL598:
 735:Core/Src/er_tft040.c **** 	Write_Data_int(0xE8);
 3199              		.loc 1 735 2 view .LVU737
 3200 0bbe E820     		movs	r0, #232
 3201 0bc0 FFF7FEFF 		bl	Write_Data_int
 3202              	.LVL599:
ARM GAS  /var/folders/_5/7dt5dlyd7598cb98063hl5tr0000gn/T//ccgSyEuv.s 			page 74


 736:Core/Src/er_tft040.c **** 	Write_Command(0xD32E);
 3203              		.loc 1 736 2 view .LVU738
 3204 0bc4 BA48     		ldr	r0, .L118+136
 3205 0bc6 FFF7FEFF 		bl	Write_Command
 3206              	.LVL600:
 737:Core/Src/er_tft040.c **** 	Write_Data_int(0x02);
 3207              		.loc 1 737 2 view .LVU739
 3208 0bca 0220     		movs	r0, #2
 3209 0bcc FFF7FEFF 		bl	Write_Data_int
 3210              	.LVL601:
 738:Core/Src/er_tft040.c **** 	Write_Command(0xD32F);
 3211              		.loc 1 738 2 view .LVU740
 3212 0bd0 B848     		ldr	r0, .L118+140
 3213 0bd2 FFF7FEFF 		bl	Write_Command
 3214              	.LVL602:
 739:Core/Src/er_tft040.c **** 	Write_Data_int(0xF9); //
 3215              		.loc 1 739 2 view .LVU741
 3216 0bd6 F920     		movs	r0, #249
 3217 0bd8 FFF7FEFF 		bl	Write_Data_int
 3218              	.LVL603:
 740:Core/Src/er_tft040.c **** 	Write_Command(0xD330);
 3219              		.loc 1 740 2 view .LVU742
 3220 0bdc B648     		ldr	r0, .L118+144
 3221 0bde FFF7FEFF 		bl	Write_Command
 3222              	.LVL604:
 741:Core/Src/er_tft040.c **** 	Write_Data_int(0x03);
 3223              		.loc 1 741 2 view .LVU743
 3224 0be2 0320     		movs	r0, #3
 3225 0be4 FFF7FEFF 		bl	Write_Data_int
 3226              	.LVL605:
 742:Core/Src/er_tft040.c **** 	Write_Command(0xD331);
 3227              		.loc 1 742 2 view .LVU744
 3228 0be8 B448     		ldr	r0, .L118+148
 3229 0bea FFF7FEFF 		bl	Write_Command
 3230              	.LVL606:
 743:Core/Src/er_tft040.c **** 	Write_Data_int(0x1F);
 3231              		.loc 1 743 2 view .LVU745
 3232 0bee 1F20     		movs	r0, #31
 3233 0bf0 FFF7FEFF 		bl	Write_Data_int
 3234              	.LVL607:
 744:Core/Src/er_tft040.c **** 	Write_Command(0xD332);
 3235              		.loc 1 744 2 view .LVU746
 3236 0bf4 B248     		ldr	r0, .L118+152
 3237 0bf6 FFF7FEFF 		bl	Write_Command
 3238              	.LVL608:
 745:Core/Src/er_tft040.c **** 	Write_Data_int(0x03);
 3239              		.loc 1 745 2 view .LVU747
 3240 0bfa 0320     		movs	r0, #3
 3241 0bfc FFF7FEFF 		bl	Write_Data_int
 3242              	.LVL609:
 746:Core/Src/er_tft040.c **** 	Write_Command(0xD333);
 3243              		.loc 1 746 2 view .LVU748
 3244 0c00 B048     		ldr	r0, .L118+156
 3245 0c02 FFF7FEFF 		bl	Write_Command
 3246              	.LVL610:
 747:Core/Src/er_tft040.c **** 	Write_Data_int(0x7F);
 3247              		.loc 1 747 2 view .LVU749
ARM GAS  /var/folders/_5/7dt5dlyd7598cb98063hl5tr0000gn/T//ccgSyEuv.s 			page 75


 3248 0c06 7F20     		movs	r0, #127
 3249 0c08 FFF7FEFF 		bl	Write_Data_int
 3250              	.LVL611:
 748:Core/Src/er_tft040.c **** 
 749:Core/Src/er_tft040.c **** 	Write_Command(0xD400);
 3251              		.loc 1 749 2 view .LVU750
 3252 0c0c D420     		movs	r0, #212
 3253 0c0e 0002     		lsls	r0, r0, #8
 3254 0c10 FFF7FEFF 		bl	Write_Command
 3255              	.LVL612:
 750:Core/Src/er_tft040.c **** 	Write_Data_int(0x00);
 3256              		.loc 1 750 2 view .LVU751
 3257 0c14 0020     		movs	r0, #0
 3258 0c16 FFF7FEFF 		bl	Write_Data_int
 3259              	.LVL613:
 751:Core/Src/er_tft040.c **** 	Write_Command(0xD401);
 3260              		.loc 1 751 2 view .LVU752
 3261 0c1a AB48     		ldr	r0, .L118+160
 3262 0c1c FFF7FEFF 		bl	Write_Command
 3263              	.LVL614:
 752:Core/Src/er_tft040.c **** 	Write_Data_int(0x2D);
 3264              		.loc 1 752 2 view .LVU753
 3265 0c20 2D20     		movs	r0, #45
 3266 0c22 FFF7FEFF 		bl	Write_Data_int
 3267              	.LVL615:
 753:Core/Src/er_tft040.c **** 	Write_Command(0xD402);
 3268              		.loc 1 753 2 view .LVU754
 3269 0c26 A948     		ldr	r0, .L118+164
 3270 0c28 FFF7FEFF 		bl	Write_Command
 3271              	.LVL616:
 754:Core/Src/er_tft040.c **** 	Write_Data_int(0x00);
 3272              		.loc 1 754 2 view .LVU755
 3273 0c2c 0020     		movs	r0, #0
 3274 0c2e FFF7FEFF 		bl	Write_Data_int
 3275              	.LVL617:
 755:Core/Src/er_tft040.c **** 	Write_Command(0xD403);
 3276              		.loc 1 755 2 view .LVU756
 3277 0c32 A748     		ldr	r0, .L118+168
 3278 0c34 FFF7FEFF 		bl	Write_Command
 3279              	.LVL618:
 756:Core/Src/er_tft040.c **** 	Write_Data_int(0x2E);
 3280              		.loc 1 756 2 view .LVU757
 3281 0c38 2E20     		movs	r0, #46
 3282 0c3a FFF7FEFF 		bl	Write_Data_int
 3283              	.LVL619:
 757:Core/Src/er_tft040.c **** 	Write_Command(0xD404);
 3284              		.loc 1 757 2 view .LVU758
 3285 0c3e A548     		ldr	r0, .L118+172
 3286 0c40 FFF7FEFF 		bl	Write_Command
 3287              	.LVL620:
 758:Core/Src/er_tft040.c **** 	Write_Data_int(0x00);
 3288              		.loc 1 758 2 view .LVU759
 3289 0c44 0020     		movs	r0, #0
 3290 0c46 FFF7FEFF 		bl	Write_Data_int
 3291              	.LVL621:
 759:Core/Src/er_tft040.c **** 	Write_Command(0xD405);
 3292              		.loc 1 759 2 view .LVU760
ARM GAS  /var/folders/_5/7dt5dlyd7598cb98063hl5tr0000gn/T//ccgSyEuv.s 			page 76


 3293 0c4a A348     		ldr	r0, .L118+176
 3294 0c4c FFF7FEFF 		bl	Write_Command
 3295              	.LVL622:
 760:Core/Src/er_tft040.c **** 	Write_Data_int(0x32);
 3296              		.loc 1 760 2 view .LVU761
 3297 0c50 3220     		movs	r0, #50
 3298 0c52 FFF7FEFF 		bl	Write_Data_int
 3299              	.LVL623:
 761:Core/Src/er_tft040.c **** 	Write_Command(0xD406);
 3300              		.loc 1 761 2 view .LVU762
 3301 0c56 A148     		ldr	r0, .L118+180
 3302 0c58 FFF7FEFF 		bl	Write_Command
 3303              	.LVL624:
 762:Core/Src/er_tft040.c **** 	Write_Data_int(0x00);
 3304              		.loc 1 762 2 view .LVU763
 3305 0c5c 0020     		movs	r0, #0
 3306 0c5e FFF7FEFF 		bl	Write_Data_int
 3307              	.LVL625:
 763:Core/Src/er_tft040.c **** 	Write_Command(0xD407);
 3308              		.loc 1 763 2 view .LVU764
 3309 0c62 9F48     		ldr	r0, .L118+184
 3310 0c64 FFF7FEFF 		bl	Write_Command
 3311              	.LVL626:
 764:Core/Src/er_tft040.c **** 	Write_Data_int(0x44);
 3312              		.loc 1 764 2 view .LVU765
 3313 0c68 4420     		movs	r0, #68
 3314 0c6a FFF7FEFF 		bl	Write_Data_int
 3315              	.LVL627:
 765:Core/Src/er_tft040.c **** 	Write_Command(0xD408);
 3316              		.loc 1 765 2 view .LVU766
 3317 0c6e 9D48     		ldr	r0, .L118+188
 3318 0c70 FFF7FEFF 		bl	Write_Command
 3319              	.LVL628:
 766:Core/Src/er_tft040.c **** 	Write_Data_int(0x00);
 3320              		.loc 1 766 2 view .LVU767
 3321 0c74 0020     		movs	r0, #0
 3322 0c76 FFF7FEFF 		bl	Write_Data_int
 3323              	.LVL629:
 767:Core/Src/er_tft040.c **** 	Write_Command(0xD409);
 3324              		.loc 1 767 2 view .LVU768
 3325 0c7a 9B48     		ldr	r0, .L118+192
 3326 0c7c FFF7FEFF 		bl	Write_Command
 3327              	.LVL630:
 768:Core/Src/er_tft040.c **** 	Write_Data_int(0x53);
 3328              		.loc 1 768 2 view .LVU769
 3329 0c80 5320     		movs	r0, #83
 3330 0c82 FFF7FEFF 		bl	Write_Data_int
 3331              	.LVL631:
 769:Core/Src/er_tft040.c **** 	Write_Command(0xD40A);
 3332              		.loc 1 769 2 view .LVU770
 3333 0c86 9948     		ldr	r0, .L118+196
 3334 0c88 FFF7FEFF 		bl	Write_Command
 3335              	.LVL632:
 770:Core/Src/er_tft040.c **** 	Write_Data_int(0x00);
 3336              		.loc 1 770 2 view .LVU771
 3337 0c8c 0020     		movs	r0, #0
 3338 0c8e FFF7FEFF 		bl	Write_Data_int
ARM GAS  /var/folders/_5/7dt5dlyd7598cb98063hl5tr0000gn/T//ccgSyEuv.s 			page 77


 3339              	.LVL633:
 771:Core/Src/er_tft040.c **** 	Write_Command(0xD40B);
 3340              		.loc 1 771 2 view .LVU772
 3341 0c92 9748     		ldr	r0, .L118+200
 3342 0c94 FFF7FEFF 		bl	Write_Command
 3343              	.LVL634:
 772:Core/Src/er_tft040.c **** 	Write_Data_int(0x88);
 3344              		.loc 1 772 2 view .LVU773
 3345 0c98 8820     		movs	r0, #136
 3346 0c9a FFF7FEFF 		bl	Write_Data_int
 3347              	.LVL635:
 773:Core/Src/er_tft040.c **** 	Write_Command(0xD40C);
 3348              		.loc 1 773 2 view .LVU774
 3349 0c9e 9548     		ldr	r0, .L118+204
 3350 0ca0 FFF7FEFF 		bl	Write_Command
 3351              	.LVL636:
 774:Core/Src/er_tft040.c **** 	Write_Data_int(0x00);
 3352              		.loc 1 774 2 view .LVU775
 3353 0ca4 0020     		movs	r0, #0
 3354 0ca6 FFF7FEFF 		bl	Write_Data_int
 3355              	.LVL637:
 775:Core/Src/er_tft040.c **** 	Write_Command(0xD40D);
 3356              		.loc 1 775 2 view .LVU776
 3357 0caa 9348     		ldr	r0, .L118+208
 3358 0cac FFF7FEFF 		bl	Write_Command
 3359              	.LVL638:
 776:Core/Src/er_tft040.c **** 	Write_Data_int(0xB6);
 3360              		.loc 1 776 2 view .LVU777
 3361 0cb0 B620     		movs	r0, #182
 3362 0cb2 FFF7FEFF 		bl	Write_Data_int
 3363              	.LVL639:
 777:Core/Src/er_tft040.c **** 	Write_Command(0xD40E);
 3364              		.loc 1 777 2 view .LVU778
 3365 0cb6 9148     		ldr	r0, .L118+212
 3366 0cb8 FFF7FEFF 		bl	Write_Command
 3367              	.LVL640:
 778:Core/Src/er_tft040.c **** 	Write_Data_int(0x00);
 3368              		.loc 1 778 2 view .LVU779
 3369 0cbc 0020     		movs	r0, #0
 3370 0cbe FFF7FEFF 		bl	Write_Data_int
 3371              	.LVL641:
 779:Core/Src/er_tft040.c **** 	Write_Command(0xD40F);
 3372              		.loc 1 779 2 view .LVU780
 3373 0cc2 8F48     		ldr	r0, .L118+216
 3374 0cc4 FFF7FEFF 		bl	Write_Command
 3375              	.LVL642:
 780:Core/Src/er_tft040.c **** 	Write_Data_int(0xF3); //
 3376              		.loc 1 780 2 view .LVU781
 3377 0cc8 F320     		movs	r0, #243
 3378 0cca FFF7FEFF 		bl	Write_Data_int
 3379              	.LVL643:
 781:Core/Src/er_tft040.c **** 	Write_Command(0xD410);
 3380              		.loc 1 781 2 view .LVU782
 3381 0cce 8D48     		ldr	r0, .L118+220
 3382 0cd0 FFF7FEFF 		bl	Write_Command
 3383              	.LVL644:
 782:Core/Src/er_tft040.c **** 	Write_Data_int(0x01);
ARM GAS  /var/folders/_5/7dt5dlyd7598cb98063hl5tr0000gn/T//ccgSyEuv.s 			page 78


 3384              		.loc 1 782 2 view .LVU783
 3385 0cd4 0120     		movs	r0, #1
 3386 0cd6 FFF7FEFF 		bl	Write_Data_int
 3387              	.LVL645:
 783:Core/Src/er_tft040.c **** 	Write_Command(0xD411);
 3388              		.loc 1 783 2 view .LVU784
 3389 0cda 8B48     		ldr	r0, .L118+224
 3390 0cdc FFF7FEFF 		bl	Write_Command
 3391              	.LVL646:
 784:Core/Src/er_tft040.c **** 	Write_Data_int(0x22);
 3392              		.loc 1 784 2 view .LVU785
 3393 0ce0 2220     		movs	r0, #34
 3394 0ce2 FFF7FEFF 		bl	Write_Data_int
 3395              	.LVL647:
 785:Core/Src/er_tft040.c **** 	Write_Command(0xD412);
 3396              		.loc 1 785 2 view .LVU786
 3397 0ce6 8948     		ldr	r0, .L118+228
 3398 0ce8 FFF7FEFF 		bl	Write_Command
 3399              	.LVL648:
 786:Core/Src/er_tft040.c **** 	Write_Data_int(0x01);
 3400              		.loc 1 786 2 view .LVU787
 3401 0cec 0120     		movs	r0, #1
 3402 0cee FFF7FEFF 		bl	Write_Data_int
 3403              	.LVL649:
 787:Core/Src/er_tft040.c **** 	Write_Command(0xD413);
 3404              		.loc 1 787 2 view .LVU788
 3405 0cf2 8748     		ldr	r0, .L118+232
 3406 0cf4 FFF7FEFF 		bl	Write_Command
 3407              	.LVL650:
 788:Core/Src/er_tft040.c **** 	Write_Data_int(0x64);
 3408              		.loc 1 788 2 view .LVU789
 3409 0cf8 6420     		movs	r0, #100
 3410 0cfa FFF7FEFF 		bl	Write_Data_int
 3411              	.LVL651:
 789:Core/Src/er_tft040.c **** 	Write_Command(0xD414);
 3412              		.loc 1 789 2 view .LVU790
 3413 0cfe 8548     		ldr	r0, .L118+236
 3414 0d00 FFF7FEFF 		bl	Write_Command
 3415              	.LVL652:
 790:Core/Src/er_tft040.c **** 	Write_Data_int(0x01);
 3416              		.loc 1 790 2 view .LVU791
 3417 0d04 0120     		movs	r0, #1
 3418 0d06 FFF7FEFF 		bl	Write_Data_int
 3419              	.LVL653:
 791:Core/Src/er_tft040.c **** 	Write_Command(0xD415);
 3420              		.loc 1 791 2 view .LVU792
 3421 0d0a 8348     		ldr	r0, .L118+240
 3422 0d0c FFF7FEFF 		bl	Write_Command
 3423              	.LVL654:
 792:Core/Src/er_tft040.c **** 	Write_Data_int(0x92);
 3424              		.loc 1 792 2 view .LVU793
 3425 0d10 9220     		movs	r0, #146
 3426 0d12 FFF7FEFF 		bl	Write_Data_int
 3427              	.LVL655:
 793:Core/Src/er_tft040.c **** 	Write_Command(0xD416);
 3428              		.loc 1 793 2 view .LVU794
 3429 0d16 8148     		ldr	r0, .L118+244
ARM GAS  /var/folders/_5/7dt5dlyd7598cb98063hl5tr0000gn/T//ccgSyEuv.s 			page 79


 3430 0d18 FFF7FEFF 		bl	Write_Command
 3431              	.LVL656:
 794:Core/Src/er_tft040.c **** 	Write_Data_int(0x01);
 3432              		.loc 1 794 2 view .LVU795
 3433 0d1c 0120     		movs	r0, #1
 3434 0d1e FFF7FEFF 		bl	Write_Data_int
 3435              	.LVL657:
 795:Core/Src/er_tft040.c **** 	Write_Command(0xD417);
 3436              		.loc 1 795 2 view .LVU796
 3437 0d22 7F48     		ldr	r0, .L118+248
 3438 0d24 FFF7FEFF 		bl	Write_Command
 3439              	.LVL658:
 796:Core/Src/er_tft040.c **** 	Write_Data_int(0xD4);
 3440              		.loc 1 796 2 view .LVU797
 3441 0d28 D420     		movs	r0, #212
 3442 0d2a FFF7FEFF 		bl	Write_Data_int
 3443              	.LVL659:
 797:Core/Src/er_tft040.c **** 	Write_Command(0xD418);
 3444              		.loc 1 797 2 view .LVU798
 3445 0d2e 7D48     		ldr	r0, .L118+252
 3446 0d30 FFF7FEFF 		bl	Write_Command
 3447              	.LVL660:
 798:Core/Src/er_tft040.c **** 	Write_Data_int(0x02);
 3448              		.loc 1 798 2 view .LVU799
 3449 0d34 0220     		movs	r0, #2
 3450 0d36 FFF7FEFF 		bl	Write_Data_int
 3451              	.LVL661:
 799:Core/Src/er_tft040.c **** 	Write_Command(0xD419);
 3452              		.loc 1 799 2 view .LVU800
 3453 0d3a 7B48     		ldr	r0, .L118+256
 3454 0d3c FFF7FEFF 		bl	Write_Command
 3455              	.LVL662:
 800:Core/Src/er_tft040.c **** 	Write_Data_int(0x07);
 3456              		.loc 1 800 2 view .LVU801
 3457 0d40 0720     		movs	r0, #7
 3458 0d42 FFF7FEFF 		bl	Write_Data_int
 3459              	.LVL663:
 801:Core/Src/er_tft040.c **** 	Write_Command(0xD41A);
 3460              		.loc 1 801 2 view .LVU802
 3461 0d46 7948     		ldr	r0, .L118+260
 3462 0d48 FFF7FEFF 		bl	Write_Command
 3463              	.LVL664:
 802:Core/Src/er_tft040.c **** 	Write_Data_int(0x02);
 3464              		.loc 1 802 2 view .LVU803
 3465 0d4c 0220     		movs	r0, #2
 3466 0d4e FFF7FEFF 		bl	Write_Data_int
 3467              	.LVL665:
 803:Core/Src/er_tft040.c **** 	Write_Command(0xD41B);
 3468              		.loc 1 803 2 view .LVU804
 3469 0d52 7748     		ldr	r0, .L118+264
 3470 0d54 FFF7FEFF 		bl	Write_Command
 3471              	.LVL666:
 804:Core/Src/er_tft040.c **** 	Write_Data_int(0x08);
 3472              		.loc 1 804 2 view .LVU805
 3473 0d58 0820     		movs	r0, #8
 3474 0d5a FFF7FEFF 		bl	Write_Data_int
 3475              	.LVL667:
ARM GAS  /var/folders/_5/7dt5dlyd7598cb98063hl5tr0000gn/T//ccgSyEuv.s 			page 80


 805:Core/Src/er_tft040.c **** 	Write_Command(0xD41C);
 3476              		.loc 1 805 2 view .LVU806
 3477 0d5e 7548     		ldr	r0, .L118+268
 3478 0d60 FFF7FEFF 		bl	Write_Command
 3479              	.LVL668:
 806:Core/Src/er_tft040.c **** 	Write_Data_int(0x02);
 3480              		.loc 1 806 2 view .LVU807
 3481 0d64 0220     		movs	r0, #2
 3482 0d66 FFF7FEFF 		bl	Write_Data_int
 3483              	.LVL669:
 807:Core/Src/er_tft040.c **** 	Write_Command(0xD41D);
 3484              		.loc 1 807 2 view .LVU808
 3485 0d6a 7348     		ldr	r0, .L118+272
 3486 0d6c FFF7FEFF 		bl	Write_Command
 3487              	.LVL670:
 808:Core/Src/er_tft040.c **** 	Write_Data_int(0x34);
 3488              		.loc 1 808 2 view .LVU809
 3489 0d70 3420     		movs	r0, #52
 3490 0d72 FFF7FEFF 		bl	Write_Data_int
 3491              	.LVL671:
 809:Core/Src/er_tft040.c **** 	Write_Command(0xD41E);
 3492              		.loc 1 809 2 view .LVU810
 3493 0d76 7148     		ldr	r0, .L118+276
 3494 0d78 FFF7FEFF 		bl	Write_Command
 3495              	.LVL672:
 810:Core/Src/er_tft040.c **** 	Write_Data_int(0x02);
 3496              		.loc 1 810 2 view .LVU811
 3497 0d7c 0220     		movs	r0, #2
 3498 0d7e FFF7FEFF 		bl	Write_Data_int
 3499              	.LVL673:
 811:Core/Src/er_tft040.c **** 	Write_Command(0xD41F);
 3500              		.loc 1 811 2 view .LVU812
 3501 0d82 6F48     		ldr	r0, .L118+280
 3502 0d84 FFF7FEFF 		bl	Write_Command
 3503              	.LVL674:
 812:Core/Src/er_tft040.c **** 	Write_Data_int(0x5F); //
 3504              		.loc 1 812 2 view .LVU813
 3505 0d88 5F20     		movs	r0, #95
 3506 0d8a FFF7FEFF 		bl	Write_Data_int
 3507              	.LVL675:
 813:Core/Src/er_tft040.c **** 	Write_Command(0xD420);
 3508              		.loc 1 813 2 view .LVU814
 3509 0d8e 6D48     		ldr	r0, .L118+284
 3510 0d90 FFF7FEFF 		bl	Write_Command
 3511              	.LVL676:
 814:Core/Src/er_tft040.c **** 	Write_Data_int(0x02);
 3512              		.loc 1 814 2 view .LVU815
 3513 0d94 0220     		movs	r0, #2
 3514 0d96 FFF7FEFF 		bl	Write_Data_int
 3515              	.LVL677:
 815:Core/Src/er_tft040.c **** 	Write_Command(0xD421);
 3516              		.loc 1 815 2 view .LVU816
 3517 0d9a 6B48     		ldr	r0, .L118+288
 3518 0d9c FFF7FEFF 		bl	Write_Command
 3519              	.LVL678:
 816:Core/Src/er_tft040.c **** 	Write_Data_int(0x78);
 3520              		.loc 1 816 2 view .LVU817
ARM GAS  /var/folders/_5/7dt5dlyd7598cb98063hl5tr0000gn/T//ccgSyEuv.s 			page 81


 3521 0da0 7820     		movs	r0, #120
 3522 0da2 FFF7FEFF 		bl	Write_Data_int
 3523              	.LVL679:
 817:Core/Src/er_tft040.c **** 	Write_Command(0xD422);
 3524              		.loc 1 817 2 view .LVU818
 3525 0da6 6948     		ldr	r0, .L118+292
 3526 0da8 FFF7FEFF 		bl	Write_Command
 3527              	.LVL680:
 818:Core/Src/er_tft040.c **** 	Write_Data_int(0x02);
 3528              		.loc 1 818 2 view .LVU819
 3529 0dac 0220     		movs	r0, #2
 3530 0dae FFF7FEFF 		bl	Write_Data_int
 3531              	.LVL681:
 819:Core/Src/er_tft040.c **** 	Write_Command(0xD423);
 3532              		.loc 1 819 2 view .LVU820
 3533 0db2 6748     		ldr	r0, .L118+296
 3534 0db4 FFF7FEFF 		bl	Write_Command
 3535              	.LVL682:
 820:Core/Src/er_tft040.c **** 	Write_Data_int(0x94);
 3536              		.loc 1 820 2 view .LVU821
 3537 0db8 9420     		movs	r0, #148
 3538 0dba FFF7FEFF 		bl	Write_Data_int
 3539              	.LVL683:
 821:Core/Src/er_tft040.c **** 	Write_Command(0xD424);
 3540              		.loc 1 821 2 view .LVU822
 3541 0dbe 6548     		ldr	r0, .L118+300
 3542 0dc0 FFF7FEFF 		bl	Write_Command
 3543              	.LVL684:
 822:Core/Src/er_tft040.c **** 	Write_Data_int(0x02);
 3544              		.loc 1 822 2 view .LVU823
 3545 0dc4 0220     		movs	r0, #2
 3546 0dc6 FFF7FEFF 		bl	Write_Data_int
 3547              	.LVL685:
 823:Core/Src/er_tft040.c **** 	Write_Command(0xD425);
 3548              		.loc 1 823 2 view .LVU824
 3549 0dca 6348     		ldr	r0, .L118+304
 3550 0dcc FFF7FEFF 		bl	Write_Command
 3551              	.LVL686:
 824:Core/Src/er_tft040.c **** 	Write_Data_int(0xA6);
 3552              		.loc 1 824 2 view .LVU825
 3553 0dd0 A620     		movs	r0, #166
 3554 0dd2 FFF7FEFF 		bl	Write_Data_int
 3555              	.LVL687:
 825:Core/Src/er_tft040.c **** 	Write_Command(0xD426);
 3556              		.loc 1 825 2 view .LVU826
 3557 0dd6 6148     		ldr	r0, .L118+308
 3558 0dd8 FFF7FEFF 		bl	Write_Command
 3559              	.LVL688:
 826:Core/Src/er_tft040.c **** 	Write_Data_int(0x02);
 3560              		.loc 1 826 2 view .LVU827
 3561 0ddc 0220     		movs	r0, #2
 3562 0dde FFF7FEFF 		bl	Write_Data_int
 3563              	.LVL689:
 827:Core/Src/er_tft040.c **** 	Write_Command(0xD427);
 3564              		.loc 1 827 2 view .LVU828
 3565 0de2 5F48     		ldr	r0, .L118+312
 3566 0de4 FFF7FEFF 		bl	Write_Command
ARM GAS  /var/folders/_5/7dt5dlyd7598cb98063hl5tr0000gn/T//ccgSyEuv.s 			page 82


 3567              	.LVL690:
 828:Core/Src/er_tft040.c **** 	Write_Data_int(0xBB);
 3568              		.loc 1 828 2 view .LVU829
 3569 0de8 BB20     		movs	r0, #187
 3570 0dea FFF7FEFF 		bl	Write_Data_int
 3571              	.LVL691:
 829:Core/Src/er_tft040.c **** 	Write_Command(0xD428);
 3572              		.loc 1 829 2 view .LVU830
 3573 0dee 5D48     		ldr	r0, .L118+316
 3574 0df0 FFF7FEFF 		bl	Write_Command
 3575              	.LVL692:
 830:Core/Src/er_tft040.c **** 	Write_Data_int(0x02);
 3576              		.loc 1 830 2 view .LVU831
 3577 0df4 0220     		movs	r0, #2
 3578 0df6 FFF7FEFF 		bl	Write_Data_int
 3579              	.LVL693:
 831:Core/Src/er_tft040.c **** 	Write_Command(0xD429);
 3580              		.loc 1 831 2 view .LVU832
 3581 0dfa 5B48     		ldr	r0, .L118+320
 3582 0dfc FFF7FEFF 		bl	Write_Command
 3583              	.LVL694:
 832:Core/Src/er_tft040.c **** 	Write_Data_int(0xCA);
 3584              		.loc 1 832 2 view .LVU833
 3585 0e00 CA20     		movs	r0, #202
 3586 0e02 FFF7FEFF 		bl	Write_Data_int
 3587              	.LVL695:
 833:Core/Src/er_tft040.c **** 	Write_Command(0xD42A);
 3588              		.loc 1 833 2 view .LVU834
 3589 0e06 5948     		ldr	r0, .L118+324
 3590 0e08 FFF7FEFF 		bl	Write_Command
 3591              	.LVL696:
 834:Core/Src/er_tft040.c **** 	Write_Data_int(0x02);
 3592              		.loc 1 834 2 view .LVU835
 3593 0e0c 0220     		movs	r0, #2
 3594 0e0e FFF7FEFF 		bl	Write_Data_int
 3595              	.LVL697:
 835:Core/Src/er_tft040.c **** 	Write_Command(0xD42B);
 3596              		.loc 1 835 2 view .LVU836
 3597 0e12 5748     		ldr	r0, .L118+328
 3598 0e14 FFF7FEFF 		bl	Write_Command
 3599              	.LVL698:
 836:Core/Src/er_tft040.c **** 	Write_Data_int(0xDB);
 3600              		.loc 1 836 2 view .LVU837
 3601 0e18 DB20     		movs	r0, #219
 3602 0e1a FFF7FEFF 		bl	Write_Data_int
 3603              	.LVL699:
 837:Core/Src/er_tft040.c **** 	Write_Command(0xD42C);
 3604              		.loc 1 837 2 view .LVU838
 3605 0e1e 5548     		ldr	r0, .L118+332
 3606 0e20 FFF7FEFF 		bl	Write_Command
 3607              	.LVL700:
 3608 0e24 A8E0     		b	.L119
 3609              	.L120:
 3610 0e26 C046     		.align	2
 3611              	.L118:
 3612 0e28 0CD30000 		.word	54028
 3613 0e2c 0DD30000 		.word	54029
ARM GAS  /var/folders/_5/7dt5dlyd7598cb98063hl5tr0000gn/T//ccgSyEuv.s 			page 83


 3614 0e30 0ED30000 		.word	54030
 3615 0e34 0FD30000 		.word	54031
 3616 0e38 10D30000 		.word	54032
 3617 0e3c 11D30000 		.word	54033
 3618 0e40 12D30000 		.word	54034
 3619 0e44 13D30000 		.word	54035
 3620 0e48 14D30000 		.word	54036
 3621 0e4c 15D30000 		.word	54037
 3622 0e50 16D30000 		.word	54038
 3623 0e54 17D30000 		.word	54039
 3624 0e58 18D30000 		.word	54040
 3625 0e5c 19D30000 		.word	54041
 3626 0e60 1AD30000 		.word	54042
 3627 0e64 1BD30000 		.word	54043
 3628 0e68 1CD30000 		.word	54044
 3629 0e6c 1DD30000 		.word	54045
 3630 0e70 1ED30000 		.word	54046
 3631 0e74 1FD30000 		.word	54047
 3632 0e78 20D30000 		.word	54048
 3633 0e7c 21D30000 		.word	54049
 3634 0e80 22D30000 		.word	54050
 3635 0e84 23D30000 		.word	54051
 3636 0e88 24D30000 		.word	54052
 3637 0e8c 25D30000 		.word	54053
 3638 0e90 26D30000 		.word	54054
 3639 0e94 27D30000 		.word	54055
 3640 0e98 28D30000 		.word	54056
 3641 0e9c 29D30000 		.word	54057
 3642 0ea0 2AD30000 		.word	54058
 3643 0ea4 2BD30000 		.word	54059
 3644 0ea8 2CD30000 		.word	54060
 3645 0eac 2DD30000 		.word	54061
 3646 0eb0 2ED30000 		.word	54062
 3647 0eb4 2FD30000 		.word	54063
 3648 0eb8 30D30000 		.word	54064
 3649 0ebc 31D30000 		.word	54065
 3650 0ec0 32D30000 		.word	54066
 3651 0ec4 33D30000 		.word	54067
 3652 0ec8 01D40000 		.word	54273
 3653 0ecc 02D40000 		.word	54274
 3654 0ed0 03D40000 		.word	54275
 3655 0ed4 04D40000 		.word	54276
 3656 0ed8 05D40000 		.word	54277
 3657 0edc 06D40000 		.word	54278
 3658 0ee0 07D40000 		.word	54279
 3659 0ee4 08D40000 		.word	54280
 3660 0ee8 09D40000 		.word	54281
 3661 0eec 0AD40000 		.word	54282
 3662 0ef0 0BD40000 		.word	54283
 3663 0ef4 0CD40000 		.word	54284
 3664 0ef8 0DD40000 		.word	54285
 3665 0efc 0ED40000 		.word	54286
 3666 0f00 0FD40000 		.word	54287
 3667 0f04 10D40000 		.word	54288
 3668 0f08 11D40000 		.word	54289
 3669 0f0c 12D40000 		.word	54290
 3670 0f10 13D40000 		.word	54291
ARM GAS  /var/folders/_5/7dt5dlyd7598cb98063hl5tr0000gn/T//ccgSyEuv.s 			page 84


 3671 0f14 14D40000 		.word	54292
 3672 0f18 15D40000 		.word	54293
 3673 0f1c 16D40000 		.word	54294
 3674 0f20 17D40000 		.word	54295
 3675 0f24 18D40000 		.word	54296
 3676 0f28 19D40000 		.word	54297
 3677 0f2c 1AD40000 		.word	54298
 3678 0f30 1BD40000 		.word	54299
 3679 0f34 1CD40000 		.word	54300
 3680 0f38 1DD40000 		.word	54301
 3681 0f3c 1ED40000 		.word	54302
 3682 0f40 1FD40000 		.word	54303
 3683 0f44 20D40000 		.word	54304
 3684 0f48 21D40000 		.word	54305
 3685 0f4c 22D40000 		.word	54306
 3686 0f50 23D40000 		.word	54307
 3687 0f54 24D40000 		.word	54308
 3688 0f58 25D40000 		.word	54309
 3689 0f5c 26D40000 		.word	54310
 3690 0f60 27D40000 		.word	54311
 3691 0f64 28D40000 		.word	54312
 3692 0f68 29D40000 		.word	54313
 3693 0f6c 2AD40000 		.word	54314
 3694 0f70 2BD40000 		.word	54315
 3695 0f74 2CD40000 		.word	54316
 3696              	.L119:
 838:Core/Src/er_tft040.c **** 	Write_Data_int(0x02);
 3697              		.loc 1 838 2 view .LVU839
 3698 0f78 0220     		movs	r0, #2
 3699 0f7a FFF7FEFF 		bl	Write_Data_int
 3700              	.LVL701:
 839:Core/Src/er_tft040.c **** 	Write_Command(0xD42D);
 3701              		.loc 1 839 2 view .LVU840
 3702 0f7e FD48     		ldr	r0, .L121
 3703 0f80 FFF7FEFF 		bl	Write_Command
 3704              	.LVL702:
 840:Core/Src/er_tft040.c **** 	Write_Data_int(0xE8);
 3705              		.loc 1 840 2 view .LVU841
 3706 0f84 E820     		movs	r0, #232
 3707 0f86 FFF7FEFF 		bl	Write_Data_int
 3708              	.LVL703:
 841:Core/Src/er_tft040.c **** 	Write_Command(0xD42E);
 3709              		.loc 1 841 2 view .LVU842
 3710 0f8a FB48     		ldr	r0, .L121+4
 3711 0f8c FFF7FEFF 		bl	Write_Command
 3712              	.LVL704:
 842:Core/Src/er_tft040.c **** 	Write_Data_int(0x02);
 3713              		.loc 1 842 2 view .LVU843
 3714 0f90 0220     		movs	r0, #2
 3715 0f92 FFF7FEFF 		bl	Write_Data_int
 3716              	.LVL705:
 843:Core/Src/er_tft040.c **** 	Write_Command(0xD42F);
 3717              		.loc 1 843 2 view .LVU844
 3718 0f96 F948     		ldr	r0, .L121+8
 3719 0f98 FFF7FEFF 		bl	Write_Command
 3720              	.LVL706:
 844:Core/Src/er_tft040.c **** 	Write_Data_int(0xF9); //
ARM GAS  /var/folders/_5/7dt5dlyd7598cb98063hl5tr0000gn/T//ccgSyEuv.s 			page 85


 3721              		.loc 1 844 2 view .LVU845
 3722 0f9c F920     		movs	r0, #249
 3723 0f9e FFF7FEFF 		bl	Write_Data_int
 3724              	.LVL707:
 845:Core/Src/er_tft040.c **** 	Write_Command(0xD430);
 3725              		.loc 1 845 2 view .LVU846
 3726 0fa2 F748     		ldr	r0, .L121+12
 3727 0fa4 FFF7FEFF 		bl	Write_Command
 3728              	.LVL708:
 846:Core/Src/er_tft040.c **** 	Write_Data_int(0x03);
 3729              		.loc 1 846 2 view .LVU847
 3730 0fa8 0320     		movs	r0, #3
 3731 0faa FFF7FEFF 		bl	Write_Data_int
 3732              	.LVL709:
 847:Core/Src/er_tft040.c **** 	Write_Command(0xD431);
 3733              		.loc 1 847 2 view .LVU848
 3734 0fae F548     		ldr	r0, .L121+16
 3735 0fb0 FFF7FEFF 		bl	Write_Command
 3736              	.LVL710:
 848:Core/Src/er_tft040.c **** 	Write_Data_int(0x1F);
 3737              		.loc 1 848 2 view .LVU849
 3738 0fb4 1F20     		movs	r0, #31
 3739 0fb6 FFF7FEFF 		bl	Write_Data_int
 3740              	.LVL711:
 849:Core/Src/er_tft040.c **** 	Write_Command(0xD432);
 3741              		.loc 1 849 2 view .LVU850
 3742 0fba F348     		ldr	r0, .L121+20
 3743 0fbc FFF7FEFF 		bl	Write_Command
 3744              	.LVL712:
 850:Core/Src/er_tft040.c **** 	Write_Data_int(0x03);
 3745              		.loc 1 850 2 view .LVU851
 3746 0fc0 0320     		movs	r0, #3
 3747 0fc2 FFF7FEFF 		bl	Write_Data_int
 3748              	.LVL713:
 851:Core/Src/er_tft040.c **** 	Write_Command(0xD433);
 3749              		.loc 1 851 2 view .LVU852
 3750 0fc6 F148     		ldr	r0, .L121+24
 3751 0fc8 FFF7FEFF 		bl	Write_Command
 3752              	.LVL714:
 852:Core/Src/er_tft040.c **** 	Write_Data_int(0x7F);
 3753              		.loc 1 852 2 view .LVU853
 3754 0fcc 7F20     		movs	r0, #127
 3755 0fce FFF7FEFF 		bl	Write_Data_int
 3756              	.LVL715:
 853:Core/Src/er_tft040.c **** 
 854:Core/Src/er_tft040.c **** 	Write_Command(0xD500);
 3757              		.loc 1 854 2 view .LVU854
 3758 0fd2 D520     		movs	r0, #213
 3759 0fd4 0002     		lsls	r0, r0, #8
 3760 0fd6 FFF7FEFF 		bl	Write_Command
 3761              	.LVL716:
 855:Core/Src/er_tft040.c **** 	Write_Data_int(0x00);
 3762              		.loc 1 855 2 view .LVU855
 3763 0fda 0020     		movs	r0, #0
 3764 0fdc FFF7FEFF 		bl	Write_Data_int
 3765              	.LVL717:
 856:Core/Src/er_tft040.c **** 	Write_Command(0xD501);
ARM GAS  /var/folders/_5/7dt5dlyd7598cb98063hl5tr0000gn/T//ccgSyEuv.s 			page 86


 3766              		.loc 1 856 2 view .LVU856
 3767 0fe0 EB48     		ldr	r0, .L121+28
 3768 0fe2 FFF7FEFF 		bl	Write_Command
 3769              	.LVL718:
 857:Core/Src/er_tft040.c **** 	Write_Data_int(0x2D);
 3770              		.loc 1 857 2 view .LVU857
 3771 0fe6 2D20     		movs	r0, #45
 3772 0fe8 FFF7FEFF 		bl	Write_Data_int
 3773              	.LVL719:
 858:Core/Src/er_tft040.c **** 	Write_Command(0xD502);
 3774              		.loc 1 858 2 view .LVU858
 3775 0fec E948     		ldr	r0, .L121+32
 3776 0fee FFF7FEFF 		bl	Write_Command
 3777              	.LVL720:
 859:Core/Src/er_tft040.c **** 	Write_Data_int(0x00);
 3778              		.loc 1 859 2 view .LVU859
 3779 0ff2 0020     		movs	r0, #0
 3780 0ff4 FFF7FEFF 		bl	Write_Data_int
 3781              	.LVL721:
 860:Core/Src/er_tft040.c **** 	Write_Command(0xD503);
 3782              		.loc 1 860 2 view .LVU860
 3783 0ff8 E748     		ldr	r0, .L121+36
 3784 0ffa FFF7FEFF 		bl	Write_Command
 3785              	.LVL722:
 861:Core/Src/er_tft040.c **** 	Write_Data_int(0x2E);
 3786              		.loc 1 861 2 view .LVU861
 3787 0ffe 2E20     		movs	r0, #46
 3788 1000 FFF7FEFF 		bl	Write_Data_int
 3789              	.LVL723:
 862:Core/Src/er_tft040.c **** 	Write_Command(0xD504);
 3790              		.loc 1 862 2 view .LVU862
 3791 1004 E548     		ldr	r0, .L121+40
 3792 1006 FFF7FEFF 		bl	Write_Command
 3793              	.LVL724:
 863:Core/Src/er_tft040.c **** 	Write_Data_int(0x00);
 3794              		.loc 1 863 2 view .LVU863
 3795 100a 0020     		movs	r0, #0
 3796 100c FFF7FEFF 		bl	Write_Data_int
 3797              	.LVL725:
 864:Core/Src/er_tft040.c **** 	Write_Command(0xD505);
 3798              		.loc 1 864 2 view .LVU864
 3799 1010 E348     		ldr	r0, .L121+44
 3800 1012 FFF7FEFF 		bl	Write_Command
 3801              	.LVL726:
 865:Core/Src/er_tft040.c **** 	Write_Data_int(0x32);
 3802              		.loc 1 865 2 view .LVU865
 3803 1016 3220     		movs	r0, #50
 3804 1018 FFF7FEFF 		bl	Write_Data_int
 3805              	.LVL727:
 866:Core/Src/er_tft040.c **** 	Write_Command(0xD506);
 3806              		.loc 1 866 2 view .LVU866
 3807 101c E148     		ldr	r0, .L121+48
 3808 101e FFF7FEFF 		bl	Write_Command
 3809              	.LVL728:
 867:Core/Src/er_tft040.c **** 	Write_Data_int(0x00);
 3810              		.loc 1 867 2 view .LVU867
 3811 1022 0020     		movs	r0, #0
ARM GAS  /var/folders/_5/7dt5dlyd7598cb98063hl5tr0000gn/T//ccgSyEuv.s 			page 87


 3812 1024 FFF7FEFF 		bl	Write_Data_int
 3813              	.LVL729:
 868:Core/Src/er_tft040.c **** 	Write_Command(0xD507);
 3814              		.loc 1 868 2 view .LVU868
 3815 1028 DF48     		ldr	r0, .L121+52
 3816 102a FFF7FEFF 		bl	Write_Command
 3817              	.LVL730:
 869:Core/Src/er_tft040.c **** 	Write_Data_int(0x44);
 3818              		.loc 1 869 2 view .LVU869
 3819 102e 4420     		movs	r0, #68
 3820 1030 FFF7FEFF 		bl	Write_Data_int
 3821              	.LVL731:
 870:Core/Src/er_tft040.c **** 	Write_Command(0xD508);
 3822              		.loc 1 870 2 view .LVU870
 3823 1034 DD48     		ldr	r0, .L121+56
 3824 1036 FFF7FEFF 		bl	Write_Command
 3825              	.LVL732:
 871:Core/Src/er_tft040.c **** 	Write_Data_int(0x00);
 3826              		.loc 1 871 2 view .LVU871
 3827 103a 0020     		movs	r0, #0
 3828 103c FFF7FEFF 		bl	Write_Data_int
 3829              	.LVL733:
 872:Core/Src/er_tft040.c **** 	Write_Command(0xD509);
 3830              		.loc 1 872 2 view .LVU872
 3831 1040 DB48     		ldr	r0, .L121+60
 3832 1042 FFF7FEFF 		bl	Write_Command
 3833              	.LVL734:
 873:Core/Src/er_tft040.c **** 	Write_Data_int(0x53);
 3834              		.loc 1 873 2 view .LVU873
 3835 1046 5320     		movs	r0, #83
 3836 1048 FFF7FEFF 		bl	Write_Data_int
 3837              	.LVL735:
 874:Core/Src/er_tft040.c **** 	Write_Command(0xD50A);
 3838              		.loc 1 874 2 view .LVU874
 3839 104c D948     		ldr	r0, .L121+64
 3840 104e FFF7FEFF 		bl	Write_Command
 3841              	.LVL736:
 875:Core/Src/er_tft040.c **** 	Write_Data_int(0x00);
 3842              		.loc 1 875 2 view .LVU875
 3843 1052 0020     		movs	r0, #0
 3844 1054 FFF7FEFF 		bl	Write_Data_int
 3845              	.LVL737:
 876:Core/Src/er_tft040.c **** 	Write_Command(0xD50B);
 3846              		.loc 1 876 2 view .LVU876
 3847 1058 D748     		ldr	r0, .L121+68
 3848 105a FFF7FEFF 		bl	Write_Command
 3849              	.LVL738:
 877:Core/Src/er_tft040.c **** 	Write_Data_int(0x88);
 3850              		.loc 1 877 2 view .LVU877
 3851 105e 8820     		movs	r0, #136
 3852 1060 FFF7FEFF 		bl	Write_Data_int
 3853              	.LVL739:
 878:Core/Src/er_tft040.c **** 	Write_Command(0xD50C);
 3854              		.loc 1 878 2 view .LVU878
 3855 1064 D548     		ldr	r0, .L121+72
 3856 1066 FFF7FEFF 		bl	Write_Command
 3857              	.LVL740:
ARM GAS  /var/folders/_5/7dt5dlyd7598cb98063hl5tr0000gn/T//ccgSyEuv.s 			page 88


 879:Core/Src/er_tft040.c **** 	Write_Data_int(0x00);
 3858              		.loc 1 879 2 view .LVU879
 3859 106a 0020     		movs	r0, #0
 3860 106c FFF7FEFF 		bl	Write_Data_int
 3861              	.LVL741:
 880:Core/Src/er_tft040.c **** 	Write_Command(0xD50D);
 3862              		.loc 1 880 2 view .LVU880
 3863 1070 D348     		ldr	r0, .L121+76
 3864 1072 FFF7FEFF 		bl	Write_Command
 3865              	.LVL742:
 881:Core/Src/er_tft040.c **** 	Write_Data_int(0xB6);
 3866              		.loc 1 881 2 view .LVU881
 3867 1076 B620     		movs	r0, #182
 3868 1078 FFF7FEFF 		bl	Write_Data_int
 3869              	.LVL743:
 882:Core/Src/er_tft040.c **** 	Write_Command(0xD50E);
 3870              		.loc 1 882 2 view .LVU882
 3871 107c D148     		ldr	r0, .L121+80
 3872 107e FFF7FEFF 		bl	Write_Command
 3873              	.LVL744:
 883:Core/Src/er_tft040.c **** 	Write_Data_int(0x00);
 3874              		.loc 1 883 2 view .LVU883
 3875 1082 0020     		movs	r0, #0
 3876 1084 FFF7FEFF 		bl	Write_Data_int
 3877              	.LVL745:
 884:Core/Src/er_tft040.c **** 	Write_Command(0xD50F);
 3878              		.loc 1 884 2 view .LVU884
 3879 1088 CF48     		ldr	r0, .L121+84
 3880 108a FFF7FEFF 		bl	Write_Command
 3881              	.LVL746:
 885:Core/Src/er_tft040.c **** 	Write_Data_int(0xF3); //
 3882              		.loc 1 885 2 view .LVU885
 3883 108e F320     		movs	r0, #243
 3884 1090 FFF7FEFF 		bl	Write_Data_int
 3885              	.LVL747:
 886:Core/Src/er_tft040.c **** 	Write_Command(0xD510);
 3886              		.loc 1 886 2 view .LVU886
 3887 1094 CD48     		ldr	r0, .L121+88
 3888 1096 FFF7FEFF 		bl	Write_Command
 3889              	.LVL748:
 887:Core/Src/er_tft040.c **** 	Write_Data_int(0x01);
 3890              		.loc 1 887 2 view .LVU887
 3891 109a 0120     		movs	r0, #1
 3892 109c FFF7FEFF 		bl	Write_Data_int
 3893              	.LVL749:
 888:Core/Src/er_tft040.c **** 	Write_Command(0xD511);
 3894              		.loc 1 888 2 view .LVU888
 3895 10a0 CB48     		ldr	r0, .L121+92
 3896 10a2 FFF7FEFF 		bl	Write_Command
 3897              	.LVL750:
 889:Core/Src/er_tft040.c **** 	Write_Data_int(0x22);
 3898              		.loc 1 889 2 view .LVU889
 3899 10a6 2220     		movs	r0, #34
 3900 10a8 FFF7FEFF 		bl	Write_Data_int
 3901              	.LVL751:
 890:Core/Src/er_tft040.c **** 	Write_Command(0xD512);
 3902              		.loc 1 890 2 view .LVU890
ARM GAS  /var/folders/_5/7dt5dlyd7598cb98063hl5tr0000gn/T//ccgSyEuv.s 			page 89


 3903 10ac C948     		ldr	r0, .L121+96
 3904 10ae FFF7FEFF 		bl	Write_Command
 3905              	.LVL752:
 891:Core/Src/er_tft040.c **** 	Write_Data_int(0x01);
 3906              		.loc 1 891 2 view .LVU891
 3907 10b2 0120     		movs	r0, #1
 3908 10b4 FFF7FEFF 		bl	Write_Data_int
 3909              	.LVL753:
 892:Core/Src/er_tft040.c **** 	Write_Command(0xD513);
 3910              		.loc 1 892 2 view .LVU892
 3911 10b8 C748     		ldr	r0, .L121+100
 3912 10ba FFF7FEFF 		bl	Write_Command
 3913              	.LVL754:
 893:Core/Src/er_tft040.c **** 	Write_Data_int(0x64);
 3914              		.loc 1 893 2 view .LVU893
 3915 10be 6420     		movs	r0, #100
 3916 10c0 FFF7FEFF 		bl	Write_Data_int
 3917              	.LVL755:
 894:Core/Src/er_tft040.c **** 	Write_Command(0xD514);
 3918              		.loc 1 894 2 view .LVU894
 3919 10c4 C548     		ldr	r0, .L121+104
 3920 10c6 FFF7FEFF 		bl	Write_Command
 3921              	.LVL756:
 895:Core/Src/er_tft040.c **** 	Write_Data_int(0x01);
 3922              		.loc 1 895 2 view .LVU895
 3923 10ca 0120     		movs	r0, #1
 3924 10cc FFF7FEFF 		bl	Write_Data_int
 3925              	.LVL757:
 896:Core/Src/er_tft040.c **** 	Write_Command(0xD515);
 3926              		.loc 1 896 2 view .LVU896
 3927 10d0 C348     		ldr	r0, .L121+108
 3928 10d2 FFF7FEFF 		bl	Write_Command
 3929              	.LVL758:
 897:Core/Src/er_tft040.c **** 	Write_Data_int(0x92);
 3930              		.loc 1 897 2 view .LVU897
 3931 10d6 9220     		movs	r0, #146
 3932 10d8 FFF7FEFF 		bl	Write_Data_int
 3933              	.LVL759:
 898:Core/Src/er_tft040.c **** 	Write_Command(0xD516);
 3934              		.loc 1 898 2 view .LVU898
 3935 10dc C148     		ldr	r0, .L121+112
 3936 10de FFF7FEFF 		bl	Write_Command
 3937              	.LVL760:
 899:Core/Src/er_tft040.c **** 	Write_Data_int(0x01);
 3938              		.loc 1 899 2 view .LVU899
 3939 10e2 0120     		movs	r0, #1
 3940 10e4 FFF7FEFF 		bl	Write_Data_int
 3941              	.LVL761:
 900:Core/Src/er_tft040.c **** 	Write_Command(0xD517);
 3942              		.loc 1 900 2 view .LVU900
 3943 10e8 BF48     		ldr	r0, .L121+116
 3944 10ea FFF7FEFF 		bl	Write_Command
 3945              	.LVL762:
 901:Core/Src/er_tft040.c **** 	Write_Data_int(0xD4);
 3946              		.loc 1 901 2 view .LVU901
 3947 10ee D420     		movs	r0, #212
 3948 10f0 FFF7FEFF 		bl	Write_Data_int
ARM GAS  /var/folders/_5/7dt5dlyd7598cb98063hl5tr0000gn/T//ccgSyEuv.s 			page 90


 3949              	.LVL763:
 902:Core/Src/er_tft040.c **** 	Write_Command(0xD518);
 3950              		.loc 1 902 2 view .LVU902
 3951 10f4 BD48     		ldr	r0, .L121+120
 3952 10f6 FFF7FEFF 		bl	Write_Command
 3953              	.LVL764:
 903:Core/Src/er_tft040.c **** 	Write_Data_int(0x02);
 3954              		.loc 1 903 2 view .LVU903
 3955 10fa 0220     		movs	r0, #2
 3956 10fc FFF7FEFF 		bl	Write_Data_int
 3957              	.LVL765:
 904:Core/Src/er_tft040.c **** 	Write_Command(0xD519);
 3958              		.loc 1 904 2 view .LVU904
 3959 1100 BB48     		ldr	r0, .L121+124
 3960 1102 FFF7FEFF 		bl	Write_Command
 3961              	.LVL766:
 905:Core/Src/er_tft040.c **** 	Write_Data_int(0x07);
 3962              		.loc 1 905 2 view .LVU905
 3963 1106 0720     		movs	r0, #7
 3964 1108 FFF7FEFF 		bl	Write_Data_int
 3965              	.LVL767:
 906:Core/Src/er_tft040.c **** 	Write_Command(0xD51A);
 3966              		.loc 1 906 2 view .LVU906
 3967 110c B948     		ldr	r0, .L121+128
 3968 110e FFF7FEFF 		bl	Write_Command
 3969              	.LVL768:
 907:Core/Src/er_tft040.c **** 	Write_Data_int(0x02);
 3970              		.loc 1 907 2 view .LVU907
 3971 1112 0220     		movs	r0, #2
 3972 1114 FFF7FEFF 		bl	Write_Data_int
 3973              	.LVL769:
 908:Core/Src/er_tft040.c **** 	Write_Command(0xD51B);
 3974              		.loc 1 908 2 view .LVU908
 3975 1118 B748     		ldr	r0, .L121+132
 3976 111a FFF7FEFF 		bl	Write_Command
 3977              	.LVL770:
 909:Core/Src/er_tft040.c **** 	Write_Data_int(0x08);
 3978              		.loc 1 909 2 view .LVU909
 3979 111e 0820     		movs	r0, #8
 3980 1120 FFF7FEFF 		bl	Write_Data_int
 3981              	.LVL771:
 910:Core/Src/er_tft040.c **** 	Write_Command(0xD51C);
 3982              		.loc 1 910 2 view .LVU910
 3983 1124 B548     		ldr	r0, .L121+136
 3984 1126 FFF7FEFF 		bl	Write_Command
 3985              	.LVL772:
 911:Core/Src/er_tft040.c **** 	Write_Data_int(0x02);
 3986              		.loc 1 911 2 view .LVU911
 3987 112a 0220     		movs	r0, #2
 3988 112c FFF7FEFF 		bl	Write_Data_int
 3989              	.LVL773:
 912:Core/Src/er_tft040.c **** 	Write_Command(0xD51D);
 3990              		.loc 1 912 2 view .LVU912
 3991 1130 B348     		ldr	r0, .L121+140
 3992 1132 FFF7FEFF 		bl	Write_Command
 3993              	.LVL774:
 913:Core/Src/er_tft040.c **** 	Write_Data_int(0x34);
ARM GAS  /var/folders/_5/7dt5dlyd7598cb98063hl5tr0000gn/T//ccgSyEuv.s 			page 91


 3994              		.loc 1 913 2 view .LVU913
 3995 1136 3420     		movs	r0, #52
 3996 1138 FFF7FEFF 		bl	Write_Data_int
 3997              	.LVL775:
 914:Core/Src/er_tft040.c **** 	Write_Command(0xD51E);
 3998              		.loc 1 914 2 view .LVU914
 3999 113c B148     		ldr	r0, .L121+144
 4000 113e FFF7FEFF 		bl	Write_Command
 4001              	.LVL776:
 915:Core/Src/er_tft040.c **** 	Write_Data_int(0x02);
 4002              		.loc 1 915 2 view .LVU915
 4003 1142 0220     		movs	r0, #2
 4004 1144 FFF7FEFF 		bl	Write_Data_int
 4005              	.LVL777:
 916:Core/Src/er_tft040.c **** 	Write_Command(0xD51F);
 4006              		.loc 1 916 2 view .LVU916
 4007 1148 AF48     		ldr	r0, .L121+148
 4008 114a FFF7FEFF 		bl	Write_Command
 4009              	.LVL778:
 917:Core/Src/er_tft040.c **** 	Write_Data_int(0x5F); //
 4010              		.loc 1 917 2 view .LVU917
 4011 114e 5F20     		movs	r0, #95
 4012 1150 FFF7FEFF 		bl	Write_Data_int
 4013              	.LVL779:
 918:Core/Src/er_tft040.c **** 	Write_Command(0xD520);
 4014              		.loc 1 918 2 view .LVU918
 4015 1154 AD48     		ldr	r0, .L121+152
 4016 1156 FFF7FEFF 		bl	Write_Command
 4017              	.LVL780:
 919:Core/Src/er_tft040.c **** 	Write_Data_int(0x02);
 4018              		.loc 1 919 2 view .LVU919
 4019 115a 0220     		movs	r0, #2
 4020 115c FFF7FEFF 		bl	Write_Data_int
 4021              	.LVL781:
 920:Core/Src/er_tft040.c **** 	Write_Command(0xD521);
 4022              		.loc 1 920 2 view .LVU920
 4023 1160 AB48     		ldr	r0, .L121+156
 4024 1162 FFF7FEFF 		bl	Write_Command
 4025              	.LVL782:
 921:Core/Src/er_tft040.c **** 	Write_Data_int(0x78);
 4026              		.loc 1 921 2 view .LVU921
 4027 1166 7820     		movs	r0, #120
 4028 1168 FFF7FEFF 		bl	Write_Data_int
 4029              	.LVL783:
 922:Core/Src/er_tft040.c **** 	Write_Command(0xD522);
 4030              		.loc 1 922 2 view .LVU922
 4031 116c A948     		ldr	r0, .L121+160
 4032 116e FFF7FEFF 		bl	Write_Command
 4033              	.LVL784:
 923:Core/Src/er_tft040.c **** 	Write_Data_int(0x02);
 4034              		.loc 1 923 2 view .LVU923
 4035 1172 0220     		movs	r0, #2
 4036 1174 FFF7FEFF 		bl	Write_Data_int
 4037              	.LVL785:
 924:Core/Src/er_tft040.c **** 	Write_Command(0xD523);
 4038              		.loc 1 924 2 view .LVU924
 4039 1178 A748     		ldr	r0, .L121+164
ARM GAS  /var/folders/_5/7dt5dlyd7598cb98063hl5tr0000gn/T//ccgSyEuv.s 			page 92


 4040 117a FFF7FEFF 		bl	Write_Command
 4041              	.LVL786:
 925:Core/Src/er_tft040.c **** 	Write_Data_int(0x94);
 4042              		.loc 1 925 2 view .LVU925
 4043 117e 9420     		movs	r0, #148
 4044 1180 FFF7FEFF 		bl	Write_Data_int
 4045              	.LVL787:
 926:Core/Src/er_tft040.c **** 	Write_Command(0xD524);
 4046              		.loc 1 926 2 view .LVU926
 4047 1184 A548     		ldr	r0, .L121+168
 4048 1186 FFF7FEFF 		bl	Write_Command
 4049              	.LVL788:
 927:Core/Src/er_tft040.c **** 	Write_Data_int(0x02);
 4050              		.loc 1 927 2 view .LVU927
 4051 118a 0220     		movs	r0, #2
 4052 118c FFF7FEFF 		bl	Write_Data_int
 4053              	.LVL789:
 928:Core/Src/er_tft040.c **** 	Write_Command(0xD525);
 4054              		.loc 1 928 2 view .LVU928
 4055 1190 A348     		ldr	r0, .L121+172
 4056 1192 FFF7FEFF 		bl	Write_Command
 4057              	.LVL790:
 929:Core/Src/er_tft040.c **** 	Write_Data_int(0xA6);
 4058              		.loc 1 929 2 view .LVU929
 4059 1196 A620     		movs	r0, #166
 4060 1198 FFF7FEFF 		bl	Write_Data_int
 4061              	.LVL791:
 930:Core/Src/er_tft040.c **** 	Write_Command(0xD526);
 4062              		.loc 1 930 2 view .LVU930
 4063 119c A148     		ldr	r0, .L121+176
 4064 119e FFF7FEFF 		bl	Write_Command
 4065              	.LVL792:
 931:Core/Src/er_tft040.c **** 	Write_Data_int(0x02);
 4066              		.loc 1 931 2 view .LVU931
 4067 11a2 0220     		movs	r0, #2
 4068 11a4 FFF7FEFF 		bl	Write_Data_int
 4069              	.LVL793:
 932:Core/Src/er_tft040.c **** 	Write_Command(0xD527);
 4070              		.loc 1 932 2 view .LVU932
 4071 11a8 9F48     		ldr	r0, .L121+180
 4072 11aa FFF7FEFF 		bl	Write_Command
 4073              	.LVL794:
 933:Core/Src/er_tft040.c **** 	Write_Data_int(0xBB);
 4074              		.loc 1 933 2 view .LVU933
 4075 11ae BB20     		movs	r0, #187
 4076 11b0 FFF7FEFF 		bl	Write_Data_int
 4077              	.LVL795:
 934:Core/Src/er_tft040.c **** 	Write_Command(0xD528);
 4078              		.loc 1 934 2 view .LVU934
 4079 11b4 9D48     		ldr	r0, .L121+184
 4080 11b6 FFF7FEFF 		bl	Write_Command
 4081              	.LVL796:
 935:Core/Src/er_tft040.c **** 	Write_Data_int(0x02);
 4082              		.loc 1 935 2 view .LVU935
 4083 11ba 0220     		movs	r0, #2
 4084 11bc FFF7FEFF 		bl	Write_Data_int
 4085              	.LVL797:
ARM GAS  /var/folders/_5/7dt5dlyd7598cb98063hl5tr0000gn/T//ccgSyEuv.s 			page 93


 936:Core/Src/er_tft040.c **** 	Write_Command(0xD529);
 4086              		.loc 1 936 2 view .LVU936
 4087 11c0 9B48     		ldr	r0, .L121+188
 4088 11c2 FFF7FEFF 		bl	Write_Command
 4089              	.LVL798:
 937:Core/Src/er_tft040.c **** 	Write_Data_int(0xCA);
 4090              		.loc 1 937 2 view .LVU937
 4091 11c6 CA20     		movs	r0, #202
 4092 11c8 FFF7FEFF 		bl	Write_Data_int
 4093              	.LVL799:
 938:Core/Src/er_tft040.c **** 	Write_Command(0xD52A);
 4094              		.loc 1 938 2 view .LVU938
 4095 11cc 9948     		ldr	r0, .L121+192
 4096 11ce FFF7FEFF 		bl	Write_Command
 4097              	.LVL800:
 939:Core/Src/er_tft040.c **** 	Write_Data_int(0x02);
 4098              		.loc 1 939 2 view .LVU939
 4099 11d2 0220     		movs	r0, #2
 4100 11d4 FFF7FEFF 		bl	Write_Data_int
 4101              	.LVL801:
 940:Core/Src/er_tft040.c **** 	Write_Command(0xD52B);
 4102              		.loc 1 940 2 view .LVU940
 4103 11d8 9748     		ldr	r0, .L121+196
 4104 11da FFF7FEFF 		bl	Write_Command
 4105              	.LVL802:
 941:Core/Src/er_tft040.c **** 	Write_Data_int(0xDB);
 4106              		.loc 1 941 2 view .LVU941
 4107 11de DB20     		movs	r0, #219
 4108 11e0 FFF7FEFF 		bl	Write_Data_int
 4109              	.LVL803:
 942:Core/Src/er_tft040.c **** 	Write_Command(0xD52C);
 4110              		.loc 1 942 2 view .LVU942
 4111 11e4 9548     		ldr	r0, .L121+200
 4112 11e6 FFF7FEFF 		bl	Write_Command
 4113              	.LVL804:
 943:Core/Src/er_tft040.c **** 	Write_Data_int(0x02);
 4114              		.loc 1 943 2 view .LVU943
 4115 11ea 0220     		movs	r0, #2
 4116 11ec FFF7FEFF 		bl	Write_Data_int
 4117              	.LVL805:
 944:Core/Src/er_tft040.c **** 	Write_Command(0xD52D);
 4118              		.loc 1 944 2 view .LVU944
 4119 11f0 9348     		ldr	r0, .L121+204
 4120 11f2 FFF7FEFF 		bl	Write_Command
 4121              	.LVL806:
 945:Core/Src/er_tft040.c **** 	Write_Data_int(0xE8);
 4122              		.loc 1 945 2 view .LVU945
 4123 11f6 E820     		movs	r0, #232
 4124 11f8 FFF7FEFF 		bl	Write_Data_int
 4125              	.LVL807:
 946:Core/Src/er_tft040.c **** 	Write_Command(0xD52E);
 4126              		.loc 1 946 2 view .LVU946
 4127 11fc 9148     		ldr	r0, .L121+208
 4128 11fe FFF7FEFF 		bl	Write_Command
 4129              	.LVL808:
 947:Core/Src/er_tft040.c **** 	Write_Data_int(0x02);
 4130              		.loc 1 947 2 view .LVU947
ARM GAS  /var/folders/_5/7dt5dlyd7598cb98063hl5tr0000gn/T//ccgSyEuv.s 			page 94


 4131 1202 0220     		movs	r0, #2
 4132 1204 FFF7FEFF 		bl	Write_Data_int
 4133              	.LVL809:
 948:Core/Src/er_tft040.c **** 	Write_Command(0xD52F);
 4134              		.loc 1 948 2 view .LVU948
 4135 1208 8F48     		ldr	r0, .L121+212
 4136 120a FFF7FEFF 		bl	Write_Command
 4137              	.LVL810:
 949:Core/Src/er_tft040.c **** 	Write_Data_int(0xF9); //
 4138              		.loc 1 949 2 view .LVU949
 4139 120e F920     		movs	r0, #249
 4140 1210 FFF7FEFF 		bl	Write_Data_int
 4141              	.LVL811:
 950:Core/Src/er_tft040.c **** 	Write_Command(0xD530);
 4142              		.loc 1 950 2 view .LVU950
 4143 1214 8D48     		ldr	r0, .L121+216
 4144 1216 FFF7FEFF 		bl	Write_Command
 4145              	.LVL812:
 951:Core/Src/er_tft040.c **** 	Write_Data_int(0x03);
 4146              		.loc 1 951 2 view .LVU951
 4147 121a 0320     		movs	r0, #3
 4148 121c FFF7FEFF 		bl	Write_Data_int
 4149              	.LVL813:
 952:Core/Src/er_tft040.c **** 	Write_Command(0xD531);
 4150              		.loc 1 952 2 view .LVU952
 4151 1220 8B48     		ldr	r0, .L121+220
 4152 1222 FFF7FEFF 		bl	Write_Command
 4153              	.LVL814:
 953:Core/Src/er_tft040.c **** 	Write_Data_int(0x1F);
 4154              		.loc 1 953 2 view .LVU953
 4155 1226 1F20     		movs	r0, #31
 4156 1228 FFF7FEFF 		bl	Write_Data_int
 4157              	.LVL815:
 954:Core/Src/er_tft040.c **** 	Write_Command(0xD532);
 4158              		.loc 1 954 2 view .LVU954
 4159 122c 8948     		ldr	r0, .L121+224
 4160 122e FFF7FEFF 		bl	Write_Command
 4161              	.LVL816:
 955:Core/Src/er_tft040.c **** 	Write_Data_int(0x03);
 4162              		.loc 1 955 2 view .LVU955
 4163 1232 0320     		movs	r0, #3
 4164 1234 FFF7FEFF 		bl	Write_Data_int
 4165              	.LVL817:
 956:Core/Src/er_tft040.c **** 	Write_Command(0xD533);
 4166              		.loc 1 956 2 view .LVU956
 4167 1238 8748     		ldr	r0, .L121+228
 4168 123a FFF7FEFF 		bl	Write_Command
 4169              	.LVL818:
 957:Core/Src/er_tft040.c **** 	Write_Data_int(0x7F);
 4170              		.loc 1 957 2 view .LVU957
 4171 123e 7F20     		movs	r0, #127
 4172 1240 FFF7FEFF 		bl	Write_Data_int
 4173              	.LVL819:
 958:Core/Src/er_tft040.c **** 
 959:Core/Src/er_tft040.c **** 	Write_Command(0xD600);
 4174              		.loc 1 959 2 view .LVU958
 4175 1244 D620     		movs	r0, #214
ARM GAS  /var/folders/_5/7dt5dlyd7598cb98063hl5tr0000gn/T//ccgSyEuv.s 			page 95


 4176 1246 0002     		lsls	r0, r0, #8
 4177 1248 FFF7FEFF 		bl	Write_Command
 4178              	.LVL820:
 960:Core/Src/er_tft040.c **** 	Write_Data_int(0x00);
 4179              		.loc 1 960 2 view .LVU959
 4180 124c 0020     		movs	r0, #0
 4181 124e FFF7FEFF 		bl	Write_Data_int
 4182              	.LVL821:
 961:Core/Src/er_tft040.c **** 	Write_Command(0xD601);
 4183              		.loc 1 961 2 view .LVU960
 4184 1252 8248     		ldr	r0, .L121+232
 4185 1254 FFF7FEFF 		bl	Write_Command
 4186              	.LVL822:
 962:Core/Src/er_tft040.c **** 	Write_Data_int(0x2D);
 4187              		.loc 1 962 2 view .LVU961
 4188 1258 2D20     		movs	r0, #45
 4189 125a FFF7FEFF 		bl	Write_Data_int
 4190              	.LVL823:
 963:Core/Src/er_tft040.c **** 	Write_Command(0xD602);
 4191              		.loc 1 963 2 view .LVU962
 4192 125e 8048     		ldr	r0, .L121+236
 4193 1260 FFF7FEFF 		bl	Write_Command
 4194              	.LVL824:
 964:Core/Src/er_tft040.c **** 	Write_Data_int(0x00);
 4195              		.loc 1 964 2 view .LVU963
 4196 1264 0020     		movs	r0, #0
 4197 1266 FFF7FEFF 		bl	Write_Data_int
 4198              	.LVL825:
 965:Core/Src/er_tft040.c **** 	Write_Command(0xD603);
 4199              		.loc 1 965 2 view .LVU964
 4200 126a 7E48     		ldr	r0, .L121+240
 4201 126c FFF7FEFF 		bl	Write_Command
 4202              	.LVL826:
 966:Core/Src/er_tft040.c **** 	Write_Data_int(0x2E);
 4203              		.loc 1 966 2 view .LVU965
 4204 1270 2E20     		movs	r0, #46
 4205 1272 FFF7FEFF 		bl	Write_Data_int
 4206              	.LVL827:
 967:Core/Src/er_tft040.c **** 	Write_Command(0xD604);
 4207              		.loc 1 967 2 view .LVU966
 4208 1276 7C48     		ldr	r0, .L121+244
 4209 1278 FFF7FEFF 		bl	Write_Command
 4210              	.LVL828:
 968:Core/Src/er_tft040.c **** 	Write_Data_int(0x00);
 4211              		.loc 1 968 2 view .LVU967
 4212 127c 0020     		movs	r0, #0
 4213 127e FFF7FEFF 		bl	Write_Data_int
 4214              	.LVL829:
 969:Core/Src/er_tft040.c **** 	Write_Command(0xD605);
 4215              		.loc 1 969 2 view .LVU968
 4216 1282 7A48     		ldr	r0, .L121+248
 4217 1284 FFF7FEFF 		bl	Write_Command
 4218              	.LVL830:
 970:Core/Src/er_tft040.c **** 	Write_Data_int(0x32);
 4219              		.loc 1 970 2 view .LVU969
 4220 1288 3220     		movs	r0, #50
 4221 128a FFF7FEFF 		bl	Write_Data_int
ARM GAS  /var/folders/_5/7dt5dlyd7598cb98063hl5tr0000gn/T//ccgSyEuv.s 			page 96


 4222              	.LVL831:
 971:Core/Src/er_tft040.c **** 	Write_Command(0xD606);
 4223              		.loc 1 971 2 view .LVU970
 4224 128e 7848     		ldr	r0, .L121+252
 4225 1290 FFF7FEFF 		bl	Write_Command
 4226              	.LVL832:
 972:Core/Src/er_tft040.c **** 	Write_Data_int(0x00);
 4227              		.loc 1 972 2 view .LVU971
 4228 1294 0020     		movs	r0, #0
 4229 1296 FFF7FEFF 		bl	Write_Data_int
 4230              	.LVL833:
 973:Core/Src/er_tft040.c **** 	Write_Command(0xD607);
 4231              		.loc 1 973 2 view .LVU972
 4232 129a 7648     		ldr	r0, .L121+256
 4233 129c FFF7FEFF 		bl	Write_Command
 4234              	.LVL834:
 974:Core/Src/er_tft040.c **** 	Write_Data_int(0x44);
 4235              		.loc 1 974 2 view .LVU973
 4236 12a0 4420     		movs	r0, #68
 4237 12a2 FFF7FEFF 		bl	Write_Data_int
 4238              	.LVL835:
 975:Core/Src/er_tft040.c **** 	Write_Command(0xD608);
 4239              		.loc 1 975 2 view .LVU974
 4240 12a6 7448     		ldr	r0, .L121+260
 4241 12a8 FFF7FEFF 		bl	Write_Command
 4242              	.LVL836:
 976:Core/Src/er_tft040.c **** 	Write_Data_int(0x00);
 4243              		.loc 1 976 2 view .LVU975
 4244 12ac 0020     		movs	r0, #0
 4245 12ae FFF7FEFF 		bl	Write_Data_int
 4246              	.LVL837:
 977:Core/Src/er_tft040.c **** 	Write_Command(0xD609);
 4247              		.loc 1 977 2 view .LVU976
 4248 12b2 7248     		ldr	r0, .L121+264
 4249 12b4 FFF7FEFF 		bl	Write_Command
 4250              	.LVL838:
 978:Core/Src/er_tft040.c **** 	Write_Data_int(0x53);
 4251              		.loc 1 978 2 view .LVU977
 4252 12b8 5320     		movs	r0, #83
 4253 12ba FFF7FEFF 		bl	Write_Data_int
 4254              	.LVL839:
 979:Core/Src/er_tft040.c **** 	Write_Command(0xD60A);
 4255              		.loc 1 979 2 view .LVU978
 4256 12be 7048     		ldr	r0, .L121+268
 4257 12c0 FFF7FEFF 		bl	Write_Command
 4258              	.LVL840:
 980:Core/Src/er_tft040.c **** 	Write_Data_int(0x00);
 4259              		.loc 1 980 2 view .LVU979
 4260 12c4 0020     		movs	r0, #0
 4261 12c6 FFF7FEFF 		bl	Write_Data_int
 4262              	.LVL841:
 981:Core/Src/er_tft040.c **** 	Write_Command(0xD60B);
 4263              		.loc 1 981 2 view .LVU980
 4264 12ca 6E48     		ldr	r0, .L121+272
 4265 12cc FFF7FEFF 		bl	Write_Command
 4266              	.LVL842:
 982:Core/Src/er_tft040.c **** 	Write_Data_int(0x88);
ARM GAS  /var/folders/_5/7dt5dlyd7598cb98063hl5tr0000gn/T//ccgSyEuv.s 			page 97


 4267              		.loc 1 982 2 view .LVU981
 4268 12d0 8820     		movs	r0, #136
 4269 12d2 FFF7FEFF 		bl	Write_Data_int
 4270              	.LVL843:
 983:Core/Src/er_tft040.c **** 	Write_Command(0xD60C);
 4271              		.loc 1 983 2 view .LVU982
 4272 12d6 6C48     		ldr	r0, .L121+276
 4273 12d8 FFF7FEFF 		bl	Write_Command
 4274              	.LVL844:
 984:Core/Src/er_tft040.c **** 	Write_Data_int(0x00);
 4275              		.loc 1 984 2 view .LVU983
 4276 12dc 0020     		movs	r0, #0
 4277 12de FFF7FEFF 		bl	Write_Data_int
 4278              	.LVL845:
 985:Core/Src/er_tft040.c **** 	Write_Command(0xD60D);
 4279              		.loc 1 985 2 view .LVU984
 4280 12e2 6A48     		ldr	r0, .L121+280
 4281 12e4 FFF7FEFF 		bl	Write_Command
 4282              	.LVL846:
 986:Core/Src/er_tft040.c **** 	Write_Data_int(0xB6);
 4283              		.loc 1 986 2 view .LVU985
 4284 12e8 B620     		movs	r0, #182
 4285 12ea FFF7FEFF 		bl	Write_Data_int
 4286              	.LVL847:
 987:Core/Src/er_tft040.c **** 	Write_Command(0xD60E);
 4287              		.loc 1 987 2 view .LVU986
 4288 12ee 6848     		ldr	r0, .L121+284
 4289 12f0 FFF7FEFF 		bl	Write_Command
 4290              	.LVL848:
 988:Core/Src/er_tft040.c **** 	Write_Data_int(0x00);
 4291              		.loc 1 988 2 view .LVU987
 4292 12f4 0020     		movs	r0, #0
 4293 12f6 FFF7FEFF 		bl	Write_Data_int
 4294              	.LVL849:
 989:Core/Src/er_tft040.c **** 	Write_Command(0xD60F);
 4295              		.loc 1 989 2 view .LVU988
 4296 12fa 6648     		ldr	r0, .L121+288
 4297 12fc FFF7FEFF 		bl	Write_Command
 4298              	.LVL850:
 990:Core/Src/er_tft040.c **** 	Write_Data_int(0xF3); //
 4299              		.loc 1 990 2 view .LVU989
 4300 1300 F320     		movs	r0, #243
 4301 1302 FFF7FEFF 		bl	Write_Data_int
 4302              	.LVL851:
 991:Core/Src/er_tft040.c **** 	Write_Command(0xD610);
 4303              		.loc 1 991 2 view .LVU990
 4304 1306 6448     		ldr	r0, .L121+292
 4305 1308 FFF7FEFF 		bl	Write_Command
 4306              	.LVL852:
 992:Core/Src/er_tft040.c **** 	Write_Data_int(0x01);
 4307              		.loc 1 992 2 view .LVU991
 4308 130c 0120     		movs	r0, #1
 4309 130e FFF7FEFF 		bl	Write_Data_int
 4310              	.LVL853:
 993:Core/Src/er_tft040.c **** 	Write_Command(0xD611);
 4311              		.loc 1 993 2 view .LVU992
 4312 1312 6248     		ldr	r0, .L121+296
ARM GAS  /var/folders/_5/7dt5dlyd7598cb98063hl5tr0000gn/T//ccgSyEuv.s 			page 98


 4313 1314 FFF7FEFF 		bl	Write_Command
 4314              	.LVL854:
 994:Core/Src/er_tft040.c **** 	Write_Data_int(0x22);
 4315              		.loc 1 994 2 view .LVU993
 4316 1318 2220     		movs	r0, #34
 4317 131a FFF7FEFF 		bl	Write_Data_int
 4318              	.LVL855:
 995:Core/Src/er_tft040.c **** 	Write_Command(0xD612);
 4319              		.loc 1 995 2 view .LVU994
 4320 131e 6048     		ldr	r0, .L121+300
 4321 1320 FFF7FEFF 		bl	Write_Command
 4322              	.LVL856:
 996:Core/Src/er_tft040.c **** 	Write_Data_int(0x01);
 4323              		.loc 1 996 2 view .LVU995
 4324 1324 0120     		movs	r0, #1
 4325 1326 FFF7FEFF 		bl	Write_Data_int
 4326              	.LVL857:
 997:Core/Src/er_tft040.c **** 	Write_Command(0xD613);
 4327              		.loc 1 997 2 view .LVU996
 4328 132a 5E48     		ldr	r0, .L121+304
 4329 132c FFF7FEFF 		bl	Write_Command
 4330              	.LVL858:
 998:Core/Src/er_tft040.c **** 	Write_Data_int(0x64);
 4331              		.loc 1 998 2 view .LVU997
 4332 1330 6420     		movs	r0, #100
 4333 1332 FFF7FEFF 		bl	Write_Data_int
 4334              	.LVL859:
 999:Core/Src/er_tft040.c **** 	Write_Command(0xD614);
 4335              		.loc 1 999 2 view .LVU998
 4336 1336 5C48     		ldr	r0, .L121+308
 4337 1338 FFF7FEFF 		bl	Write_Command
 4338              	.LVL860:
1000:Core/Src/er_tft040.c **** 	Write_Data_int(0x01);
 4339              		.loc 1 1000 2 view .LVU999
 4340 133c 0120     		movs	r0, #1
 4341 133e FFF7FEFF 		bl	Write_Data_int
 4342              	.LVL861:
1001:Core/Src/er_tft040.c **** 	Write_Command(0xD615);
 4343              		.loc 1 1001 2 view .LVU1000
 4344 1342 5A48     		ldr	r0, .L121+312
 4345 1344 FFF7FEFF 		bl	Write_Command
 4346              	.LVL862:
1002:Core/Src/er_tft040.c **** 	Write_Data_int(0x92);
 4347              		.loc 1 1002 2 view .LVU1001
 4348 1348 9220     		movs	r0, #146
 4349 134a FFF7FEFF 		bl	Write_Data_int
 4350              	.LVL863:
1003:Core/Src/er_tft040.c **** 	Write_Command(0xD616);
 4351              		.loc 1 1003 2 view .LVU1002
 4352 134e 5848     		ldr	r0, .L121+316
 4353 1350 FFF7FEFF 		bl	Write_Command
 4354              	.LVL864:
1004:Core/Src/er_tft040.c **** 	Write_Data_int(0x01);
 4355              		.loc 1 1004 2 view .LVU1003
 4356 1354 0120     		movs	r0, #1
 4357 1356 FFF7FEFF 		bl	Write_Data_int
 4358              	.LVL865:
ARM GAS  /var/folders/_5/7dt5dlyd7598cb98063hl5tr0000gn/T//ccgSyEuv.s 			page 99


1005:Core/Src/er_tft040.c **** 	Write_Command(0xD617);
 4359              		.loc 1 1005 2 view .LVU1004
 4360 135a 5648     		ldr	r0, .L121+320
 4361 135c FFF7FEFF 		bl	Write_Command
 4362              	.LVL866:
1006:Core/Src/er_tft040.c **** 	Write_Data_int(0xD4);
 4363              		.loc 1 1006 2 view .LVU1005
 4364 1360 D420     		movs	r0, #212
 4365 1362 FFF7FEFF 		bl	Write_Data_int
 4366              	.LVL867:
1007:Core/Src/er_tft040.c **** 	Write_Command(0xD618);
 4367              		.loc 1 1007 2 view .LVU1006
 4368 1366 5448     		ldr	r0, .L121+324
 4369 1368 FFF7FEFF 		bl	Write_Command
 4370              	.LVL868:
1008:Core/Src/er_tft040.c **** 	Write_Data_int(0x02);
 4371              		.loc 1 1008 2 view .LVU1007
 4372 136c 0220     		movs	r0, #2
 4373 136e FFF7FEFF 		bl	Write_Data_int
 4374              	.LVL869:
 4375 1372 A3E0     		b	.L122
 4376              	.L123:
 4377              		.align	2
 4378              	.L121:
 4379 1374 2DD40000 		.word	54317
 4380 1378 2ED40000 		.word	54318
 4381 137c 2FD40000 		.word	54319
 4382 1380 30D40000 		.word	54320
 4383 1384 31D40000 		.word	54321
 4384 1388 32D40000 		.word	54322
 4385 138c 33D40000 		.word	54323
 4386 1390 01D50000 		.word	54529
 4387 1394 02D50000 		.word	54530
 4388 1398 03D50000 		.word	54531
 4389 139c 04D50000 		.word	54532
 4390 13a0 05D50000 		.word	54533
 4391 13a4 06D50000 		.word	54534
 4392 13a8 07D50000 		.word	54535
 4393 13ac 08D50000 		.word	54536
 4394 13b0 09D50000 		.word	54537
 4395 13b4 0AD50000 		.word	54538
 4396 13b8 0BD50000 		.word	54539
 4397 13bc 0CD50000 		.word	54540
 4398 13c0 0DD50000 		.word	54541
 4399 13c4 0ED50000 		.word	54542
 4400 13c8 0FD50000 		.word	54543
 4401 13cc 10D50000 		.word	54544
 4402 13d0 11D50000 		.word	54545
 4403 13d4 12D50000 		.word	54546
 4404 13d8 13D50000 		.word	54547
 4405 13dc 14D50000 		.word	54548
 4406 13e0 15D50000 		.word	54549
 4407 13e4 16D50000 		.word	54550
 4408 13e8 17D50000 		.word	54551
 4409 13ec 18D50000 		.word	54552
 4410 13f0 19D50000 		.word	54553
 4411 13f4 1AD50000 		.word	54554
ARM GAS  /var/folders/_5/7dt5dlyd7598cb98063hl5tr0000gn/T//ccgSyEuv.s 			page 100


 4412 13f8 1BD50000 		.word	54555
 4413 13fc 1CD50000 		.word	54556
 4414 1400 1DD50000 		.word	54557
 4415 1404 1ED50000 		.word	54558
 4416 1408 1FD50000 		.word	54559
 4417 140c 20D50000 		.word	54560
 4418 1410 21D50000 		.word	54561
 4419 1414 22D50000 		.word	54562
 4420 1418 23D50000 		.word	54563
 4421 141c 24D50000 		.word	54564
 4422 1420 25D50000 		.word	54565
 4423 1424 26D50000 		.word	54566
 4424 1428 27D50000 		.word	54567
 4425 142c 28D50000 		.word	54568
 4426 1430 29D50000 		.word	54569
 4427 1434 2AD50000 		.word	54570
 4428 1438 2BD50000 		.word	54571
 4429 143c 2CD50000 		.word	54572
 4430 1440 2DD50000 		.word	54573
 4431 1444 2ED50000 		.word	54574
 4432 1448 2FD50000 		.word	54575
 4433 144c 30D50000 		.word	54576
 4434 1450 31D50000 		.word	54577
 4435 1454 32D50000 		.word	54578
 4436 1458 33D50000 		.word	54579
 4437 145c 01D60000 		.word	54785
 4438 1460 02D60000 		.word	54786
 4439 1464 03D60000 		.word	54787
 4440 1468 04D60000 		.word	54788
 4441 146c 05D60000 		.word	54789
 4442 1470 06D60000 		.word	54790
 4443 1474 07D60000 		.word	54791
 4444 1478 08D60000 		.word	54792
 4445 147c 09D60000 		.word	54793
 4446 1480 0AD60000 		.word	54794
 4447 1484 0BD60000 		.word	54795
 4448 1488 0CD60000 		.word	54796
 4449 148c 0DD60000 		.word	54797
 4450 1490 0ED60000 		.word	54798
 4451 1494 0FD60000 		.word	54799
 4452 1498 10D60000 		.word	54800
 4453 149c 11D60000 		.word	54801
 4454 14a0 12D60000 		.word	54802
 4455 14a4 13D60000 		.word	54803
 4456 14a8 14D60000 		.word	54804
 4457 14ac 15D60000 		.word	54805
 4458 14b0 16D60000 		.word	54806
 4459 14b4 17D60000 		.word	54807
 4460 14b8 18D60000 		.word	54808
 4461              	.L122:
1009:Core/Src/er_tft040.c **** 	Write_Command(0xD619);
 4462              		.loc 1 1009 2 view .LVU1008
 4463 14bc B548     		ldr	r0, .L124
 4464 14be FFF7FEFF 		bl	Write_Command
 4465              	.LVL870:
1010:Core/Src/er_tft040.c **** 	Write_Data_int(0x07);
 4466              		.loc 1 1010 2 view .LVU1009
ARM GAS  /var/folders/_5/7dt5dlyd7598cb98063hl5tr0000gn/T//ccgSyEuv.s 			page 101


 4467 14c2 0720     		movs	r0, #7
 4468 14c4 FFF7FEFF 		bl	Write_Data_int
 4469              	.LVL871:
1011:Core/Src/er_tft040.c **** 	Write_Command(0xD61A);
 4470              		.loc 1 1011 2 view .LVU1010
 4471 14c8 B348     		ldr	r0, .L124+4
 4472 14ca FFF7FEFF 		bl	Write_Command
 4473              	.LVL872:
1012:Core/Src/er_tft040.c **** 	Write_Data_int(0x02);
 4474              		.loc 1 1012 2 view .LVU1011
 4475 14ce 0220     		movs	r0, #2
 4476 14d0 FFF7FEFF 		bl	Write_Data_int
 4477              	.LVL873:
1013:Core/Src/er_tft040.c **** 	Write_Command(0xD61B);
 4478              		.loc 1 1013 2 view .LVU1012
 4479 14d4 B148     		ldr	r0, .L124+8
 4480 14d6 FFF7FEFF 		bl	Write_Command
 4481              	.LVL874:
1014:Core/Src/er_tft040.c **** 	Write_Data_int(0x08);
 4482              		.loc 1 1014 2 view .LVU1013
 4483 14da 0820     		movs	r0, #8
 4484 14dc FFF7FEFF 		bl	Write_Data_int
 4485              	.LVL875:
1015:Core/Src/er_tft040.c **** 	Write_Command(0xD61C);
 4486              		.loc 1 1015 2 view .LVU1014
 4487 14e0 AF48     		ldr	r0, .L124+12
 4488 14e2 FFF7FEFF 		bl	Write_Command
 4489              	.LVL876:
1016:Core/Src/er_tft040.c **** 	Write_Data_int(0x02);
 4490              		.loc 1 1016 2 view .LVU1015
 4491 14e6 0220     		movs	r0, #2
 4492 14e8 FFF7FEFF 		bl	Write_Data_int
 4493              	.LVL877:
1017:Core/Src/er_tft040.c **** 	Write_Command(0xD61D);
 4494              		.loc 1 1017 2 view .LVU1016
 4495 14ec AD48     		ldr	r0, .L124+16
 4496 14ee FFF7FEFF 		bl	Write_Command
 4497              	.LVL878:
1018:Core/Src/er_tft040.c **** 	Write_Data_int(0x34);
 4498              		.loc 1 1018 2 view .LVU1017
 4499 14f2 3420     		movs	r0, #52
 4500 14f4 FFF7FEFF 		bl	Write_Data_int
 4501              	.LVL879:
1019:Core/Src/er_tft040.c **** 	Write_Command(0xD61E);
 4502              		.loc 1 1019 2 view .LVU1018
 4503 14f8 AB48     		ldr	r0, .L124+20
 4504 14fa FFF7FEFF 		bl	Write_Command
 4505              	.LVL880:
1020:Core/Src/er_tft040.c **** 	Write_Data_int(0x02);
 4506              		.loc 1 1020 2 view .LVU1019
 4507 14fe 0220     		movs	r0, #2
 4508 1500 FFF7FEFF 		bl	Write_Data_int
 4509              	.LVL881:
1021:Core/Src/er_tft040.c **** 	Write_Command(0xD61F);
 4510              		.loc 1 1021 2 view .LVU1020
 4511 1504 A948     		ldr	r0, .L124+24
 4512 1506 FFF7FEFF 		bl	Write_Command
ARM GAS  /var/folders/_5/7dt5dlyd7598cb98063hl5tr0000gn/T//ccgSyEuv.s 			page 102


 4513              	.LVL882:
1022:Core/Src/er_tft040.c **** 	Write_Data_int(0x5F); //
 4514              		.loc 1 1022 2 view .LVU1021
 4515 150a 5F20     		movs	r0, #95
 4516 150c FFF7FEFF 		bl	Write_Data_int
 4517              	.LVL883:
1023:Core/Src/er_tft040.c **** 	Write_Command(0xD620);
 4518              		.loc 1 1023 2 view .LVU1022
 4519 1510 A748     		ldr	r0, .L124+28
 4520 1512 FFF7FEFF 		bl	Write_Command
 4521              	.LVL884:
1024:Core/Src/er_tft040.c **** 	Write_Data_int(0x02);
 4522              		.loc 1 1024 2 view .LVU1023
 4523 1516 0220     		movs	r0, #2
 4524 1518 FFF7FEFF 		bl	Write_Data_int
 4525              	.LVL885:
1025:Core/Src/er_tft040.c **** 	Write_Command(0xD621);
 4526              		.loc 1 1025 2 view .LVU1024
 4527 151c A548     		ldr	r0, .L124+32
 4528 151e FFF7FEFF 		bl	Write_Command
 4529              	.LVL886:
1026:Core/Src/er_tft040.c **** 	Write_Data_int(0x78);
 4530              		.loc 1 1026 2 view .LVU1025
 4531 1522 7820     		movs	r0, #120
 4532 1524 FFF7FEFF 		bl	Write_Data_int
 4533              	.LVL887:
1027:Core/Src/er_tft040.c **** 	Write_Command(0xD622);
 4534              		.loc 1 1027 2 view .LVU1026
 4535 1528 A348     		ldr	r0, .L124+36
 4536 152a FFF7FEFF 		bl	Write_Command
 4537              	.LVL888:
1028:Core/Src/er_tft040.c **** 	Write_Data_int(0x02);
 4538              		.loc 1 1028 2 view .LVU1027
 4539 152e 0220     		movs	r0, #2
 4540 1530 FFF7FEFF 		bl	Write_Data_int
 4541              	.LVL889:
1029:Core/Src/er_tft040.c **** 	Write_Command(0xD623);
 4542              		.loc 1 1029 2 view .LVU1028
 4543 1534 A148     		ldr	r0, .L124+40
 4544 1536 FFF7FEFF 		bl	Write_Command
 4545              	.LVL890:
1030:Core/Src/er_tft040.c **** 	Write_Data_int(0x94);
 4546              		.loc 1 1030 2 view .LVU1029
 4547 153a 9420     		movs	r0, #148
 4548 153c FFF7FEFF 		bl	Write_Data_int
 4549              	.LVL891:
1031:Core/Src/er_tft040.c **** 	Write_Command(0xD624);
 4550              		.loc 1 1031 2 view .LVU1030
 4551 1540 9F48     		ldr	r0, .L124+44
 4552 1542 FFF7FEFF 		bl	Write_Command
 4553              	.LVL892:
1032:Core/Src/er_tft040.c **** 	Write_Data_int(0x02);
 4554              		.loc 1 1032 2 view .LVU1031
 4555 1546 0220     		movs	r0, #2
 4556 1548 FFF7FEFF 		bl	Write_Data_int
 4557              	.LVL893:
1033:Core/Src/er_tft040.c **** 	Write_Command(0xD625);
ARM GAS  /var/folders/_5/7dt5dlyd7598cb98063hl5tr0000gn/T//ccgSyEuv.s 			page 103


 4558              		.loc 1 1033 2 view .LVU1032
 4559 154c 9D48     		ldr	r0, .L124+48
 4560 154e FFF7FEFF 		bl	Write_Command
 4561              	.LVL894:
1034:Core/Src/er_tft040.c **** 	Write_Data_int(0xA6);
 4562              		.loc 1 1034 2 view .LVU1033
 4563 1552 A620     		movs	r0, #166
 4564 1554 FFF7FEFF 		bl	Write_Data_int
 4565              	.LVL895:
1035:Core/Src/er_tft040.c **** 	Write_Command(0xD626);
 4566              		.loc 1 1035 2 view .LVU1034
 4567 1558 9B48     		ldr	r0, .L124+52
 4568 155a FFF7FEFF 		bl	Write_Command
 4569              	.LVL896:
1036:Core/Src/er_tft040.c **** 	Write_Data_int(0x02);
 4570              		.loc 1 1036 2 view .LVU1035
 4571 155e 0220     		movs	r0, #2
 4572 1560 FFF7FEFF 		bl	Write_Data_int
 4573              	.LVL897:
1037:Core/Src/er_tft040.c **** 	Write_Command(0xD627);
 4574              		.loc 1 1037 2 view .LVU1036
 4575 1564 9948     		ldr	r0, .L124+56
 4576 1566 FFF7FEFF 		bl	Write_Command
 4577              	.LVL898:
1038:Core/Src/er_tft040.c **** 	Write_Data_int(0xBB);
 4578              		.loc 1 1038 2 view .LVU1037
 4579 156a BB20     		movs	r0, #187
 4580 156c FFF7FEFF 		bl	Write_Data_int
 4581              	.LVL899:
1039:Core/Src/er_tft040.c **** 	Write_Command(0xD628);
 4582              		.loc 1 1039 2 view .LVU1038
 4583 1570 9748     		ldr	r0, .L124+60
 4584 1572 FFF7FEFF 		bl	Write_Command
 4585              	.LVL900:
1040:Core/Src/er_tft040.c **** 	Write_Data_int(0x02);
 4586              		.loc 1 1040 2 view .LVU1039
 4587 1576 0220     		movs	r0, #2
 4588 1578 FFF7FEFF 		bl	Write_Data_int
 4589              	.LVL901:
1041:Core/Src/er_tft040.c **** 	Write_Command(0xD629);
 4590              		.loc 1 1041 2 view .LVU1040
 4591 157c 9548     		ldr	r0, .L124+64
 4592 157e FFF7FEFF 		bl	Write_Command
 4593              	.LVL902:
1042:Core/Src/er_tft040.c **** 	Write_Data_int(0xCA);
 4594              		.loc 1 1042 2 view .LVU1041
 4595 1582 CA20     		movs	r0, #202
 4596 1584 FFF7FEFF 		bl	Write_Data_int
 4597              	.LVL903:
1043:Core/Src/er_tft040.c **** 	Write_Command(0xD62A);
 4598              		.loc 1 1043 2 view .LVU1042
 4599 1588 9348     		ldr	r0, .L124+68
 4600 158a FFF7FEFF 		bl	Write_Command
 4601              	.LVL904:
1044:Core/Src/er_tft040.c **** 	Write_Data_int(0x02);
 4602              		.loc 1 1044 2 view .LVU1043
 4603 158e 0220     		movs	r0, #2
ARM GAS  /var/folders/_5/7dt5dlyd7598cb98063hl5tr0000gn/T//ccgSyEuv.s 			page 104


 4604 1590 FFF7FEFF 		bl	Write_Data_int
 4605              	.LVL905:
1045:Core/Src/er_tft040.c **** 	Write_Command(0xD62B);
 4606              		.loc 1 1045 2 view .LVU1044
 4607 1594 9148     		ldr	r0, .L124+72
 4608 1596 FFF7FEFF 		bl	Write_Command
 4609              	.LVL906:
1046:Core/Src/er_tft040.c **** 	Write_Data_int(0xDB);
 4610              		.loc 1 1046 2 view .LVU1045
 4611 159a DB20     		movs	r0, #219
 4612 159c FFF7FEFF 		bl	Write_Data_int
 4613              	.LVL907:
1047:Core/Src/er_tft040.c **** 	Write_Command(0xD62C);
 4614              		.loc 1 1047 2 view .LVU1046
 4615 15a0 8F48     		ldr	r0, .L124+76
 4616 15a2 FFF7FEFF 		bl	Write_Command
 4617              	.LVL908:
1048:Core/Src/er_tft040.c **** 	Write_Data_int(0x02);
 4618              		.loc 1 1048 2 view .LVU1047
 4619 15a6 0220     		movs	r0, #2
 4620 15a8 FFF7FEFF 		bl	Write_Data_int
 4621              	.LVL909:
1049:Core/Src/er_tft040.c **** 	Write_Command(0xD62D);
