ARM GAS  /var/folders/_5/7dt5dlyd7598cb98063hl5tr0000gn/T//cc5bI3Gx.s 			page 1


   1              		.cpu cortex-m0
   2              		.arch armv6s-m
   3              		.fpu softvfp
   4              		.eabi_attribute 20, 1
   5              		.eabi_attribute 21, 1
   6              		.eabi_attribute 23, 3
   7              		.eabi_attribute 24, 1
   8              		.eabi_attribute 25, 1
   9              		.eabi_attribute 26, 1
  10              		.eabi_attribute 30, 1
  11              		.eabi_attribute 34, 0
  12              		.eabi_attribute 18, 4
  13              		.file	"er_tft040.c"
  14              		.text
  15              	.Ltext0:
  16              		.cfi_sections	.debug_frame
  17              		.file 1 "Core/Src/er_tft040.c"
  18              		.section	.text.ER_TFT040_setDataPort,"ax",%progbits
  19              		.align	1
  20              		.syntax unified
  21              		.code	16
  22              		.thumb_func
  24              	ER_TFT040_setDataPort:
  25              	.LVL0:
  26              	.LFB40:
   1:Core/Src/er_tft040.c **** #include "er_tft040.h"
   2:Core/Src/er_tft040.c **** 
   3:Core/Src/er_tft040.c **** static void ER_TFT040_setDataPort(uint16_t data) {
  27              		.loc 1 3 50 view -0
  28              		.cfi_startproc
  29              		@ args = 0, pretend = 0, frame = 0
  30              		@ frame_needed = 0, uses_anonymous_args = 0
  31              		@ link register save eliminated.
   4:Core/Src/er_tft040.c ****     uint16_t setData = data & ER_TFT040_DATA_MASK;
  32              		.loc 1 4 5 view .LVU1
   5:Core/Src/er_tft040.c **** 
   6:Core/Src/er_tft040.c ****     GPIOB->BRR = ER_TFT040_DATA_MASK;
  33              		.loc 1 6 5 view .LVU2
  34              		.loc 1 6 16 is_stmt 0 view .LVU3
  35 0000 024B     		ldr	r3, .L2
  36 0002 034A     		ldr	r2, .L2+4
  37 0004 9A62     		str	r2, [r3, #40]
   7:Core/Src/er_tft040.c ****     GPIOB->BSRR = setData;
  38              		.loc 1 7 5 is_stmt 1 view .LVU4
  39              		.loc 1 7 17 is_stmt 0 view .LVU5
  40 0006 9861     		str	r0, [r3, #24]
   8:Core/Src/er_tft040.c **** }
  41              		.loc 1 8 1 view .LVU6
  42              		@ sp needed
  43 0008 7047     		bx	lr
  44              	.L3:
  45 000a C046     		.align	2
  46              	.L2:
  47 000c 00040048 		.word	1207960576
  48 0010 FFFF0000 		.word	65535
  49              		.cfi_endproc
  50              	.LFE40:
ARM GAS  /var/folders/_5/7dt5dlyd7598cb98063hl5tr0000gn/T//cc5bI3Gx.s 			page 2


  52              		.section	.text.ER_TFT040_writeCommand,"ax",%progbits
  53              		.align	1
  54              		.global	ER_TFT040_writeCommand
  55              		.syntax unified
  56              		.code	16
  57              		.thumb_func
  59              	ER_TFT040_writeCommand:
  60              	.LVL1:
  61              	.LFB41:
   9:Core/Src/er_tft040.c **** 
  10:Core/Src/er_tft040.c **** void ER_TFT040_writeCommand(uint16_t command) {
  62              		.loc 1 10 47 is_stmt 1 view -0
  63              		.cfi_startproc
  64              		@ args = 0, pretend = 0, frame = 0
  65              		@ frame_needed = 0, uses_anonymous_args = 0
  66              		.loc 1 10 47 is_stmt 0 view .LVU8
  67 0000 70B5     		push	{r4, r5, r6, lr}
  68              		.cfi_def_cfa_offset 16
  69              		.cfi_offset 4, -16
  70              		.cfi_offset 5, -12
  71              		.cfi_offset 6, -8
  72              		.cfi_offset 14, -4
  73 0002 0600     		movs	r6, r0
  11:Core/Src/er_tft040.c ****     HAL_GPIO_WritePin(DISPLAY_CSX_GPIO_Port, DISPLAY_CSX_Pin, 0);
  74              		.loc 1 11 5 is_stmt 1 view .LVU9
  75 0004 144C     		ldr	r4, .L5
  76 0006 0022     		movs	r2, #0
  77 0008 8021     		movs	r1, #128
  78 000a 2000     		movs	r0, r4
  79              	.LVL2:
  80              		.loc 1 11 5 is_stmt 0 view .LVU10
  81 000c FFF7FEFF 		bl	HAL_GPIO_WritePin
  82              	.LVL3:
  12:Core/Src/er_tft040.c ****     HAL_GPIO_WritePin(DISPLAY_RD_GPIO_Port, DISPLAY_RD_Pin, 1);
  83              		.loc 1 12 5 is_stmt 1 view .LVU11
  84 0010 8021     		movs	r1, #128
  85 0012 9025     		movs	r5, #144
  86 0014 ED05     		lsls	r5, r5, #23
  87 0016 0122     		movs	r2, #1
  88 0018 4901     		lsls	r1, r1, #5
  89 001a 2800     		movs	r0, r5
  90 001c FFF7FEFF 		bl	HAL_GPIO_WritePin
  91              	.LVL4:
  13:Core/Src/er_tft040.c ****     HAL_GPIO_WritePin(DISPLAY_DC_GPIO_Port, DISPLAY_DC_Pin, 0);
  92              		.loc 1 13 5 view .LVU12
  93 0020 8021     		movs	r1, #128
  94 0022 0022     		movs	r2, #0
  95 0024 4900     		lsls	r1, r1, #1
  96 0026 2000     		movs	r0, r4
  97 0028 FFF7FEFF 		bl	HAL_GPIO_WritePin
  98              	.LVL5:
  14:Core/Src/er_tft040.c **** 
  15:Core/Src/er_tft040.c ****     ER_TFT040_setDataPort(command);
  99              		.loc 1 15 5 view .LVU13
 100 002c 3000     		movs	r0, r6
 101 002e FFF7FEFF 		bl	ER_TFT040_setDataPort
 102              	.LVL6:
ARM GAS  /var/folders/_5/7dt5dlyd7598cb98063hl5tr0000gn/T//cc5bI3Gx.s 			page 3


  16:Core/Src/er_tft040.c **** 
  17:Core/Src/er_tft040.c ****     HAL_GPIO_WritePin(DISPLAY_WR_GPIO_Port, DISPLAY_WR_Pin, 0);
 103              		.loc 1 17 5 view .LVU14
 104 0032 8026     		movs	r6, #128
 105 0034 3601     		lsls	r6, r6, #4
 106 0036 0022     		movs	r2, #0
 107 0038 3100     		movs	r1, r6
 108 003a 2800     		movs	r0, r5
 109 003c FFF7FEFF 		bl	HAL_GPIO_WritePin
 110              	.LVL7:
  18:Core/Src/er_tft040.c ****     HAL_GPIO_WritePin(DISPLAY_WR_GPIO_Port, DISPLAY_WR_Pin, 1);
 111              		.loc 1 18 5 view .LVU15
 112 0040 0122     		movs	r2, #1
 113 0042 3100     		movs	r1, r6
 114 0044 2800     		movs	r0, r5
 115 0046 FFF7FEFF 		bl	HAL_GPIO_WritePin
 116              	.LVL8:
  19:Core/Src/er_tft040.c ****     HAL_GPIO_WritePin(DISPLAY_CSX_GPIO_Port, DISPLAY_CSX_Pin, 1);
 117              		.loc 1 19 5 view .LVU16
 118 004a 0122     		movs	r2, #1
 119 004c 8021     		movs	r1, #128
 120 004e 2000     		movs	r0, r4
 121 0050 FFF7FEFF 		bl	HAL_GPIO_WritePin
 122              	.LVL9:
  20:Core/Src/er_tft040.c **** }
 123              		.loc 1 20 1 is_stmt 0 view .LVU17
 124              		@ sp needed
 125 0054 70BD     		pop	{r4, r5, r6, pc}
 126              	.L6:
 127 0056 C046     		.align	2
 128              	.L5:
 129 0058 00080048 		.word	1207961600
 130              		.cfi_endproc
 131              	.LFE41:
 133              		.section	.text.ER_TFT040_writeData,"ax",%progbits
 134              		.align	1
 135              		.global	ER_TFT040_writeData
 136              		.syntax unified
 137              		.code	16
 138              		.thumb_func
 140              	ER_TFT040_writeData:
 141              	.LVL10:
 142              	.LFB42:
  21:Core/Src/er_tft040.c **** 
  22:Core/Src/er_tft040.c **** void ER_TFT040_writeData(uint16_t data) {
 143              		.loc 1 22 41 is_stmt 1 view -0
 144              		.cfi_startproc
 145              		@ args = 0, pretend = 0, frame = 0
 146              		@ frame_needed = 0, uses_anonymous_args = 0
 147              		.loc 1 22 41 is_stmt 0 view .LVU19
 148 0000 70B5     		push	{r4, r5, r6, lr}
 149              		.cfi_def_cfa_offset 16
 150              		.cfi_offset 4, -16
 151              		.cfi_offset 5, -12
 152              		.cfi_offset 6, -8
 153              		.cfi_offset 14, -4
 154 0002 0600     		movs	r6, r0
ARM GAS  /var/folders/_5/7dt5dlyd7598cb98063hl5tr0000gn/T//cc5bI3Gx.s 			page 4


  23:Core/Src/er_tft040.c ****     HAL_GPIO_WritePin(DISPLAY_CSX_GPIO_Port, DISPLAY_CSX_Pin, 0);
 155              		.loc 1 23 5 is_stmt 1 view .LVU20
 156 0004 144C     		ldr	r4, .L8
 157 0006 0022     		movs	r2, #0
 158 0008 8021     		movs	r1, #128
 159 000a 2000     		movs	r0, r4
 160              	.LVL11:
 161              		.loc 1 23 5 is_stmt 0 view .LVU21
 162 000c FFF7FEFF 		bl	HAL_GPIO_WritePin
 163              	.LVL12:
  24:Core/Src/er_tft040.c ****     HAL_GPIO_WritePin(DISPLAY_RD_GPIO_Port, DISPLAY_RD_Pin, 1);
 164              		.loc 1 24 5 is_stmt 1 view .LVU22
 165 0010 8021     		movs	r1, #128
 166 0012 9025     		movs	r5, #144
 167 0014 ED05     		lsls	r5, r5, #23
 168 0016 0122     		movs	r2, #1
 169 0018 4901     		lsls	r1, r1, #5
 170 001a 2800     		movs	r0, r5
 171 001c FFF7FEFF 		bl	HAL_GPIO_WritePin
 172              	.LVL13:
  25:Core/Src/er_tft040.c ****     HAL_GPIO_WritePin(DISPLAY_DC_GPIO_Port, DISPLAY_DC_Pin, 1);
 173              		.loc 1 25 5 view .LVU23
 174 0020 8021     		movs	r1, #128
 175 0022 0122     		movs	r2, #1
 176 0024 4900     		lsls	r1, r1, #1
 177 0026 2000     		movs	r0, r4
 178 0028 FFF7FEFF 		bl	HAL_GPIO_WritePin
 179              	.LVL14:
  26:Core/Src/er_tft040.c **** 
  27:Core/Src/er_tft040.c ****     ER_TFT040_setDataPort(data);
 180              		.loc 1 27 5 view .LVU24
 181 002c 3000     		movs	r0, r6
 182 002e FFF7FEFF 		bl	ER_TFT040_setDataPort
 183              	.LVL15:
  28:Core/Src/er_tft040.c **** 
  29:Core/Src/er_tft040.c ****     HAL_GPIO_WritePin(DISPLAY_WR_GPIO_Port, DISPLAY_WR_Pin, 0);
 184              		.loc 1 29 5 view .LVU25
 185 0032 8026     		movs	r6, #128
 186 0034 3601     		lsls	r6, r6, #4
 187 0036 0022     		movs	r2, #0
 188 0038 3100     		movs	r1, r6
 189 003a 2800     		movs	r0, r5
 190 003c FFF7FEFF 		bl	HAL_GPIO_WritePin
 191              	.LVL16:
  30:Core/Src/er_tft040.c ****     HAL_GPIO_WritePin(DISPLAY_WR_GPIO_Port, DISPLAY_WR_Pin, 1);
 192              		.loc 1 30 5 view .LVU26
 193 0040 0122     		movs	r2, #1
 194 0042 3100     		movs	r1, r6
 195 0044 2800     		movs	r0, r5
 196 0046 FFF7FEFF 		bl	HAL_GPIO_WritePin
 197              	.LVL17:
  31:Core/Src/er_tft040.c ****     HAL_GPIO_WritePin(DISPLAY_CSX_GPIO_Port, DISPLAY_CSX_Pin, 1);
 198              		.loc 1 31 5 view .LVU27
 199 004a 0122     		movs	r2, #1
 200 004c 8021     		movs	r1, #128
 201 004e 2000     		movs	r0, r4
 202 0050 FFF7FEFF 		bl	HAL_GPIO_WritePin
ARM GAS  /var/folders/_5/7dt5dlyd7598cb98063hl5tr0000gn/T//cc5bI3Gx.s 			page 5


 203              	.LVL18:
  32:Core/Src/er_tft040.c **** }
 204              		.loc 1 32 1 is_stmt 0 view .LVU28
 205              		@ sp needed
 206 0054 70BD     		pop	{r4, r5, r6, pc}
 207              	.L9:
 208 0056 C046     		.align	2
 209              	.L8:
 210 0058 00080048 		.word	1207961600
 211              		.cfi_endproc
 212              	.LFE42:
 214              		.section	.text.ER_TFT040_setCursor,"ax",%progbits
 215              		.align	1
 216              		.global	ER_TFT040_setCursor
 217              		.syntax unified
 218              		.code	16
 219              		.thumb_func
 221              	ER_TFT040_setCursor:
 222              	.LVL19:
 223              	.LFB43:
  33:Core/Src/er_tft040.c **** 
  34:Core/Src/er_tft040.c **** void ER_TFT040_setCursor(uint16_t xStart, uint16_t xEnd, uint16_t yStart, uint16_t yEnd) {
 224              		.loc 1 34 90 is_stmt 1 view -0
 225              		.cfi_startproc
 226              		@ args = 0, pretend = 0, frame = 0
 227              		@ frame_needed = 0, uses_anonymous_args = 0
 228              		.loc 1 34 90 is_stmt 0 view .LVU30
 229 0000 F0B5     		push	{r4, r5, r6, r7, lr}
 230              		.cfi_def_cfa_offset 20
 231              		.cfi_offset 4, -20
 232              		.cfi_offset 5, -16
 233              		.cfi_offset 6, -12
 234              		.cfi_offset 7, -8
 235              		.cfi_offset 14, -4
 236 0002 C646     		mov	lr, r8
 237 0004 00B5     		push	{lr}
 238              		.cfi_def_cfa_offset 24
 239              		.cfi_offset 8, -24
 240 0006 0700     		movs	r7, r0
 241 0008 0E00     		movs	r6, r1
 242 000a 1500     		movs	r5, r2
 243 000c 9846     		mov	r8, r3
  35:Core/Src/er_tft040.c ****     ER_TFT040_writeCommand(0x2A00);
 244              		.loc 1 35 5 is_stmt 1 view .LVU31
 245 000e A820     		movs	r0, #168
 246              	.LVL20:
 247              		.loc 1 35 5 is_stmt 0 view .LVU32
 248 0010 8001     		lsls	r0, r0, #6
 249 0012 FFF7FEFF 		bl	ER_TFT040_writeCommand
 250              	.LVL21:
  36:Core/Src/er_tft040.c ****     ER_TFT040_writeData(xStart >> 8);
 251              		.loc 1 36 5 is_stmt 1 view .LVU33
 252 0016 380A     		lsrs	r0, r7, #8
 253 0018 FFF7FEFF 		bl	ER_TFT040_writeData
 254              	.LVL22:
  37:Core/Src/er_tft040.c ****     ER_TFT040_writeCommand(0x2A01);
 255              		.loc 1 37 5 view .LVU34
ARM GAS  /var/folders/_5/7dt5dlyd7598cb98063hl5tr0000gn/T//cc5bI3Gx.s 			page 6


 256 001c 1B48     		ldr	r0, .L11
 257 001e FFF7FEFF 		bl	ER_TFT040_writeCommand
 258              	.LVL23:
  38:Core/Src/er_tft040.c ****     ER_TFT040_writeData(xStart & 0x00ff);
 259              		.loc 1 38 5 view .LVU35
 260 0022 FF24     		movs	r4, #255
 261 0024 3800     		movs	r0, r7
 262 0026 2040     		ands	r0, r4
 263 0028 FFF7FEFF 		bl	ER_TFT040_writeData
 264              	.LVL24:
  39:Core/Src/er_tft040.c ****     ER_TFT040_writeCommand(0x2A02);
 265              		.loc 1 39 5 view .LVU36
 266 002c 1848     		ldr	r0, .L11+4
 267 002e FFF7FEFF 		bl	ER_TFT040_writeCommand
 268              	.LVL25:
  40:Core/Src/er_tft040.c ****     ER_TFT040_writeData(xEnd >> 8);
 269              		.loc 1 40 5 view .LVU37
 270 0032 300A     		lsrs	r0, r6, #8
 271 0034 FFF7FEFF 		bl	ER_TFT040_writeData
 272              	.LVL26:
  41:Core/Src/er_tft040.c ****     ER_TFT040_writeCommand(0x2A03);
 273              		.loc 1 41 5 view .LVU38
 274 0038 1648     		ldr	r0, .L11+8
 275 003a FFF7FEFF 		bl	ER_TFT040_writeCommand
 276              	.LVL27:
  42:Core/Src/er_tft040.c ****     ER_TFT040_writeData(xEnd & 0x00ff);
 277              		.loc 1 42 5 view .LVU39
 278 003e 3000     		movs	r0, r6
 279 0040 2040     		ands	r0, r4
 280 0042 FFF7FEFF 		bl	ER_TFT040_writeData
 281              	.LVL28:
  43:Core/Src/er_tft040.c ****     ER_TFT040_writeCommand(0x2B00);
 282              		.loc 1 43 5 view .LVU40
 283 0046 AC20     		movs	r0, #172
 284 0048 8001     		lsls	r0, r0, #6
 285 004a FFF7FEFF 		bl	ER_TFT040_writeCommand
 286              	.LVL29:
  44:Core/Src/er_tft040.c ****     ER_TFT040_writeData(yStart >> 8);
 287              		.loc 1 44 5 view .LVU41
 288 004e 280A     		lsrs	r0, r5, #8
 289 0050 FFF7FEFF 		bl	ER_TFT040_writeData
 290              	.LVL30:
  45:Core/Src/er_tft040.c ****     ER_TFT040_writeCommand(0x2B01);
 291              		.loc 1 45 5 view .LVU42
 292 0054 1048     		ldr	r0, .L11+12
 293 0056 FFF7FEFF 		bl	ER_TFT040_writeCommand
 294              	.LVL31:
  46:Core/Src/er_tft040.c ****     ER_TFT040_writeData(yStart & 0x00ff);
 295              		.loc 1 46 5 view .LVU43
 296 005a 2800     		movs	r0, r5
 297 005c 2040     		ands	r0, r4
 298 005e FFF7FEFF 		bl	ER_TFT040_writeData
 299              	.LVL32:
  47:Core/Src/er_tft040.c ****     ER_TFT040_writeCommand(0x2B02);
 300              		.loc 1 47 5 view .LVU44
 301 0062 0E48     		ldr	r0, .L11+16
 302 0064 FFF7FEFF 		bl	ER_TFT040_writeCommand
ARM GAS  /var/folders/_5/7dt5dlyd7598cb98063hl5tr0000gn/T//cc5bI3Gx.s 			page 7


 303              	.LVL33:
  48:Core/Src/er_tft040.c ****     ER_TFT040_writeData(yEnd >> 8);
 304              		.loc 1 48 5 view .LVU45
 305 0068 4346     		mov	r3, r8
 306 006a 180A     		lsrs	r0, r3, #8
 307 006c FFF7FEFF 		bl	ER_TFT040_writeData
 308              	.LVL34:
  49:Core/Src/er_tft040.c ****     ER_TFT040_writeCommand(0x2B03);
 309              		.loc 1 49 5 view .LVU46
 310 0070 0B48     		ldr	r0, .L11+20
 311 0072 FFF7FEFF 		bl	ER_TFT040_writeCommand
 312              	.LVL35:
  50:Core/Src/er_tft040.c ****     ER_TFT040_writeData(yEnd & 0x00ff);
 313              		.loc 1 50 5 view .LVU47
 314 0076 4046     		mov	r0, r8
 315 0078 2040     		ands	r0, r4
 316 007a FFF7FEFF 		bl	ER_TFT040_writeData
 317              	.LVL36:
  51:Core/Src/er_tft040.c **** 
  52:Core/Src/er_tft040.c ****     ER_TFT040_writeCommand(0x2C00);
 318              		.loc 1 52 5 view .LVU48
 319 007e B020     		movs	r0, #176
 320 0080 8001     		lsls	r0, r0, #6
 321 0082 FFF7FEFF 		bl	ER_TFT040_writeCommand
 322              	.LVL37:
  53:Core/Src/er_tft040.c **** }
 323              		.loc 1 53 1 is_stmt 0 view .LVU49
 324              		@ sp needed
 325 0086 80BC     		pop	{r7}
 326 0088 B846     		mov	r8, r7
 327 008a F0BD     		pop	{r4, r5, r6, r7, pc}
 328              	.L12:
 329              		.align	2
 330              	.L11:
 331 008c 012A0000 		.word	10753
 332 0090 022A0000 		.word	10754
 333 0094 032A0000 		.word	10755
 334 0098 012B0000 		.word	11009
 335 009c 022B0000 		.word	11010
 336 00a0 032B0000 		.word	11011
 337              		.cfi_endproc
 338              	.LFE43:
 340              		.section	.text.ER_TFT040_clearLCD,"ax",%progbits
 341              		.align	1
 342              		.global	ER_TFT040_clearLCD
 343              		.syntax unified
 344              		.code	16
 345              		.thumb_func
 347              	ER_TFT040_clearLCD:
 348              	.LVL38:
 349              	.LFB45:
  54:Core/Src/er_tft040.c **** 
  55:Core/Src/er_tft040.c **** void ER_TFT040_init(void) {
  56:Core/Src/er_tft040.c ****     HAL_GPIO_WritePin(DISPLAY_RESET_GPIO_Port, DISPLAY_RESET_Pin, 1);
  57:Core/Src/er_tft040.c ****     HAL_Delay(10);
  58:Core/Src/er_tft040.c ****     HAL_GPIO_WritePin(DISPLAY_RESET_GPIO_Port, DISPLAY_RESET_Pin, 0);
  59:Core/Src/er_tft040.c ****     HAL_Delay(10);
ARM GAS  /var/folders/_5/7dt5dlyd7598cb98063hl5tr0000gn/T//cc5bI3Gx.s 			page 8


  60:Core/Src/er_tft040.c ****     HAL_GPIO_WritePin(DISPLAY_RESET_GPIO_Port, DISPLAY_RESET_Pin, 1);
  61:Core/Src/er_tft040.c ****     HAL_Delay(10);
  62:Core/Src/er_tft040.c **** 
  63:Core/Src/er_tft040.c ****     // 35510h
  64:Core/Src/er_tft040.c ****     ER_TFT040_writeCommand(0xF000);
  65:Core/Src/er_tft040.c ****     ER_TFT040_writeData(0x55);
  66:Core/Src/er_tft040.c ****     ER_TFT040_writeCommand(0xF001);
  67:Core/Src/er_tft040.c ****     ER_TFT040_writeData(0xAA);
  68:Core/Src/er_tft040.c ****     ER_TFT040_writeCommand(0xF002);
  69:Core/Src/er_tft040.c ****     ER_TFT040_writeData(0x52);
  70:Core/Src/er_tft040.c ****     ER_TFT040_writeCommand(0xF003);
  71:Core/Src/er_tft040.c ****     ER_TFT040_writeData(0x08);
  72:Core/Src/er_tft040.c ****     ER_TFT040_writeCommand(0xF004);
  73:Core/Src/er_tft040.c ****     ER_TFT040_writeData(0x01);
  74:Core/Src/er_tft040.c **** 
  75:Core/Src/er_tft040.c ****     // #AVDD Set AVDD 5.2V
  76:Core/Src/er_tft040.c ****     ER_TFT040_writeCommand(0xB000);
  77:Core/Src/er_tft040.c ****     ER_TFT040_writeData(0x0D);
  78:Core/Src/er_tft040.c ****     ER_TFT040_writeCommand(0xB001);
  79:Core/Src/er_tft040.c ****     ER_TFT040_writeData(0x0D);
  80:Core/Src/er_tft040.c ****     ER_TFT040_writeCommand(0xB002);
  81:Core/Src/er_tft040.c ****     ER_TFT040_writeData(0x0D);
  82:Core/Src/er_tft040.c **** 
  83:Core/Src/er_tft040.c ****     // #AVDD ratio
  84:Core/Src/er_tft040.c ****     ER_TFT040_writeCommand(0xB600);
  85:Core/Src/er_tft040.c ****     ER_TFT040_writeData(0x34);
  86:Core/Src/er_tft040.c ****     ER_TFT040_writeCommand(0xB601);
  87:Core/Src/er_tft040.c ****     ER_TFT040_writeData(0x34);
  88:Core/Src/er_tft040.c ****     ER_TFT040_writeCommand(0xB602);
  89:Core/Src/er_tft040.c ****     ER_TFT040_writeData(0x34);
  90:Core/Src/er_tft040.c **** 
  91:Core/Src/er_tft040.c ****     // #AVEE  -5.2V
  92:Core/Src/er_tft040.c ****     ER_TFT040_writeCommand(0xB100);
  93:Core/Src/er_tft040.c ****     ER_TFT040_writeData(0x0D);
  94:Core/Src/er_tft040.c ****     ER_TFT040_writeCommand(0xB101);
  95:Core/Src/er_tft040.c ****     ER_TFT040_writeData(0x0D);
  96:Core/Src/er_tft040.c ****     ER_TFT040_writeCommand(0xB102);
  97:Core/Src/er_tft040.c ****     ER_TFT040_writeData(0x0D);
  98:Core/Src/er_tft040.c **** 
  99:Core/Src/er_tft040.c ****     // #AVEE ratio
 100:Core/Src/er_tft040.c ****     ER_TFT040_writeCommand(0xB700);
 101:Core/Src/er_tft040.c ****     ER_TFT040_writeData(0x34);
 102:Core/Src/er_tft040.c ****     ER_TFT040_writeCommand(0xB701);
 103:Core/Src/er_tft040.c ****     ER_TFT040_writeData(0x34);
 104:Core/Src/er_tft040.c ****     ER_TFT040_writeCommand(0xB702);
 105:Core/Src/er_tft040.c ****     ER_TFT040_writeData(0x34);
 106:Core/Src/er_tft040.c **** 
 107:Core/Src/er_tft040.c ****     // #VCL  -2.5V
 108:Core/Src/er_tft040.c ****     ER_TFT040_writeCommand(0xB200);
 109:Core/Src/er_tft040.c ****     ER_TFT040_writeData(0x00);
 110:Core/Src/er_tft040.c ****     ER_TFT040_writeCommand(0xB201);
 111:Core/Src/er_tft040.c ****     ER_TFT040_writeData(0x00);
 112:Core/Src/er_tft040.c ****     ER_TFT040_writeCommand(0xB202);
 113:Core/Src/er_tft040.c ****     ER_TFT040_writeData(0x00);
 114:Core/Src/er_tft040.c **** 
 115:Core/Src/er_tft040.c ****     // #VCL ratio
 116:Core/Src/er_tft040.c ****     ER_TFT040_writeCommand(0xB800);
ARM GAS  /var/folders/_5/7dt5dlyd7598cb98063hl5tr0000gn/T//cc5bI3Gx.s 			page 9


 117:Core/Src/er_tft040.c ****     ER_TFT040_writeData(0x24);
 118:Core/Src/er_tft040.c ****     ER_TFT040_writeCommand(0xB801);
 119:Core/Src/er_tft040.c ****     ER_TFT040_writeData(0x24);
 120:Core/Src/er_tft040.c ****     ER_TFT040_writeCommand(0xB802);
 121:Core/Src/er_tft040.c ****     ER_TFT040_writeData(0x24);
 122:Core/Src/er_tft040.c **** 
 123:Core/Src/er_tft040.c ****     // #VGH  15V
 124:Core/Src/er_tft040.c ****     ER_TFT040_writeCommand(0xBF00);
 125:Core/Src/er_tft040.c ****     ER_TFT040_writeData(0x01);
 126:Core/Src/er_tft040.c ****     ER_TFT040_writeCommand(0xB300);
 127:Core/Src/er_tft040.c ****     ER_TFT040_writeData(0x0F);
 128:Core/Src/er_tft040.c ****     ER_TFT040_writeCommand(0xB301);
 129:Core/Src/er_tft040.c ****     ER_TFT040_writeData(0x0F);
 130:Core/Src/er_tft040.c ****     ER_TFT040_writeCommand(0xB302);
 131:Core/Src/er_tft040.c ****     ER_TFT040_writeData(0x0F);
 132:Core/Src/er_tft040.c **** 
 133:Core/Src/er_tft040.c ****     // #VGH  ratio
 134:Core/Src/er_tft040.c ****     ER_TFT040_writeCommand(0xB900);
 135:Core/Src/er_tft040.c ****     ER_TFT040_writeData(0x34);
 136:Core/Src/er_tft040.c ****     ER_TFT040_writeCommand(0xB901);
 137:Core/Src/er_tft040.c ****     ER_TFT040_writeData(0x34);
 138:Core/Src/er_tft040.c ****     ER_TFT040_writeCommand(0xB902);
 139:Core/Src/er_tft040.c ****     ER_TFT040_writeData(0x34);
 140:Core/Src/er_tft040.c **** 
 141:Core/Src/er_tft040.c ****     // #VGL_REG  -10V
 142:Core/Src/er_tft040.c ****     ER_TFT040_writeCommand(0xB500);
 143:Core/Src/er_tft040.c ****     ER_TFT040_writeData(0x08);
 144:Core/Src/er_tft040.c ****     ER_TFT040_writeCommand(0xB500);
 145:Core/Src/er_tft040.c ****     ER_TFT040_writeData(0x08);
 146:Core/Src/er_tft040.c ****     ER_TFT040_writeCommand(0xB501);
 147:Core/Src/er_tft040.c ****     ER_TFT040_writeData(0x08);
 148:Core/Src/er_tft040.c ****     ER_TFT040_writeCommand(0xC200);
 149:Core/Src/er_tft040.c ****     ER_TFT040_writeData(0x03);
 150:Core/Src/er_tft040.c **** 
 151:Core/Src/er_tft040.c ****     // #VGLX  ratio
 152:Core/Src/er_tft040.c ****     ER_TFT040_writeCommand(0xBA00);
 153:Core/Src/er_tft040.c ****     ER_TFT040_writeData(0x24);
 154:Core/Src/er_tft040.c ****     ER_TFT040_writeCommand(0xBA01);
 155:Core/Src/er_tft040.c ****     ER_TFT040_writeData(0x24);
 156:Core/Src/er_tft040.c ****     ER_TFT040_writeCommand(0xBA02);
 157:Core/Src/er_tft040.c ****     ER_TFT040_writeData(0x24);
 158:Core/Src/er_tft040.c **** 
 159:Core/Src/er_tft040.c ****     // #VGMP/VGSP 4.5V/0V
 160:Core/Src/er_tft040.c ****     ER_TFT040_writeCommand(0xBC00);
 161:Core/Src/er_tft040.c ****     ER_TFT040_writeData(0x00);
 162:Core/Src/er_tft040.c ****     ER_TFT040_writeCommand(0xBC01);
 163:Core/Src/er_tft040.c ****     ER_TFT040_writeData(0x78);
 164:Core/Src/er_tft040.c ****     ER_TFT040_writeCommand(0xBC02);
 165:Core/Src/er_tft040.c ****     ER_TFT040_writeData(0x00);
 166:Core/Src/er_tft040.c **** 
 167:Core/Src/er_tft040.c ****     // #VGMN/VGSN -4.5V/0V
 168:Core/Src/er_tft040.c ****     ER_TFT040_writeCommand(0xBD00);
 169:Core/Src/er_tft040.c ****     ER_TFT040_writeData(0x00);
 170:Core/Src/er_tft040.c ****     ER_TFT040_writeCommand(0xBD01);
 171:Core/Src/er_tft040.c ****     ER_TFT040_writeData(0x78);
 172:Core/Src/er_tft040.c ****     ER_TFT040_writeCommand(0xBD02);
 173:Core/Src/er_tft040.c ****     ER_TFT040_writeData(0x00);
ARM GAS  /var/folders/_5/7dt5dlyd7598cb98063hl5tr0000gn/T//cc5bI3Gx.s 			page 10


 174:Core/Src/er_tft040.c **** 
 175:Core/Src/er_tft040.c ****     // #VCOM  -1.325V
 176:Core/Src/er_tft040.c ****     ER_TFT040_writeCommand(0xBE00);
 177:Core/Src/er_tft040.c ****     ER_TFT040_writeData(0x00);
 178:Core/Src/er_tft040.c ****     ER_TFT040_writeCommand(0xBE01);
 179:Core/Src/er_tft040.c ****     ER_TFT040_writeData(0x89);  // 69
 180:Core/Src/er_tft040.c **** 
 181:Core/Src/er_tft040.c ****     // Gamma Setting
 182:Core/Src/er_tft040.c ****     ER_TFT040_writeCommand(0xD100);
 183:Core/Src/er_tft040.c ****     ER_TFT040_writeData(0x00);
 184:Core/Src/er_tft040.c ****     ER_TFT040_writeCommand(0xD101);
 185:Core/Src/er_tft040.c ****     ER_TFT040_writeData(0x2D);
 186:Core/Src/er_tft040.c ****     ER_TFT040_writeCommand(0xD102);
 187:Core/Src/er_tft040.c ****     ER_TFT040_writeData(0x00);
 188:Core/Src/er_tft040.c ****     ER_TFT040_writeCommand(0xD103);
 189:Core/Src/er_tft040.c ****     ER_TFT040_writeData(0x2E);
 190:Core/Src/er_tft040.c ****     ER_TFT040_writeCommand(0xD104);
 191:Core/Src/er_tft040.c ****     ER_TFT040_writeData(0x00);
 192:Core/Src/er_tft040.c ****     ER_TFT040_writeCommand(0xD105);
 193:Core/Src/er_tft040.c ****     ER_TFT040_writeData(0x32);
 194:Core/Src/er_tft040.c ****     ER_TFT040_writeCommand(0xD106);
 195:Core/Src/er_tft040.c ****     ER_TFT040_writeData(0x00);
 196:Core/Src/er_tft040.c ****     ER_TFT040_writeCommand(0xD107);
 197:Core/Src/er_tft040.c ****     ER_TFT040_writeData(0x44);
 198:Core/Src/er_tft040.c ****     ER_TFT040_writeCommand(0xD108);
 199:Core/Src/er_tft040.c ****     ER_TFT040_writeData(0x00);
 200:Core/Src/er_tft040.c ****     ER_TFT040_writeCommand(0xD109);
 201:Core/Src/er_tft040.c ****     ER_TFT040_writeData(0x53);
 202:Core/Src/er_tft040.c ****     ER_TFT040_writeCommand(0xD10A);
 203:Core/Src/er_tft040.c ****     ER_TFT040_writeData(0x00);
 204:Core/Src/er_tft040.c ****     ER_TFT040_writeCommand(0xD10B);
 205:Core/Src/er_tft040.c ****     ER_TFT040_writeData(0x88);
 206:Core/Src/er_tft040.c ****     ER_TFT040_writeCommand(0xD10C);
 207:Core/Src/er_tft040.c ****     ER_TFT040_writeData(0x00);
 208:Core/Src/er_tft040.c ****     ER_TFT040_writeCommand(0xD10D);
 209:Core/Src/er_tft040.c ****     ER_TFT040_writeData(0xB6);
 210:Core/Src/er_tft040.c ****     ER_TFT040_writeCommand(0xD10E);
 211:Core/Src/er_tft040.c ****     ER_TFT040_writeData(0x00);
 212:Core/Src/er_tft040.c ****     ER_TFT040_writeCommand(0xD10F);
 213:Core/Src/er_tft040.c ****     ER_TFT040_writeData(0xF3);  //
 214:Core/Src/er_tft040.c ****     ER_TFT040_writeCommand(0xD110);
 215:Core/Src/er_tft040.c ****     ER_TFT040_writeData(0x01);
 216:Core/Src/er_tft040.c ****     ER_TFT040_writeCommand(0xD111);
 217:Core/Src/er_tft040.c ****     ER_TFT040_writeData(0x22);
 218:Core/Src/er_tft040.c ****     ER_TFT040_writeCommand(0xD112);
 219:Core/Src/er_tft040.c ****     ER_TFT040_writeData(0x01);
 220:Core/Src/er_tft040.c ****     ER_TFT040_writeCommand(0xD113);
 221:Core/Src/er_tft040.c ****     ER_TFT040_writeData(0x64);
 222:Core/Src/er_tft040.c ****     ER_TFT040_writeCommand(0xD114);
 223:Core/Src/er_tft040.c ****     ER_TFT040_writeData(0x01);
 224:Core/Src/er_tft040.c ****     ER_TFT040_writeCommand(0xD115);
 225:Core/Src/er_tft040.c ****     ER_TFT040_writeData(0x92);
 226:Core/Src/er_tft040.c ****     ER_TFT040_writeCommand(0xD116);
 227:Core/Src/er_tft040.c ****     ER_TFT040_writeData(0x01);
 228:Core/Src/er_tft040.c ****     ER_TFT040_writeCommand(0xD117);
 229:Core/Src/er_tft040.c ****     ER_TFT040_writeData(0xD4);
 230:Core/Src/er_tft040.c ****     ER_TFT040_writeCommand(0xD118);
ARM GAS  /var/folders/_5/7dt5dlyd7598cb98063hl5tr0000gn/T//cc5bI3Gx.s 			page 11


 231:Core/Src/er_tft040.c ****     ER_TFT040_writeData(0x02);
 232:Core/Src/er_tft040.c ****     ER_TFT040_writeCommand(0xD119);
 233:Core/Src/er_tft040.c ****     ER_TFT040_writeData(0x07);
 234:Core/Src/er_tft040.c ****     ER_TFT040_writeCommand(0xD11A);
 235:Core/Src/er_tft040.c ****     ER_TFT040_writeData(0x02);
 236:Core/Src/er_tft040.c ****     ER_TFT040_writeCommand(0xD11B);
 237:Core/Src/er_tft040.c ****     ER_TFT040_writeData(0x08);
 238:Core/Src/er_tft040.c ****     ER_TFT040_writeCommand(0xD11C);
 239:Core/Src/er_tft040.c ****     ER_TFT040_writeData(0x02);
 240:Core/Src/er_tft040.c ****     ER_TFT040_writeCommand(0xD11D);
 241:Core/Src/er_tft040.c ****     ER_TFT040_writeData(0x34);
 242:Core/Src/er_tft040.c ****     ER_TFT040_writeCommand(0xD11E);
 243:Core/Src/er_tft040.c ****     ER_TFT040_writeData(0x02);
 244:Core/Src/er_tft040.c ****     ER_TFT040_writeCommand(0xD11F);
 245:Core/Src/er_tft040.c ****     ER_TFT040_writeData(0x5F);  //
 246:Core/Src/er_tft040.c ****     ER_TFT040_writeCommand(0xD120);
 247:Core/Src/er_tft040.c ****     ER_TFT040_writeData(0x02);
 248:Core/Src/er_tft040.c ****     ER_TFT040_writeCommand(0xD121);
 249:Core/Src/er_tft040.c ****     ER_TFT040_writeData(0x78);
 250:Core/Src/er_tft040.c ****     ER_TFT040_writeCommand(0xD122);
 251:Core/Src/er_tft040.c ****     ER_TFT040_writeData(0x02);
 252:Core/Src/er_tft040.c ****     ER_TFT040_writeCommand(0xD123);
 253:Core/Src/er_tft040.c ****     ER_TFT040_writeData(0x94);
 254:Core/Src/er_tft040.c ****     ER_TFT040_writeCommand(0xD124);
 255:Core/Src/er_tft040.c ****     ER_TFT040_writeData(0x02);
 256:Core/Src/er_tft040.c ****     ER_TFT040_writeCommand(0xD125);
 257:Core/Src/er_tft040.c ****     ER_TFT040_writeData(0xA6);
 258:Core/Src/er_tft040.c ****     ER_TFT040_writeCommand(0xD126);
 259:Core/Src/er_tft040.c ****     ER_TFT040_writeData(0x02);
 260:Core/Src/er_tft040.c ****     ER_TFT040_writeCommand(0xD127);
 261:Core/Src/er_tft040.c ****     ER_TFT040_writeData(0xBB);
 262:Core/Src/er_tft040.c ****     ER_TFT040_writeCommand(0xD128);
 263:Core/Src/er_tft040.c ****     ER_TFT040_writeData(0x02);
 264:Core/Src/er_tft040.c ****     ER_TFT040_writeCommand(0xD129);
 265:Core/Src/er_tft040.c ****     ER_TFT040_writeData(0xCA);
 266:Core/Src/er_tft040.c ****     ER_TFT040_writeCommand(0xD12A);
 267:Core/Src/er_tft040.c ****     ER_TFT040_writeData(0x02);
 268:Core/Src/er_tft040.c ****     ER_TFT040_writeCommand(0xD12B);
 269:Core/Src/er_tft040.c ****     ER_TFT040_writeData(0xDB);
 270:Core/Src/er_tft040.c ****     ER_TFT040_writeCommand(0xD12C);
 271:Core/Src/er_tft040.c ****     ER_TFT040_writeData(0x02);
 272:Core/Src/er_tft040.c ****     ER_TFT040_writeCommand(0xD12D);
 273:Core/Src/er_tft040.c ****     ER_TFT040_writeData(0xE8);
 274:Core/Src/er_tft040.c ****     ER_TFT040_writeCommand(0xD12E);
 275:Core/Src/er_tft040.c ****     ER_TFT040_writeData(0x02);
 276:Core/Src/er_tft040.c ****     ER_TFT040_writeCommand(0xD12F);
 277:Core/Src/er_tft040.c ****     ER_TFT040_writeData(0xF9);  //
 278:Core/Src/er_tft040.c ****     ER_TFT040_writeCommand(0xD130);
 279:Core/Src/er_tft040.c ****     ER_TFT040_writeData(0x03);
 280:Core/Src/er_tft040.c ****     ER_TFT040_writeCommand(0xD131);
 281:Core/Src/er_tft040.c ****     ER_TFT040_writeData(0x1F);
 282:Core/Src/er_tft040.c ****     ER_TFT040_writeCommand(0xD132);
 283:Core/Src/er_tft040.c ****     ER_TFT040_writeData(0x03);
 284:Core/Src/er_tft040.c ****     ER_TFT040_writeCommand(0xD133);
 285:Core/Src/er_tft040.c ****     ER_TFT040_writeData(0x7F);
 286:Core/Src/er_tft040.c **** 
 287:Core/Src/er_tft040.c ****     ER_TFT040_writeCommand(0xD200);
ARM GAS  /var/folders/_5/7dt5dlyd7598cb98063hl5tr0000gn/T//cc5bI3Gx.s 			page 12


 288:Core/Src/er_tft040.c ****     ER_TFT040_writeData(0x00);
 289:Core/Src/er_tft040.c ****     ER_TFT040_writeCommand(0xD201);
 290:Core/Src/er_tft040.c ****     ER_TFT040_writeData(0x2D);
 291:Core/Src/er_tft040.c ****     ER_TFT040_writeCommand(0xD202);
 292:Core/Src/er_tft040.c ****     ER_TFT040_writeData(0x00);
 293:Core/Src/er_tft040.c ****     ER_TFT040_writeCommand(0xD203);
 294:Core/Src/er_tft040.c ****     ER_TFT040_writeData(0x2E);
 295:Core/Src/er_tft040.c ****     ER_TFT040_writeCommand(0xD204);
 296:Core/Src/er_tft040.c ****     ER_TFT040_writeData(0x00);
 297:Core/Src/er_tft040.c ****     ER_TFT040_writeCommand(0xD205);
 298:Core/Src/er_tft040.c ****     ER_TFT040_writeData(0x32);
 299:Core/Src/er_tft040.c ****     ER_TFT040_writeCommand(0xD206);
 300:Core/Src/er_tft040.c ****     ER_TFT040_writeData(0x00);
 301:Core/Src/er_tft040.c ****     ER_TFT040_writeCommand(0xD207);
 302:Core/Src/er_tft040.c ****     ER_TFT040_writeData(0x44);
 303:Core/Src/er_tft040.c ****     ER_TFT040_writeCommand(0xD208);
 304:Core/Src/er_tft040.c ****     ER_TFT040_writeData(0x00);
 305:Core/Src/er_tft040.c ****     ER_TFT040_writeCommand(0xD209);
 306:Core/Src/er_tft040.c ****     ER_TFT040_writeData(0x53);
 307:Core/Src/er_tft040.c ****     ER_TFT040_writeCommand(0xD20A);
 308:Core/Src/er_tft040.c ****     ER_TFT040_writeData(0x00);
 309:Core/Src/er_tft040.c ****     ER_TFT040_writeCommand(0xD20B);
 310:Core/Src/er_tft040.c ****     ER_TFT040_writeData(0x88);
 311:Core/Src/er_tft040.c ****     ER_TFT040_writeCommand(0xD20C);
 312:Core/Src/er_tft040.c ****     ER_TFT040_writeData(0x00);
 313:Core/Src/er_tft040.c ****     ER_TFT040_writeCommand(0xD20D);
 314:Core/Src/er_tft040.c ****     ER_TFT040_writeData(0xB6);
 315:Core/Src/er_tft040.c ****     ER_TFT040_writeCommand(0xD20E);
 316:Core/Src/er_tft040.c ****     ER_TFT040_writeData(0x00);
 317:Core/Src/er_tft040.c ****     ER_TFT040_writeCommand(0xD20F);
 318:Core/Src/er_tft040.c ****     ER_TFT040_writeData(0xF3);  //
 319:Core/Src/er_tft040.c ****     ER_TFT040_writeCommand(0xD210);
 320:Core/Src/er_tft040.c ****     ER_TFT040_writeData(0x01);
 321:Core/Src/er_tft040.c ****     ER_TFT040_writeCommand(0xD211);
 322:Core/Src/er_tft040.c ****     ER_TFT040_writeData(0x22);
 323:Core/Src/er_tft040.c ****     ER_TFT040_writeCommand(0xD212);
 324:Core/Src/er_tft040.c ****     ER_TFT040_writeData(0x01);
 325:Core/Src/er_tft040.c ****     ER_TFT040_writeCommand(0xD213);
 326:Core/Src/er_tft040.c ****     ER_TFT040_writeData(0x64);
 327:Core/Src/er_tft040.c ****     ER_TFT040_writeCommand(0xD214);
 328:Core/Src/er_tft040.c ****     ER_TFT040_writeData(0x01);
 329:Core/Src/er_tft040.c ****     ER_TFT040_writeCommand(0xD215);
 330:Core/Src/er_tft040.c ****     ER_TFT040_writeData(0x92);
 331:Core/Src/er_tft040.c ****     ER_TFT040_writeCommand(0xD216);
 332:Core/Src/er_tft040.c ****     ER_TFT040_writeData(0x01);
 333:Core/Src/er_tft040.c ****     ER_TFT040_writeCommand(0xD217);
 334:Core/Src/er_tft040.c ****     ER_TFT040_writeData(0xD4);
 335:Core/Src/er_tft040.c ****     ER_TFT040_writeCommand(0xD218);
 336:Core/Src/er_tft040.c ****     ER_TFT040_writeData(0x02);
 337:Core/Src/er_tft040.c ****     ER_TFT040_writeCommand(0xD219);
 338:Core/Src/er_tft040.c ****     ER_TFT040_writeData(0x07);
 339:Core/Src/er_tft040.c ****     ER_TFT040_writeCommand(0xD21A);
 340:Core/Src/er_tft040.c ****     ER_TFT040_writeData(0x02);
 341:Core/Src/er_tft040.c ****     ER_TFT040_writeCommand(0xD21B);
 342:Core/Src/er_tft040.c ****     ER_TFT040_writeData(0x08);
 343:Core/Src/er_tft040.c ****     ER_TFT040_writeCommand(0xD21C);
 344:Core/Src/er_tft040.c ****     ER_TFT040_writeData(0x02);
ARM GAS  /var/folders/_5/7dt5dlyd7598cb98063hl5tr0000gn/T//cc5bI3Gx.s 			page 13


 345:Core/Src/er_tft040.c ****     ER_TFT040_writeCommand(0xD21D);
 346:Core/Src/er_tft040.c ****     ER_TFT040_writeData(0x34);
 347:Core/Src/er_tft040.c ****     ER_TFT040_writeCommand(0xD21E);
 348:Core/Src/er_tft040.c ****     ER_TFT040_writeData(0x02);
 349:Core/Src/er_tft040.c ****     ER_TFT040_writeCommand(0xD21F);
 350:Core/Src/er_tft040.c ****     ER_TFT040_writeData(0x5F);  //
 351:Core/Src/er_tft040.c ****     ER_TFT040_writeCommand(0xD220);
 352:Core/Src/er_tft040.c ****     ER_TFT040_writeData(0x02);
 353:Core/Src/er_tft040.c ****     ER_TFT040_writeCommand(0xD221);
 354:Core/Src/er_tft040.c ****     ER_TFT040_writeData(0x78);
 355:Core/Src/er_tft040.c ****     ER_TFT040_writeCommand(0xD222);
 356:Core/Src/er_tft040.c ****     ER_TFT040_writeData(0x02);
 357:Core/Src/er_tft040.c ****     ER_TFT040_writeCommand(0xD223);
 358:Core/Src/er_tft040.c ****     ER_TFT040_writeData(0x94);
 359:Core/Src/er_tft040.c ****     ER_TFT040_writeCommand(0xD224);
 360:Core/Src/er_tft040.c ****     ER_TFT040_writeData(0x02);
 361:Core/Src/er_tft040.c ****     ER_TFT040_writeCommand(0xD225);
 362:Core/Src/er_tft040.c ****     ER_TFT040_writeData(0xA6);
 363:Core/Src/er_tft040.c ****     ER_TFT040_writeCommand(0xD226);
 364:Core/Src/er_tft040.c ****     ER_TFT040_writeData(0x02);
 365:Core/Src/er_tft040.c ****     ER_TFT040_writeCommand(0xD227);
 366:Core/Src/er_tft040.c ****     ER_TFT040_writeData(0xBB);
 367:Core/Src/er_tft040.c ****     ER_TFT040_writeCommand(0xD228);
 368:Core/Src/er_tft040.c ****     ER_TFT040_writeData(0x02);
 369:Core/Src/er_tft040.c ****     ER_TFT040_writeCommand(0xD229);
 370:Core/Src/er_tft040.c ****     ER_TFT040_writeData(0xCA);
 371:Core/Src/er_tft040.c ****     ER_TFT040_writeCommand(0xD22A);
 372:Core/Src/er_tft040.c ****     ER_TFT040_writeData(0x02);
 373:Core/Src/er_tft040.c ****     ER_TFT040_writeCommand(0xD22B);
 374:Core/Src/er_tft040.c ****     ER_TFT040_writeData(0xDB);
 375:Core/Src/er_tft040.c ****     ER_TFT040_writeCommand(0xD22C);
 376:Core/Src/er_tft040.c ****     ER_TFT040_writeData(0x02);
 377:Core/Src/er_tft040.c ****     ER_TFT040_writeCommand(0xD22D);
 378:Core/Src/er_tft040.c ****     ER_TFT040_writeData(0xE8);
 379:Core/Src/er_tft040.c ****     ER_TFT040_writeCommand(0xD22E);
 380:Core/Src/er_tft040.c ****     ER_TFT040_writeData(0x02);
 381:Core/Src/er_tft040.c ****     ER_TFT040_writeCommand(0xD22F);
 382:Core/Src/er_tft040.c ****     ER_TFT040_writeData(0xF9);  //
 383:Core/Src/er_tft040.c ****     ER_TFT040_writeCommand(0xD230);
 384:Core/Src/er_tft040.c ****     ER_TFT040_writeData(0x03);
 385:Core/Src/er_tft040.c ****     ER_TFT040_writeCommand(0xD231);
 386:Core/Src/er_tft040.c ****     ER_TFT040_writeData(0x1F);
 387:Core/Src/er_tft040.c ****     ER_TFT040_writeCommand(0xD232);
 388:Core/Src/er_tft040.c ****     ER_TFT040_writeData(0x03);
 389:Core/Src/er_tft040.c ****     ER_TFT040_writeCommand(0xD233);
 390:Core/Src/er_tft040.c ****     ER_TFT040_writeData(0x7F);
 391:Core/Src/er_tft040.c **** 
 392:Core/Src/er_tft040.c ****     ER_TFT040_writeCommand(0xD300);
 393:Core/Src/er_tft040.c ****     ER_TFT040_writeData(0x00);
 394:Core/Src/er_tft040.c ****     ER_TFT040_writeCommand(0xD301);
 395:Core/Src/er_tft040.c ****     ER_TFT040_writeData(0x2D);
 396:Core/Src/er_tft040.c ****     ER_TFT040_writeCommand(0xD302);
 397:Core/Src/er_tft040.c ****     ER_TFT040_writeData(0x00);
 398:Core/Src/er_tft040.c ****     ER_TFT040_writeCommand(0xD303);
 399:Core/Src/er_tft040.c ****     ER_TFT040_writeData(0x2E);
 400:Core/Src/er_tft040.c ****     ER_TFT040_writeCommand(0xD304);
 401:Core/Src/er_tft040.c ****     ER_TFT040_writeData(0x00);
ARM GAS  /var/folders/_5/7dt5dlyd7598cb98063hl5tr0000gn/T//cc5bI3Gx.s 			page 14


 402:Core/Src/er_tft040.c ****     ER_TFT040_writeCommand(0xD305);
 403:Core/Src/er_tft040.c ****     ER_TFT040_writeData(0x32);
 404:Core/Src/er_tft040.c ****     ER_TFT040_writeCommand(0xD306);
 405:Core/Src/er_tft040.c ****     ER_TFT040_writeData(0x00);
 406:Core/Src/er_tft040.c ****     ER_TFT040_writeCommand(0xD307);
 407:Core/Src/er_tft040.c ****     ER_TFT040_writeData(0x44);
 408:Core/Src/er_tft040.c ****     ER_TFT040_writeCommand(0xD308);
 409:Core/Src/er_tft040.c ****     ER_TFT040_writeData(0x00);
 410:Core/Src/er_tft040.c ****     ER_TFT040_writeCommand(0xD309);
 411:Core/Src/er_tft040.c ****     ER_TFT040_writeData(0x53);
 412:Core/Src/er_tft040.c ****     ER_TFT040_writeCommand(0xD30A);
 413:Core/Src/er_tft040.c ****     ER_TFT040_writeData(0x00);
 414:Core/Src/er_tft040.c ****     ER_TFT040_writeCommand(0xD30B);
 415:Core/Src/er_tft040.c ****     ER_TFT040_writeData(0x88);
 416:Core/Src/er_tft040.c ****     ER_TFT040_writeCommand(0xD30C);
 417:Core/Src/er_tft040.c ****     ER_TFT040_writeData(0x00);
 418:Core/Src/er_tft040.c ****     ER_TFT040_writeCommand(0xD30D);
 419:Core/Src/er_tft040.c ****     ER_TFT040_writeData(0xB6);
 420:Core/Src/er_tft040.c ****     ER_TFT040_writeCommand(0xD30E);
 421:Core/Src/er_tft040.c ****     ER_TFT040_writeData(0x00);
 422:Core/Src/er_tft040.c ****     ER_TFT040_writeCommand(0xD30F);
 423:Core/Src/er_tft040.c ****     ER_TFT040_writeData(0xF3);  //
 424:Core/Src/er_tft040.c ****     ER_TFT040_writeCommand(0xD310);
 425:Core/Src/er_tft040.c ****     ER_TFT040_writeData(0x01);
 426:Core/Src/er_tft040.c ****     ER_TFT040_writeCommand(0xD311);
 427:Core/Src/er_tft040.c ****     ER_TFT040_writeData(0x22);
 428:Core/Src/er_tft040.c ****     ER_TFT040_writeCommand(0xD312);
 429:Core/Src/er_tft040.c ****     ER_TFT040_writeData(0x01);
 430:Core/Src/er_tft040.c ****     ER_TFT040_writeCommand(0xD313);
 431:Core/Src/er_tft040.c ****     ER_TFT040_writeData(0x64);
 432:Core/Src/er_tft040.c ****     ER_TFT040_writeCommand(0xD314);
 433:Core/Src/er_tft040.c ****     ER_TFT040_writeData(0x01);
 434:Core/Src/er_tft040.c ****     ER_TFT040_writeCommand(0xD315);
 435:Core/Src/er_tft040.c ****     ER_TFT040_writeData(0x92);
 436:Core/Src/er_tft040.c ****     ER_TFT040_writeCommand(0xD316);
 437:Core/Src/er_tft040.c ****     ER_TFT040_writeData(0x01);
 438:Core/Src/er_tft040.c ****     ER_TFT040_writeCommand(0xD317);
 439:Core/Src/er_tft040.c ****     ER_TFT040_writeData(0xD4);
 440:Core/Src/er_tft040.c ****     ER_TFT040_writeCommand(0xD318);
 441:Core/Src/er_tft040.c ****     ER_TFT040_writeData(0x02);
 442:Core/Src/er_tft040.c ****     ER_TFT040_writeCommand(0xD319);
 443:Core/Src/er_tft040.c ****     ER_TFT040_writeData(0x07);
 444:Core/Src/er_tft040.c ****     ER_TFT040_writeCommand(0xD31A);
 445:Core/Src/er_tft040.c ****     ER_TFT040_writeData(0x02);
 446:Core/Src/er_tft040.c ****     ER_TFT040_writeCommand(0xD31B);
 447:Core/Src/er_tft040.c ****     ER_TFT040_writeData(0x08);
 448:Core/Src/er_tft040.c ****     ER_TFT040_writeCommand(0xD31C);
 449:Core/Src/er_tft040.c ****     ER_TFT040_writeData(0x02);
 450:Core/Src/er_tft040.c ****     ER_TFT040_writeCommand(0xD31D);
 451:Core/Src/er_tft040.c ****     ER_TFT040_writeData(0x34);
 452:Core/Src/er_tft040.c ****     ER_TFT040_writeCommand(0xD31E);
 453:Core/Src/er_tft040.c ****     ER_TFT040_writeData(0x02);
 454:Core/Src/er_tft040.c ****     ER_TFT040_writeCommand(0xD31F);
 455:Core/Src/er_tft040.c ****     ER_TFT040_writeData(0x5F);  //
 456:Core/Src/er_tft040.c ****     ER_TFT040_writeCommand(0xD320);
 457:Core/Src/er_tft040.c ****     ER_TFT040_writeData(0x02);
 458:Core/Src/er_tft040.c ****     ER_TFT040_writeCommand(0xD321);
ARM GAS  /var/folders/_5/7dt5dlyd7598cb98063hl5tr0000gn/T//cc5bI3Gx.s 			page 15


 459:Core/Src/er_tft040.c ****     ER_TFT040_writeData(0x78);
 460:Core/Src/er_tft040.c ****     ER_TFT040_writeCommand(0xD322);
 461:Core/Src/er_tft040.c ****     ER_TFT040_writeData(0x02);
 462:Core/Src/er_tft040.c ****     ER_TFT040_writeCommand(0xD323);
 463:Core/Src/er_tft040.c ****     ER_TFT040_writeData(0x94);
 464:Core/Src/er_tft040.c ****     ER_TFT040_writeCommand(0xD324);
 465:Core/Src/er_tft040.c ****     ER_TFT040_writeData(0x02);
 466:Core/Src/er_tft040.c ****     ER_TFT040_writeCommand(0xD325);
 467:Core/Src/er_tft040.c ****     ER_TFT040_writeData(0xA6);
 468:Core/Src/er_tft040.c ****     ER_TFT040_writeCommand(0xD326);
 469:Core/Src/er_tft040.c ****     ER_TFT040_writeData(0x02);
 470:Core/Src/er_tft040.c ****     ER_TFT040_writeCommand(0xD327);
 471:Core/Src/er_tft040.c ****     ER_TFT040_writeData(0xBB);
 472:Core/Src/er_tft040.c ****     ER_TFT040_writeCommand(0xD328);
 473:Core/Src/er_tft040.c ****     ER_TFT040_writeData(0x02);
 474:Core/Src/er_tft040.c ****     ER_TFT040_writeCommand(0xD329);
 475:Core/Src/er_tft040.c ****     ER_TFT040_writeData(0xCA);
 476:Core/Src/er_tft040.c ****     ER_TFT040_writeCommand(0xD32A);
 477:Core/Src/er_tft040.c ****     ER_TFT040_writeData(0x02);
 478:Core/Src/er_tft040.c ****     ER_TFT040_writeCommand(0xD32B);
 479:Core/Src/er_tft040.c ****     ER_TFT040_writeData(0xDB);
 480:Core/Src/er_tft040.c ****     ER_TFT040_writeCommand(0xD32C);
 481:Core/Src/er_tft040.c ****     ER_TFT040_writeData(0x02);
 482:Core/Src/er_tft040.c ****     ER_TFT040_writeCommand(0xD32D);
 483:Core/Src/er_tft040.c ****     ER_TFT040_writeData(0xE8);
 484:Core/Src/er_tft040.c ****     ER_TFT040_writeCommand(0xD32E);
 485:Core/Src/er_tft040.c ****     ER_TFT040_writeData(0x02);
 486:Core/Src/er_tft040.c ****     ER_TFT040_writeCommand(0xD32F);
 487:Core/Src/er_tft040.c ****     ER_TFT040_writeData(0xF9);  //
 488:Core/Src/er_tft040.c ****     ER_TFT040_writeCommand(0xD330);
 489:Core/Src/er_tft040.c ****     ER_TFT040_writeData(0x03);
 490:Core/Src/er_tft040.c ****     ER_TFT040_writeCommand(0xD331);
 491:Core/Src/er_tft040.c ****     ER_TFT040_writeData(0x1F);
 492:Core/Src/er_tft040.c ****     ER_TFT040_writeCommand(0xD332);
 493:Core/Src/er_tft040.c ****     ER_TFT040_writeData(0x03);
 494:Core/Src/er_tft040.c ****     ER_TFT040_writeCommand(0xD333);
 495:Core/Src/er_tft040.c ****     ER_TFT040_writeData(0x7F);
 496:Core/Src/er_tft040.c **** 
 497:Core/Src/er_tft040.c ****     ER_TFT040_writeCommand(0xD400);
 498:Core/Src/er_tft040.c ****     ER_TFT040_writeData(0x00);
 499:Core/Src/er_tft040.c ****     ER_TFT040_writeCommand(0xD401);
 500:Core/Src/er_tft040.c ****     ER_TFT040_writeData(0x2D);
 501:Core/Src/er_tft040.c ****     ER_TFT040_writeCommand(0xD402);
 502:Core/Src/er_tft040.c ****     ER_TFT040_writeData(0x00);
 503:Core/Src/er_tft040.c ****     ER_TFT040_writeCommand(0xD403);
 504:Core/Src/er_tft040.c ****     ER_TFT040_writeData(0x2E);
 505:Core/Src/er_tft040.c ****     ER_TFT040_writeCommand(0xD404);
 506:Core/Src/er_tft040.c ****     ER_TFT040_writeData(0x00);
 507:Core/Src/er_tft040.c ****     ER_TFT040_writeCommand(0xD405);
 508:Core/Src/er_tft040.c ****     ER_TFT040_writeData(0x32);
 509:Core/Src/er_tft040.c ****     ER_TFT040_writeCommand(0xD406);
 510:Core/Src/er_tft040.c ****     ER_TFT040_writeData(0x00);
 511:Core/Src/er_tft040.c ****     ER_TFT040_writeCommand(0xD407);
 512:Core/Src/er_tft040.c ****     ER_TFT040_writeData(0x44);
 513:Core/Src/er_tft040.c ****     ER_TFT040_writeCommand(0xD408);
 514:Core/Src/er_tft040.c ****     ER_TFT040_writeData(0x00);
 515:Core/Src/er_tft040.c ****     ER_TFT040_writeCommand(0xD409);
ARM GAS  /var/folders/_5/7dt5dlyd7598cb98063hl5tr0000gn/T//cc5bI3Gx.s 			page 16


 516:Core/Src/er_tft040.c ****     ER_TFT040_writeData(0x53);
 517:Core/Src/er_tft040.c ****     ER_TFT040_writeCommand(0xD40A);
 518:Core/Src/er_tft040.c ****     ER_TFT040_writeData(0x00);
 519:Core/Src/er_tft040.c ****     ER_TFT040_writeCommand(0xD40B);
 520:Core/Src/er_tft040.c ****     ER_TFT040_writeData(0x88);
 521:Core/Src/er_tft040.c ****     ER_TFT040_writeCommand(0xD40C);
 522:Core/Src/er_tft040.c ****     ER_TFT040_writeData(0x00);
 523:Core/Src/er_tft040.c ****     ER_TFT040_writeCommand(0xD40D);
 524:Core/Src/er_tft040.c ****     ER_TFT040_writeData(0xB6);
 525:Core/Src/er_tft040.c ****     ER_TFT040_writeCommand(0xD40E);
 526:Core/Src/er_tft040.c ****     ER_TFT040_writeData(0x00);
 527:Core/Src/er_tft040.c ****     ER_TFT040_writeCommand(0xD40F);
 528:Core/Src/er_tft040.c ****     ER_TFT040_writeData(0xF3);  //
 529:Core/Src/er_tft040.c ****     ER_TFT040_writeCommand(0xD410);
 530:Core/Src/er_tft040.c ****     ER_TFT040_writeData(0x01);
 531:Core/Src/er_tft040.c ****     ER_TFT040_writeCommand(0xD411);
 532:Core/Src/er_tft040.c ****     ER_TFT040_writeData(0x22);
 533:Core/Src/er_tft040.c ****     ER_TFT040_writeCommand(0xD412);
 534:Core/Src/er_tft040.c ****     ER_TFT040_writeData(0x01);
 535:Core/Src/er_tft040.c ****     ER_TFT040_writeCommand(0xD413);
 536:Core/Src/er_tft040.c ****     ER_TFT040_writeData(0x64);
 537:Core/Src/er_tft040.c ****     ER_TFT040_writeCommand(0xD414);
 538:Core/Src/er_tft040.c ****     ER_TFT040_writeData(0x01);
 539:Core/Src/er_tft040.c ****     ER_TFT040_writeCommand(0xD415);
 540:Core/Src/er_tft040.c ****     ER_TFT040_writeData(0x92);
 541:Core/Src/er_tft040.c ****     ER_TFT040_writeCommand(0xD416);
 542:Core/Src/er_tft040.c ****     ER_TFT040_writeData(0x01);
 543:Core/Src/er_tft040.c ****     ER_TFT040_writeCommand(0xD417);
 544:Core/Src/er_tft040.c ****     ER_TFT040_writeData(0xD4);
 545:Core/Src/er_tft040.c ****     ER_TFT040_writeCommand(0xD418);
 546:Core/Src/er_tft040.c ****     ER_TFT040_writeData(0x02);
 547:Core/Src/er_tft040.c ****     ER_TFT040_writeCommand(0xD419);
 548:Core/Src/er_tft040.c ****     ER_TFT040_writeData(0x07);
 549:Core/Src/er_tft040.c ****     ER_TFT040_writeCommand(0xD41A);
 550:Core/Src/er_tft040.c ****     ER_TFT040_writeData(0x02);
 551:Core/Src/er_tft040.c ****     ER_TFT040_writeCommand(0xD41B);
 552:Core/Src/er_tft040.c ****     ER_TFT040_writeData(0x08);
 553:Core/Src/er_tft040.c ****     ER_TFT040_writeCommand(0xD41C);
 554:Core/Src/er_tft040.c ****     ER_TFT040_writeData(0x02);
 555:Core/Src/er_tft040.c ****     ER_TFT040_writeCommand(0xD41D);
 556:Core/Src/er_tft040.c ****     ER_TFT040_writeData(0x34);
 557:Core/Src/er_tft040.c ****     ER_TFT040_writeCommand(0xD41E);
 558:Core/Src/er_tft040.c ****     ER_TFT040_writeData(0x02);
 559:Core/Src/er_tft040.c ****     ER_TFT040_writeCommand(0xD41F);
 560:Core/Src/er_tft040.c ****     ER_TFT040_writeData(0x5F);  //
 561:Core/Src/er_tft040.c ****     ER_TFT040_writeCommand(0xD420);
 562:Core/Src/er_tft040.c ****     ER_TFT040_writeData(0x02);
 563:Core/Src/er_tft040.c ****     ER_TFT040_writeCommand(0xD421);
 564:Core/Src/er_tft040.c ****     ER_TFT040_writeData(0x78);
 565:Core/Src/er_tft040.c ****     ER_TFT040_writeCommand(0xD422);
 566:Core/Src/er_tft040.c ****     ER_TFT040_writeData(0x02);
 567:Core/Src/er_tft040.c ****     ER_TFT040_writeCommand(0xD423);
 568:Core/Src/er_tft040.c ****     ER_TFT040_writeData(0x94);
 569:Core/Src/er_tft040.c ****     ER_TFT040_writeCommand(0xD424);
 570:Core/Src/er_tft040.c ****     ER_TFT040_writeData(0x02);
 571:Core/Src/er_tft040.c ****     ER_TFT040_writeCommand(0xD425);
 572:Core/Src/er_tft040.c ****     ER_TFT040_writeData(0xA6);
ARM GAS  /var/folders/_5/7dt5dlyd7598cb98063hl5tr0000gn/T//cc5bI3Gx.s 			page 17


 573:Core/Src/er_tft040.c ****     ER_TFT040_writeCommand(0xD426);
 574:Core/Src/er_tft040.c ****     ER_TFT040_writeData(0x02);
 575:Core/Src/er_tft040.c ****     ER_TFT040_writeCommand(0xD427);
 576:Core/Src/er_tft040.c ****     ER_TFT040_writeData(0xBB);
 577:Core/Src/er_tft040.c ****     ER_TFT040_writeCommand(0xD428);
 578:Core/Src/er_tft040.c ****     ER_TFT040_writeData(0x02);
 579:Core/Src/er_tft040.c ****     ER_TFT040_writeCommand(0xD429);
 580:Core/Src/er_tft040.c ****     ER_TFT040_writeData(0xCA);
 581:Core/Src/er_tft040.c ****     ER_TFT040_writeCommand(0xD42A);
 582:Core/Src/er_tft040.c ****     ER_TFT040_writeData(0x02);
 583:Core/Src/er_tft040.c ****     ER_TFT040_writeCommand(0xD42B);
 584:Core/Src/er_tft040.c ****     ER_TFT040_writeData(0xDB);
 585:Core/Src/er_tft040.c ****     ER_TFT040_writeCommand(0xD42C);
 586:Core/Src/er_tft040.c ****     ER_TFT040_writeData(0x02);
 587:Core/Src/er_tft040.c ****     ER_TFT040_writeCommand(0xD42D);
 588:Core/Src/er_tft040.c ****     ER_TFT040_writeData(0xE8);
 589:Core/Src/er_tft040.c ****     ER_TFT040_writeCommand(0xD42E);
 590:Core/Src/er_tft040.c ****     ER_TFT040_writeData(0x02);
 591:Core/Src/er_tft040.c ****     ER_TFT040_writeCommand(0xD42F);
 592:Core/Src/er_tft040.c ****     ER_TFT040_writeData(0xF9);  //
 593:Core/Src/er_tft040.c ****     ER_TFT040_writeCommand(0xD430);
 594:Core/Src/er_tft040.c ****     ER_TFT040_writeData(0x03);
 595:Core/Src/er_tft040.c ****     ER_TFT040_writeCommand(0xD431);
 596:Core/Src/er_tft040.c ****     ER_TFT040_writeData(0x1F);
 597:Core/Src/er_tft040.c ****     ER_TFT040_writeCommand(0xD432);
 598:Core/Src/er_tft040.c ****     ER_TFT040_writeData(0x03);
 599:Core/Src/er_tft040.c ****     ER_TFT040_writeCommand(0xD433);
 600:Core/Src/er_tft040.c ****     ER_TFT040_writeData(0x7F);
 601:Core/Src/er_tft040.c **** 
 602:Core/Src/er_tft040.c ****     ER_TFT040_writeCommand(0xD500);
 603:Core/Src/er_tft040.c ****     ER_TFT040_writeData(0x00);
 604:Core/Src/er_tft040.c ****     ER_TFT040_writeCommand(0xD501);
 605:Core/Src/er_tft040.c ****     ER_TFT040_writeData(0x2D);
 606:Core/Src/er_tft040.c ****     ER_TFT040_writeCommand(0xD502);
 607:Core/Src/er_tft040.c ****     ER_TFT040_writeData(0x00);
 608:Core/Src/er_tft040.c ****     ER_TFT040_writeCommand(0xD503);
 609:Core/Src/er_tft040.c ****     ER_TFT040_writeData(0x2E);
 610:Core/Src/er_tft040.c ****     ER_TFT040_writeCommand(0xD504);
 611:Core/Src/er_tft040.c ****     ER_TFT040_writeData(0x00);
 612:Core/Src/er_tft040.c ****     ER_TFT040_writeCommand(0xD505);
 613:Core/Src/er_tft040.c ****     ER_TFT040_writeData(0x32);
 614:Core/Src/er_tft040.c ****     ER_TFT040_writeCommand(0xD506);
 615:Core/Src/er_tft040.c ****     ER_TFT040_writeData(0x00);
 616:Core/Src/er_tft040.c ****     ER_TFT040_writeCommand(0xD507);
 617:Core/Src/er_tft040.c ****     ER_TFT040_writeData(0x44);
 618:Core/Src/er_tft040.c ****     ER_TFT040_writeCommand(0xD508);
 619:Core/Src/er_tft040.c ****     ER_TFT040_writeData(0x00);
 620:Core/Src/er_tft040.c ****     ER_TFT040_writeCommand(0xD509);
 621:Core/Src/er_tft040.c ****     ER_TFT040_writeData(0x53);
 622:Core/Src/er_tft040.c ****     ER_TFT040_writeCommand(0xD50A);
 623:Core/Src/er_tft040.c ****     ER_TFT040_writeData(0x00);
 624:Core/Src/er_tft040.c ****     ER_TFT040_writeCommand(0xD50B);
 625:Core/Src/er_tft040.c ****     ER_TFT040_writeData(0x88);
 626:Core/Src/er_tft040.c ****     ER_TFT040_writeCommand(0xD50C);
 627:Core/Src/er_tft040.c ****     ER_TFT040_writeData(0x00);
 628:Core/Src/er_tft040.c ****     ER_TFT040_writeCommand(0xD50D);
 629:Core/Src/er_tft040.c ****     ER_TFT040_writeData(0xB6);
ARM GAS  /var/folders/_5/7dt5dlyd7598cb98063hl5tr0000gn/T//cc5bI3Gx.s 			page 18


 630:Core/Src/er_tft040.c ****     ER_TFT040_writeCommand(0xD50E);
 631:Core/Src/er_tft040.c ****     ER_TFT040_writeData(0x00);
 632:Core/Src/er_tft040.c ****     ER_TFT040_writeCommand(0xD50F);
 633:Core/Src/er_tft040.c ****     ER_TFT040_writeData(0xF3);  //
 634:Core/Src/er_tft040.c ****     ER_TFT040_writeCommand(0xD510);
 635:Core/Src/er_tft040.c ****     ER_TFT040_writeData(0x01);
 636:Core/Src/er_tft040.c ****     ER_TFT040_writeCommand(0xD511);
 637:Core/Src/er_tft040.c ****     ER_TFT040_writeData(0x22);
 638:Core/Src/er_tft040.c ****     ER_TFT040_writeCommand(0xD512);
 639:Core/Src/er_tft040.c ****     ER_TFT040_writeData(0x01);
 640:Core/Src/er_tft040.c ****     ER_TFT040_writeCommand(0xD513);
 641:Core/Src/er_tft040.c ****     ER_TFT040_writeData(0x64);
 642:Core/Src/er_tft040.c ****     ER_TFT040_writeCommand(0xD514);
 643:Core/Src/er_tft040.c ****     ER_TFT040_writeData(0x01);
 644:Core/Src/er_tft040.c ****     ER_TFT040_writeCommand(0xD515);
 645:Core/Src/er_tft040.c ****     ER_TFT040_writeData(0x92);
 646:Core/Src/er_tft040.c ****     ER_TFT040_writeCommand(0xD516);
 647:Core/Src/er_tft040.c ****     ER_TFT040_writeData(0x01);
 648:Core/Src/er_tft040.c ****     ER_TFT040_writeCommand(0xD517);
 649:Core/Src/er_tft040.c ****     ER_TFT040_writeData(0xD4);
 650:Core/Src/er_tft040.c ****     ER_TFT040_writeCommand(0xD518);
 651:Core/Src/er_tft040.c ****     ER_TFT040_writeData(0x02);
 652:Core/Src/er_tft040.c ****     ER_TFT040_writeCommand(0xD519);
 653:Core/Src/er_tft040.c ****     ER_TFT040_writeData(0x07);
 654:Core/Src/er_tft040.c ****     ER_TFT040_writeCommand(0xD51A);
 655:Core/Src/er_tft040.c ****     ER_TFT040_writeData(0x02);
 656:Core/Src/er_tft040.c ****     ER_TFT040_writeCommand(0xD51B);
 657:Core/Src/er_tft040.c ****     ER_TFT040_writeData(0x08);
 658:Core/Src/er_tft040.c ****     ER_TFT040_writeCommand(0xD51C);
 659:Core/Src/er_tft040.c ****     ER_TFT040_writeData(0x02);
 660:Core/Src/er_tft040.c ****     ER_TFT040_writeCommand(0xD51D);
 661:Core/Src/er_tft040.c ****     ER_TFT040_writeData(0x34);
 662:Core/Src/er_tft040.c ****     ER_TFT040_writeCommand(0xD51E);
 663:Core/Src/er_tft040.c ****     ER_TFT040_writeData(0x02);
 664:Core/Src/er_tft040.c ****     ER_TFT040_writeCommand(0xD51F);
 665:Core/Src/er_tft040.c ****     ER_TFT040_writeData(0x5F);  //
 666:Core/Src/er_tft040.c ****     ER_TFT040_writeCommand(0xD520);
 667:Core/Src/er_tft040.c ****     ER_TFT040_writeData(0x02);
 668:Core/Src/er_tft040.c ****     ER_TFT040_writeCommand(0xD521);
 669:Core/Src/er_tft040.c ****     ER_TFT040_writeData(0x78);
 670:Core/Src/er_tft040.c ****     ER_TFT040_writeCommand(0xD522);
 671:Core/Src/er_tft040.c ****     ER_TFT040_writeData(0x02);
 672:Core/Src/er_tft040.c ****     ER_TFT040_writeCommand(0xD523);
 673:Core/Src/er_tft040.c ****     ER_TFT040_writeData(0x94);
 674:Core/Src/er_tft040.c ****     ER_TFT040_writeCommand(0xD524);
 675:Core/Src/er_tft040.c ****     ER_TFT040_writeData(0x02);
 676:Core/Src/er_tft040.c ****     ER_TFT040_writeCommand(0xD525);
 677:Core/Src/er_tft040.c ****     ER_TFT040_writeData(0xA6);
 678:Core/Src/er_tft040.c ****     ER_TFT040_writeCommand(0xD526);
 679:Core/Src/er_tft040.c ****     ER_TFT040_writeData(0x02);
 680:Core/Src/er_tft040.c ****     ER_TFT040_writeCommand(0xD527);
 681:Core/Src/er_tft040.c ****     ER_TFT040_writeData(0xBB);
 682:Core/Src/er_tft040.c ****     ER_TFT040_writeCommand(0xD528);
 683:Core/Src/er_tft040.c ****     ER_TFT040_writeData(0x02);
 684:Core/Src/er_tft040.c ****     ER_TFT040_writeCommand(0xD529);
 685:Core/Src/er_tft040.c ****     ER_TFT040_writeData(0xCA);
 686:Core/Src/er_tft040.c ****     ER_TFT040_writeCommand(0xD52A);
ARM GAS  /var/folders/_5/7dt5dlyd7598cb98063hl5tr0000gn/T//cc5bI3Gx.s 			page 19


 687:Core/Src/er_tft040.c ****     ER_TFT040_writeData(0x02);
 688:Core/Src/er_tft040.c ****     ER_TFT040_writeCommand(0xD52B);
 689:Core/Src/er_tft040.c ****     ER_TFT040_writeData(0xDB);
 690:Core/Src/er_tft040.c ****     ER_TFT040_writeCommand(0xD52C);
 691:Core/Src/er_tft040.c ****     ER_TFT040_writeData(0x02);
 692:Core/Src/er_tft040.c ****     ER_TFT040_writeCommand(0xD52D);
 693:Core/Src/er_tft040.c ****     ER_TFT040_writeData(0xE8);
 694:Core/Src/er_tft040.c ****     ER_TFT040_writeCommand(0xD52E);
 695:Core/Src/er_tft040.c ****     ER_TFT040_writeData(0x02);
 696:Core/Src/er_tft040.c ****     ER_TFT040_writeCommand(0xD52F);
 697:Core/Src/er_tft040.c ****     ER_TFT040_writeData(0xF9);  //
 698:Core/Src/er_tft040.c ****     ER_TFT040_writeCommand(0xD530);
 699:Core/Src/er_tft040.c ****     ER_TFT040_writeData(0x03);
 700:Core/Src/er_tft040.c ****     ER_TFT040_writeCommand(0xD531);
 701:Core/Src/er_tft040.c ****     ER_TFT040_writeData(0x1F);
 702:Core/Src/er_tft040.c ****     ER_TFT040_writeCommand(0xD532);
 703:Core/Src/er_tft040.c ****     ER_TFT040_writeData(0x03);
 704:Core/Src/er_tft040.c ****     ER_TFT040_writeCommand(0xD533);
 705:Core/Src/er_tft040.c ****     ER_TFT040_writeData(0x7F);
 706:Core/Src/er_tft040.c **** 
 707:Core/Src/er_tft040.c ****     ER_TFT040_writeCommand(0xD600);
 708:Core/Src/er_tft040.c ****     ER_TFT040_writeData(0x00);
 709:Core/Src/er_tft040.c ****     ER_TFT040_writeCommand(0xD601);
 710:Core/Src/er_tft040.c ****     ER_TFT040_writeData(0x2D);
 711:Core/Src/er_tft040.c ****     ER_TFT040_writeCommand(0xD602);
 712:Core/Src/er_tft040.c ****     ER_TFT040_writeData(0x00);
 713:Core/Src/er_tft040.c ****     ER_TFT040_writeCommand(0xD603);
 714:Core/Src/er_tft040.c ****     ER_TFT040_writeData(0x2E);
 715:Core/Src/er_tft040.c ****     ER_TFT040_writeCommand(0xD604);
 716:Core/Src/er_tft040.c ****     ER_TFT040_writeData(0x00);
 717:Core/Src/er_tft040.c ****     ER_TFT040_writeCommand(0xD605);
 718:Core/Src/er_tft040.c ****     ER_TFT040_writeData(0x32);
 719:Core/Src/er_tft040.c ****     ER_TFT040_writeCommand(0xD606);
 720:Core/Src/er_tft040.c ****     ER_TFT040_writeData(0x00);
 721:Core/Src/er_tft040.c ****     ER_TFT040_writeCommand(0xD607);
 722:Core/Src/er_tft040.c ****     ER_TFT040_writeData(0x44);
 723:Core/Src/er_tft040.c ****     ER_TFT040_writeCommand(0xD608);
 724:Core/Src/er_tft040.c ****     ER_TFT040_writeData(0x00);
 725:Core/Src/er_tft040.c ****     ER_TFT040_writeCommand(0xD609);
 726:Core/Src/er_tft040.c ****     ER_TFT040_writeData(0x53);
 727:Core/Src/er_tft040.c ****     ER_TFT040_writeCommand(0xD60A);
 728:Core/Src/er_tft040.c ****     ER_TFT040_writeData(0x00);
 729:Core/Src/er_tft040.c ****     ER_TFT040_writeCommand(0xD60B);
 730:Core/Src/er_tft040.c ****     ER_TFT040_writeData(0x88);
 731:Core/Src/er_tft040.c ****     ER_TFT040_writeCommand(0xD60C);
 732:Core/Src/er_tft040.c ****     ER_TFT040_writeData(0x00);
 733:Core/Src/er_tft040.c ****     ER_TFT040_writeCommand(0xD60D);
 734:Core/Src/er_tft040.c ****     ER_TFT040_writeData(0xB6);
 735:Core/Src/er_tft040.c ****     ER_TFT040_writeCommand(0xD60E);
 736:Core/Src/er_tft040.c ****     ER_TFT040_writeData(0x00);
 737:Core/Src/er_tft040.c ****     ER_TFT040_writeCommand(0xD60F);
 738:Core/Src/er_tft040.c ****     ER_TFT040_writeData(0xF3);  //
 739:Core/Src/er_tft040.c ****     ER_TFT040_writeCommand(0xD610);
 740:Core/Src/er_tft040.c ****     ER_TFT040_writeData(0x01);
 741:Core/Src/er_tft040.c ****     ER_TFT040_writeCommand(0xD611);
 742:Core/Src/er_tft040.c ****     ER_TFT040_writeData(0x22);
 743:Core/Src/er_tft040.c ****     ER_TFT040_writeCommand(0xD612);
ARM GAS  /var/folders/_5/7dt5dlyd7598cb98063hl5tr0000gn/T//cc5bI3Gx.s 			page 20


 744:Core/Src/er_tft040.c ****     ER_TFT040_writeData(0x01);
 745:Core/Src/er_tft040.c ****     ER_TFT040_writeCommand(0xD613);
 746:Core/Src/er_tft040.c ****     ER_TFT040_writeData(0x64);
 747:Core/Src/er_tft040.c ****     ER_TFT040_writeCommand(0xD614);
 748:Core/Src/er_tft040.c ****     ER_TFT040_writeData(0x01);
 749:Core/Src/er_tft040.c ****     ER_TFT040_writeCommand(0xD615);
 750:Core/Src/er_tft040.c ****     ER_TFT040_writeData(0x92);
 751:Core/Src/er_tft040.c ****     ER_TFT040_writeCommand(0xD616);
 752:Core/Src/er_tft040.c ****     ER_TFT040_writeData(0x01);
 753:Core/Src/er_tft040.c ****     ER_TFT040_writeCommand(0xD617);
 754:Core/Src/er_tft040.c ****     ER_TFT040_writeData(0xD4);
 755:Core/Src/er_tft040.c ****     ER_TFT040_writeCommand(0xD618);
 756:Core/Src/er_tft040.c ****     ER_TFT040_writeData(0x02);
 757:Core/Src/er_tft040.c ****     ER_TFT040_writeCommand(0xD619);
 758:Core/Src/er_tft040.c ****     ER_TFT040_writeData(0x07);
 759:Core/Src/er_tft040.c ****     ER_TFT040_writeCommand(0xD61A);
 760:Core/Src/er_tft040.c ****     ER_TFT040_writeData(0x02);
 761:Core/Src/er_tft040.c ****     ER_TFT040_writeCommand(0xD61B);
 762:Core/Src/er_tft040.c ****     ER_TFT040_writeData(0x08);
 763:Core/Src/er_tft040.c ****     ER_TFT040_writeCommand(0xD61C);
 764:Core/Src/er_tft040.c ****     ER_TFT040_writeData(0x02);
 765:Core/Src/er_tft040.c ****     ER_TFT040_writeCommand(0xD61D);
 766:Core/Src/er_tft040.c ****     ER_TFT040_writeData(0x34);
 767:Core/Src/er_tft040.c ****     ER_TFT040_writeCommand(0xD61E);
 768:Core/Src/er_tft040.c ****     ER_TFT040_writeData(0x02);
 769:Core/Src/er_tft040.c ****     ER_TFT040_writeCommand(0xD61F);
 770:Core/Src/er_tft040.c ****     ER_TFT040_writeData(0x5F);  //
 771:Core/Src/er_tft040.c ****     ER_TFT040_writeCommand(0xD620);
 772:Core/Src/er_tft040.c ****     ER_TFT040_writeData(0x02);
 773:Core/Src/er_tft040.c ****     ER_TFT040_writeCommand(0xD621);
 774:Core/Src/er_tft040.c ****     ER_TFT040_writeData(0x78);
 775:Core/Src/er_tft040.c ****     ER_TFT040_writeCommand(0xD622);
 776:Core/Src/er_tft040.c ****     ER_TFT040_writeData(0x02);
 777:Core/Src/er_tft040.c ****     ER_TFT040_writeCommand(0xD623);
 778:Core/Src/er_tft040.c ****     ER_TFT040_writeData(0x94);
 779:Core/Src/er_tft040.c ****     ER_TFT040_writeCommand(0xD624);
 780:Core/Src/er_tft040.c ****     ER_TFT040_writeData(0x02);
 781:Core/Src/er_tft040.c ****     ER_TFT040_writeCommand(0xD625);
 782:Core/Src/er_tft040.c ****     ER_TFT040_writeData(0xA6);
 783:Core/Src/er_tft040.c ****     ER_TFT040_writeCommand(0xD626);
 784:Core/Src/er_tft040.c ****     ER_TFT040_writeData(0x02);
 785:Core/Src/er_tft040.c ****     ER_TFT040_writeCommand(0xD627);
 786:Core/Src/er_tft040.c ****     ER_TFT040_writeData(0xBB);
 787:Core/Src/er_tft040.c ****     ER_TFT040_writeCommand(0xD628);
 788:Core/Src/er_tft040.c ****     ER_TFT040_writeData(0x02);
 789:Core/Src/er_tft040.c ****     ER_TFT040_writeCommand(0xD629);
 790:Core/Src/er_tft040.c ****     ER_TFT040_writeData(0xCA);
 791:Core/Src/er_tft040.c ****     ER_TFT040_writeCommand(0xD62A);
 792:Core/Src/er_tft040.c ****     ER_TFT040_writeData(0x02);
 793:Core/Src/er_tft040.c ****     ER_TFT040_writeCommand(0xD62B);
 794:Core/Src/er_tft040.c ****     ER_TFT040_writeData(0xDB);
 795:Core/Src/er_tft040.c ****     ER_TFT040_writeCommand(0xD62C);
 796:Core/Src/er_tft040.c ****     ER_TFT040_writeData(0x02);
 797:Core/Src/er_tft040.c ****     ER_TFT040_writeCommand(0xD62D);
 798:Core/Src/er_tft040.c ****     ER_TFT040_writeData(0xE8);
 799:Core/Src/er_tft040.c ****     ER_TFT040_writeCommand(0xD62E);
 800:Core/Src/er_tft040.c ****     ER_TFT040_writeData(0x02);
ARM GAS  /var/folders/_5/7dt5dlyd7598cb98063hl5tr0000gn/T//cc5bI3Gx.s 			page 21


 801:Core/Src/er_tft040.c ****     ER_TFT040_writeCommand(0xD62F);
 802:Core/Src/er_tft040.c ****     ER_TFT040_writeData(0xF9);  //
 803:Core/Src/er_tft040.c ****     ER_TFT040_writeCommand(0xD630);
 804:Core/Src/er_tft040.c ****     ER_TFT040_writeData(0x03);
 805:Core/Src/er_tft040.c ****     ER_TFT040_writeCommand(0xD631);
 806:Core/Src/er_tft040.c ****     ER_TFT040_writeData(0x1F);
 807:Core/Src/er_tft040.c ****     ER_TFT040_writeCommand(0xD632);
 808:Core/Src/er_tft040.c ****     ER_TFT040_writeData(0x03);
 809:Core/Src/er_tft040.c ****     ER_TFT040_writeCommand(0xD633);
 810:Core/Src/er_tft040.c ****     ER_TFT040_writeData(0x7F);
 811:Core/Src/er_tft040.c **** 
 812:Core/Src/er_tft040.c ****     // #LV2 Page 0 enable
 813:Core/Src/er_tft040.c ****     ER_TFT040_writeCommand(0xF000);
 814:Core/Src/er_tft040.c ****     ER_TFT040_writeData(0x55);
 815:Core/Src/er_tft040.c ****     ER_TFT040_writeCommand(0xF001);
 816:Core/Src/er_tft040.c ****     ER_TFT040_writeData(0xAA);
 817:Core/Src/er_tft040.c ****     ER_TFT040_writeCommand(0xF002);
 818:Core/Src/er_tft040.c ****     ER_TFT040_writeData(0x52);
 819:Core/Src/er_tft040.c ****     ER_TFT040_writeCommand(0xF003);
 820:Core/Src/er_tft040.c ****     ER_TFT040_writeData(0x08);
 821:Core/Src/er_tft040.c ****     ER_TFT040_writeCommand(0xF004);
 822:Core/Src/er_tft040.c ****     ER_TFT040_writeData(0x00);
 823:Core/Src/er_tft040.c **** 
 824:Core/Src/er_tft040.c ****     // #DISPLAY CONTROL
 825:Core/Src/er_tft040.c ****     ER_TFT040_writeCommand(0xB100);
 826:Core/Src/er_tft040.c ****     ER_TFT040_writeData(0xCC);
 827:Core/Src/er_tft040.c ****     ER_TFT040_writeCommand(0xB101);
 828:Core/Src/er_tft040.c ****     ER_TFT040_writeData(0x00);
 829:Core/Src/er_tft040.c **** 
 830:Core/Src/er_tft040.c ****     ER_TFT040_writeCommand(0xB500);
 831:Core/Src/er_tft040.c ****     ER_TFT040_writeData(0x50);
 832:Core/Src/er_tft040.c **** 
 833:Core/Src/er_tft040.c ****     // #SOURCE HOLD TIME
 834:Core/Src/er_tft040.c ****     ER_TFT040_writeCommand(0xB600);
 835:Core/Src/er_tft040.c ****     ER_TFT040_writeData(0x05);
 836:Core/Src/er_tft040.c **** 
 837:Core/Src/er_tft040.c ****     // Set Gate EQ
 838:Core/Src/er_tft040.c ****     ER_TFT040_writeCommand(0xB700);
 839:Core/Src/er_tft040.c ****     ER_TFT040_writeData(0x70);
 840:Core/Src/er_tft040.c ****     ER_TFT040_writeCommand(0xB701);
 841:Core/Src/er_tft040.c ****     ER_TFT040_writeData(0x70);
 842:Core/Src/er_tft040.c **** 
 843:Core/Src/er_tft040.c ****     // #Source EQ control (Mode 2)
 844:Core/Src/er_tft040.c ****     ER_TFT040_writeCommand(0xB800);
 845:Core/Src/er_tft040.c ****     ER_TFT040_writeData(0x01);
 846:Core/Src/er_tft040.c ****     ER_TFT040_writeCommand(0xB801);
 847:Core/Src/er_tft040.c ****     ER_TFT040_writeData(0x03);
 848:Core/Src/er_tft040.c ****     ER_TFT040_writeCommand(0xB802);
 849:Core/Src/er_tft040.c ****     ER_TFT040_writeData(0x03);
 850:Core/Src/er_tft040.c ****     ER_TFT040_writeCommand(0xB803);
 851:Core/Src/er_tft040.c ****     ER_TFT040_writeData(0x03);
 852:Core/Src/er_tft040.c **** 
 853:Core/Src/er_tft040.c ****     // #INVERSION MODE
 854:Core/Src/er_tft040.c ****     ER_TFT040_writeCommand(0xBC00);
 855:Core/Src/er_tft040.c ****     ER_TFT040_writeData(0x02);
 856:Core/Src/er_tft040.c ****     ER_TFT040_writeCommand(0xBC01);
 857:Core/Src/er_tft040.c ****     ER_TFT040_writeData(0x00);
ARM GAS  /var/folders/_5/7dt5dlyd7598cb98063hl5tr0000gn/T//cc5bI3Gx.s 			page 22


 858:Core/Src/er_tft040.c ****     ER_TFT040_writeCommand(0xBC02);
 859:Core/Src/er_tft040.c ****     ER_TFT040_writeData(0x00);
 860:Core/Src/er_tft040.c **** 
 861:Core/Src/er_tft040.c ****     // #Timing control
 862:Core/Src/er_tft040.c ****     ER_TFT040_writeCommand(0xC900);
 863:Core/Src/er_tft040.c ****     ER_TFT040_writeData(0xD0);
 864:Core/Src/er_tft040.c ****     ER_TFT040_writeCommand(0xC901);
 865:Core/Src/er_tft040.c ****     ER_TFT040_writeData(0x02);
 866:Core/Src/er_tft040.c ****     ER_TFT040_writeCommand(0xC902);
 867:Core/Src/er_tft040.c ****     ER_TFT040_writeData(0x50);
 868:Core/Src/er_tft040.c ****     ER_TFT040_writeCommand(0xC903);
 869:Core/Src/er_tft040.c ****     ER_TFT040_writeData(0x50);
 870:Core/Src/er_tft040.c ****     ER_TFT040_writeCommand(0xC904);
 871:Core/Src/er_tft040.c ****     ER_TFT040_writeData(0x50);
 872:Core/Src/er_tft040.c **** 
 873:Core/Src/er_tft040.c ****     ER_TFT040_writeCommand(0x3500);
 874:Core/Src/er_tft040.c ****     ER_TFT040_writeData(0x00);
 875:Core/Src/er_tft040.c **** 
 876:Core/Src/er_tft040.c ****     ER_TFT040_writeCommand(0x3A00);
 877:Core/Src/er_tft040.c ****     ER_TFT040_writeData(0x55);  // Data format 16-Bits
 878:Core/Src/er_tft040.c ****     ER_TFT040_writeCommand(0x3600);
 879:Core/Src/er_tft040.c ****     ER_TFT040_writeData(0x00);
 880:Core/Src/er_tft040.c **** 
 881:Core/Src/er_tft040.c ****     ER_TFT040_writeCommand(0x1100);  // StartUp
 882:Core/Src/er_tft040.c **** 
 883:Core/Src/er_tft040.c ****     HAL_Delay(120);
 884:Core/Src/er_tft040.c **** 
 885:Core/Src/er_tft040.c ****     ER_TFT040_clearLCD(0);
 886:Core/Src/er_tft040.c **** 
 887:Core/Src/er_tft040.c ****     ER_TFT040_writeCommand(0x2900);  // Display On
 888:Core/Src/er_tft040.c ****     HAL_Delay(100);
 889:Core/Src/er_tft040.c **** }
 890:Core/Src/er_tft040.c **** 
 891:Core/Src/er_tft040.c **** void ER_TFT040_clearLCD(uint16_t i) {
 350              		.loc 1 891 37 is_stmt 1 view -0
 351              		.cfi_startproc
 352              		@ args = 0, pretend = 0, frame = 0
 353              		@ frame_needed = 0, uses_anonymous_args = 0
 354              		.loc 1 891 37 is_stmt 0 view .LVU51
 355 0000 70B5     		push	{r4, r5, r6, lr}
 356              		.cfi_def_cfa_offset 16
 357              		.cfi_offset 4, -16
 358              		.cfi_offset 5, -12
 359              		.cfi_offset 6, -8
 360              		.cfi_offset 14, -4
 361 0002 0500     		movs	r5, r0
 892:Core/Src/er_tft040.c ****     ER_TFT040_setCursor(0, ER_TFT040_SCREEN_WIDTH - 1, 0, ER_TFT040_SCREEN_HEIGHT - 1);
 362              		.loc 1 892 5 is_stmt 1 view .LVU52
 363 0004 E021     		movs	r1, #224
 364 0006 0D4B     		ldr	r3, .L19
 365 0008 0022     		movs	r2, #0
 366 000a FF31     		adds	r1, r1, #255
 367 000c 0020     		movs	r0, #0
 368              	.LVL39:
 369              		.loc 1 892 5 is_stmt 0 view .LVU53
 370 000e FFF7FEFF 		bl	ER_TFT040_setCursor
 371              	.LVL40:
ARM GAS  /var/folders/_5/7dt5dlyd7598cb98063hl5tr0000gn/T//cc5bI3Gx.s 			page 23


 893:Core/Src/er_tft040.c **** 
 894:Core/Src/er_tft040.c ****     for (uint16_t h = 0; h < ER_TFT040_SCREEN_WIDTH; h++) {
 372              		.loc 1 894 5 is_stmt 1 view .LVU54
 373              	.LBB2:
 374              		.loc 1 894 10 view .LVU55
 375              		.loc 1 894 19 is_stmt 0 view .LVU56
 376 0012 0026     		movs	r6, #0
 377              		.loc 1 894 5 view .LVU57
 378 0014 0AE0     		b	.L14
 379              	.LVL41:
 380              	.L15:
 381              	.LBB3:
 895:Core/Src/er_tft040.c ****         for (uint16_t w = 0; w < ER_TFT040_SCREEN_HEIGHT; w++) {
 896:Core/Src/er_tft040.c ****             ER_TFT040_writeData(i);
 382              		.loc 1 896 13 is_stmt 1 discriminator 3 view .LVU58
 383 0016 2800     		movs	r0, r5
 384 0018 FFF7FEFF 		bl	ER_TFT040_writeData
 385              	.LVL42:
 895:Core/Src/er_tft040.c ****         for (uint16_t w = 0; w < ER_TFT040_SCREEN_HEIGHT; w++) {
 386              		.loc 1 895 60 discriminator 3 view .LVU59
 387 001c 0134     		adds	r4, r4, #1
 388              	.LVL43:
 895:Core/Src/er_tft040.c ****         for (uint16_t w = 0; w < ER_TFT040_SCREEN_HEIGHT; w++) {
 389              		.loc 1 895 60 is_stmt 0 discriminator 3 view .LVU60
 390 001e A4B2     		uxth	r4, r4
 391              	.LVL44:
 392              	.L16:
 895:Core/Src/er_tft040.c ****         for (uint16_t w = 0; w < ER_TFT040_SCREEN_HEIGHT; w++) {
 393              		.loc 1 895 32 is_stmt 1 discriminator 1 view .LVU61
 394 0020 C823     		movs	r3, #200
 395 0022 9B00     		lsls	r3, r3, #2
 396 0024 9C42     		cmp	r4, r3
 397 0026 F6D3     		bcc	.L15
 398              	.LBE3:
 894:Core/Src/er_tft040.c ****         for (uint16_t w = 0; w < ER_TFT040_SCREEN_HEIGHT; w++) {
 399              		.loc 1 894 55 discriminator 2 view .LVU62
 400 0028 0136     		adds	r6, r6, #1
 401              	.LVL45:
 894:Core/Src/er_tft040.c ****         for (uint16_t w = 0; w < ER_TFT040_SCREEN_HEIGHT; w++) {
 402              		.loc 1 894 55 is_stmt 0 discriminator 2 view .LVU63
 403 002a B6B2     		uxth	r6, r6
 404              	.LVL46:
 405              	.L14:
 894:Core/Src/er_tft040.c ****         for (uint16_t w = 0; w < ER_TFT040_SCREEN_HEIGHT; w++) {
 406              		.loc 1 894 28 is_stmt 1 discriminator 1 view .LVU64
 407 002c F023     		movs	r3, #240
 408 002e 5B00     		lsls	r3, r3, #1
 409 0030 9E42     		cmp	r6, r3
 410 0032 01D2     		bcs	.L18
 411              	.LBB4:
 895:Core/Src/er_tft040.c ****         for (uint16_t w = 0; w < ER_TFT040_SCREEN_HEIGHT; w++) {
 412              		.loc 1 895 23 is_stmt 0 view .LVU65
 413 0034 0024     		movs	r4, #0
 414 0036 F3E7     		b	.L16
 415              	.L18:
 416              	.LBE4:
 417              	.LBE2:
ARM GAS  /var/folders/_5/7dt5dlyd7598cb98063hl5tr0000gn/T//cc5bI3Gx.s 			page 24


 897:Core/Src/er_tft040.c ****         }
 898:Core/Src/er_tft040.c ****     }
 899:Core/Src/er_tft040.c **** }
 418              		.loc 1 899 1 view .LVU66
 419              		@ sp needed
 420              	.LVL47:
 421              		.loc 1 899 1 view .LVU67
 422 0038 70BD     		pop	{r4, r5, r6, pc}
 423              	.L20:
 424 003a C046     		.align	2
 425              	.L19:
 426 003c 1F030000 		.word	799
 427              		.cfi_endproc
 428              	.LFE45:
 430              		.section	.text.ER_TFT040_init,"ax",%progbits
 431              		.align	1
 432              		.global	ER_TFT040_init
 433              		.syntax unified
 434              		.code	16
 435              		.thumb_func
 437              	ER_TFT040_init:
 438              	.LFB44:
  55:Core/Src/er_tft040.c ****     HAL_GPIO_WritePin(DISPLAY_RESET_GPIO_Port, DISPLAY_RESET_Pin, 1);
 439              		.loc 1 55 27 is_stmt 1 view -0
 440              		.cfi_startproc
 441              		@ args = 0, pretend = 0, frame = 0
 442              		@ frame_needed = 0, uses_anonymous_args = 0
 443 0000 10B5     		push	{r4, lr}
 444              		.cfi_def_cfa_offset 8
 445              		.cfi_offset 4, -8
 446              		.cfi_offset 14, -4
  56:Core/Src/er_tft040.c ****     HAL_Delay(10);
 447              		.loc 1 56 5 view .LVU69
 448 0002 FE4C     		ldr	r4, .L22
 449 0004 0122     		movs	r2, #1
 450 0006 4021     		movs	r1, #64
 451 0008 2000     		movs	r0, r4
 452 000a FFF7FEFF 		bl	HAL_GPIO_WritePin
 453              	.LVL48:
  57:Core/Src/er_tft040.c ****     HAL_GPIO_WritePin(DISPLAY_RESET_GPIO_Port, DISPLAY_RESET_Pin, 0);
 454              		.loc 1 57 5 view .LVU70
 455 000e 0A20     		movs	r0, #10
 456 0010 FFF7FEFF 		bl	HAL_Delay
 457              	.LVL49:
  58:Core/Src/er_tft040.c ****     HAL_Delay(10);
 458              		.loc 1 58 5 view .LVU71
 459 0014 0022     		movs	r2, #0
 460 0016 4021     		movs	r1, #64
 461 0018 2000     		movs	r0, r4
 462 001a FFF7FEFF 		bl	HAL_GPIO_WritePin
 463              	.LVL50:
  59:Core/Src/er_tft040.c ****     HAL_GPIO_WritePin(DISPLAY_RESET_GPIO_Port, DISPLAY_RESET_Pin, 1);
 464              		.loc 1 59 5 view .LVU72
 465 001e 0A20     		movs	r0, #10
 466 0020 FFF7FEFF 		bl	HAL_Delay
 467              	.LVL51:
  60:Core/Src/er_tft040.c ****     HAL_Delay(10);
ARM GAS  /var/folders/_5/7dt5dlyd7598cb98063hl5tr0000gn/T//cc5bI3Gx.s 			page 25


 468              		.loc 1 60 5 view .LVU73
 469 0024 0122     		movs	r2, #1
 470 0026 4021     		movs	r1, #64
 471 0028 2000     		movs	r0, r4
 472 002a FFF7FEFF 		bl	HAL_GPIO_WritePin
 473              	.LVL52:
  61:Core/Src/er_tft040.c **** 
 474              		.loc 1 61 5 view .LVU74
 475 002e 0A20     		movs	r0, #10
 476 0030 FFF7FEFF 		bl	HAL_Delay
 477              	.LVL53:
  64:Core/Src/er_tft040.c ****     ER_TFT040_writeData(0x55);
 478              		.loc 1 64 5 view .LVU75
 479 0034 F020     		movs	r0, #240
 480 0036 0002     		lsls	r0, r0, #8
 481 0038 FFF7FEFF 		bl	ER_TFT040_writeCommand
 482              	.LVL54:
  65:Core/Src/er_tft040.c ****     ER_TFT040_writeCommand(0xF001);
 483              		.loc 1 65 5 view .LVU76
 484 003c 5520     		movs	r0, #85
 485 003e FFF7FEFF 		bl	ER_TFT040_writeData
 486              	.LVL55:
  66:Core/Src/er_tft040.c ****     ER_TFT040_writeData(0xAA);
 487              		.loc 1 66 5 view .LVU77
 488 0042 EF48     		ldr	r0, .L22+4
 489 0044 FFF7FEFF 		bl	ER_TFT040_writeCommand
 490              	.LVL56:
  67:Core/Src/er_tft040.c ****     ER_TFT040_writeCommand(0xF002);
 491              		.loc 1 67 5 view .LVU78
 492 0048 AA20     		movs	r0, #170
 493 004a FFF7FEFF 		bl	ER_TFT040_writeData
 494              	.LVL57:
  68:Core/Src/er_tft040.c ****     ER_TFT040_writeData(0x52);
 495              		.loc 1 68 5 view .LVU79
 496 004e ED48     		ldr	r0, .L22+8
 497 0050 FFF7FEFF 		bl	ER_TFT040_writeCommand
 498              	.LVL58:
  69:Core/Src/er_tft040.c ****     ER_TFT040_writeCommand(0xF003);
 499              		.loc 1 69 5 view .LVU80
 500 0054 5220     		movs	r0, #82
 501 0056 FFF7FEFF 		bl	ER_TFT040_writeData
 502              	.LVL59:
  70:Core/Src/er_tft040.c ****     ER_TFT040_writeData(0x08);
 503              		.loc 1 70 5 view .LVU81
 504 005a EB48     		ldr	r0, .L22+12
 505 005c FFF7FEFF 		bl	ER_TFT040_writeCommand
 506              	.LVL60:
  71:Core/Src/er_tft040.c ****     ER_TFT040_writeCommand(0xF004);
 507              		.loc 1 71 5 view .LVU82
 508 0060 0820     		movs	r0, #8
 509 0062 FFF7FEFF 		bl	ER_TFT040_writeData
 510              	.LVL61:
  72:Core/Src/er_tft040.c ****     ER_TFT040_writeData(0x01);
 511              		.loc 1 72 5 view .LVU83
 512 0066 E948     		ldr	r0, .L22+16
 513 0068 FFF7FEFF 		bl	ER_TFT040_writeCommand
 514              	.LVL62:
ARM GAS  /var/folders/_5/7dt5dlyd7598cb98063hl5tr0000gn/T//cc5bI3Gx.s 			page 26


  73:Core/Src/er_tft040.c **** 
 515              		.loc 1 73 5 view .LVU84
 516 006c 0120     		movs	r0, #1
 517 006e FFF7FEFF 		bl	ER_TFT040_writeData
 518              	.LVL63:
  76:Core/Src/er_tft040.c ****     ER_TFT040_writeData(0x0D);
 519              		.loc 1 76 5 view .LVU85
 520 0072 B020     		movs	r0, #176
 521 0074 0002     		lsls	r0, r0, #8
 522 0076 FFF7FEFF 		bl	ER_TFT040_writeCommand
 523              	.LVL64:
  77:Core/Src/er_tft040.c ****     ER_TFT040_writeCommand(0xB001);
 524              		.loc 1 77 5 view .LVU86
 525 007a 0D20     		movs	r0, #13
 526 007c FFF7FEFF 		bl	ER_TFT040_writeData
 527              	.LVL65:
  78:Core/Src/er_tft040.c ****     ER_TFT040_writeData(0x0D);
 528              		.loc 1 78 5 view .LVU87
 529 0080 E348     		ldr	r0, .L22+20
 530 0082 FFF7FEFF 		bl	ER_TFT040_writeCommand
 531              	.LVL66:
  79:Core/Src/er_tft040.c ****     ER_TFT040_writeCommand(0xB002);
 532              		.loc 1 79 5 view .LVU88
 533 0086 0D20     		movs	r0, #13
 534 0088 FFF7FEFF 		bl	ER_TFT040_writeData
 535              	.LVL67:
  80:Core/Src/er_tft040.c ****     ER_TFT040_writeData(0x0D);
 536              		.loc 1 80 5 view .LVU89
 537 008c E148     		ldr	r0, .L22+24
 538 008e FFF7FEFF 		bl	ER_TFT040_writeCommand
 539              	.LVL68:
  81:Core/Src/er_tft040.c **** 
 540              		.loc 1 81 5 view .LVU90
 541 0092 0D20     		movs	r0, #13
 542 0094 FFF7FEFF 		bl	ER_TFT040_writeData
 543              	.LVL69:
  84:Core/Src/er_tft040.c ****     ER_TFT040_writeData(0x34);
 544              		.loc 1 84 5 view .LVU91
 545 0098 B620     		movs	r0, #182
 546 009a 0002     		lsls	r0, r0, #8
 547 009c FFF7FEFF 		bl	ER_TFT040_writeCommand
 548              	.LVL70:
  85:Core/Src/er_tft040.c ****     ER_TFT040_writeCommand(0xB601);
 549              		.loc 1 85 5 view .LVU92
 550 00a0 3420     		movs	r0, #52
 551 00a2 FFF7FEFF 		bl	ER_TFT040_writeData
 552              	.LVL71:
  86:Core/Src/er_tft040.c ****     ER_TFT040_writeData(0x34);
 553              		.loc 1 86 5 view .LVU93
 554 00a6 DC48     		ldr	r0, .L22+28
 555 00a8 FFF7FEFF 		bl	ER_TFT040_writeCommand
 556              	.LVL72:
  87:Core/Src/er_tft040.c ****     ER_TFT040_writeCommand(0xB602);
 557              		.loc 1 87 5 view .LVU94
 558 00ac 3420     		movs	r0, #52
 559 00ae FFF7FEFF 		bl	ER_TFT040_writeData
 560              	.LVL73:
ARM GAS  /var/folders/_5/7dt5dlyd7598cb98063hl5tr0000gn/T//cc5bI3Gx.s 			page 27


  88:Core/Src/er_tft040.c ****     ER_TFT040_writeData(0x34);
 561              		.loc 1 88 5 view .LVU95
 562 00b2 DA48     		ldr	r0, .L22+32
 563 00b4 FFF7FEFF 		bl	ER_TFT040_writeCommand
 564              	.LVL74:
  89:Core/Src/er_tft040.c **** 
 565              		.loc 1 89 5 view .LVU96
 566 00b8 3420     		movs	r0, #52
 567 00ba FFF7FEFF 		bl	ER_TFT040_writeData
 568              	.LVL75:
  92:Core/Src/er_tft040.c ****     ER_TFT040_writeData(0x0D);
 569              		.loc 1 92 5 view .LVU97
 570 00be B120     		movs	r0, #177
 571 00c0 0002     		lsls	r0, r0, #8
 572 00c2 FFF7FEFF 		bl	ER_TFT040_writeCommand
 573              	.LVL76:
  93:Core/Src/er_tft040.c ****     ER_TFT040_writeCommand(0xB101);
 574              		.loc 1 93 5 view .LVU98
 575 00c6 0D20     		movs	r0, #13
 576 00c8 FFF7FEFF 		bl	ER_TFT040_writeData
 577              	.LVL77:
  94:Core/Src/er_tft040.c ****     ER_TFT040_writeData(0x0D);
 578              		.loc 1 94 5 view .LVU99
 579 00cc D448     		ldr	r0, .L22+36
 580 00ce FFF7FEFF 		bl	ER_TFT040_writeCommand
 581              	.LVL78:
  95:Core/Src/er_tft040.c ****     ER_TFT040_writeCommand(0xB102);
 582              		.loc 1 95 5 view .LVU100
 583 00d2 0D20     		movs	r0, #13
 584 00d4 FFF7FEFF 		bl	ER_TFT040_writeData
 585              	.LVL79:
  96:Core/Src/er_tft040.c ****     ER_TFT040_writeData(0x0D);
 586              		.loc 1 96 5 view .LVU101
 587 00d8 D248     		ldr	r0, .L22+40
 588 00da FFF7FEFF 		bl	ER_TFT040_writeCommand
 589              	.LVL80:
  97:Core/Src/er_tft040.c **** 
 590              		.loc 1 97 5 view .LVU102
 591 00de 0D20     		movs	r0, #13
 592 00e0 FFF7FEFF 		bl	ER_TFT040_writeData
 593              	.LVL81:
 100:Core/Src/er_tft040.c ****     ER_TFT040_writeData(0x34);
 594              		.loc 1 100 5 view .LVU103
 595 00e4 B720     		movs	r0, #183
 596 00e6 0002     		lsls	r0, r0, #8
 597 00e8 FFF7FEFF 		bl	ER_TFT040_writeCommand
 598              	.LVL82:
 101:Core/Src/er_tft040.c ****     ER_TFT040_writeCommand(0xB701);
 599              		.loc 1 101 5 view .LVU104
 600 00ec 3420     		movs	r0, #52
 601 00ee FFF7FEFF 		bl	ER_TFT040_writeData
 602              	.LVL83:
 102:Core/Src/er_tft040.c ****     ER_TFT040_writeData(0x34);
 603              		.loc 1 102 5 view .LVU105
 604 00f2 CD48     		ldr	r0, .L22+44
 605 00f4 FFF7FEFF 		bl	ER_TFT040_writeCommand
 606              	.LVL84:
ARM GAS  /var/folders/_5/7dt5dlyd7598cb98063hl5tr0000gn/T//cc5bI3Gx.s 			page 28


 103:Core/Src/er_tft040.c ****     ER_TFT040_writeCommand(0xB702);
 607              		.loc 1 103 5 view .LVU106
 608 00f8 3420     		movs	r0, #52
 609 00fa FFF7FEFF 		bl	ER_TFT040_writeData
 610              	.LVL85:
 104:Core/Src/er_tft040.c ****     ER_TFT040_writeData(0x34);
 611              		.loc 1 104 5 view .LVU107
 612 00fe CB48     		ldr	r0, .L22+48
 613 0100 FFF7FEFF 		bl	ER_TFT040_writeCommand
 614              	.LVL86:
 105:Core/Src/er_tft040.c **** 
 615              		.loc 1 105 5 view .LVU108
 616 0104 3420     		movs	r0, #52
 617 0106 FFF7FEFF 		bl	ER_TFT040_writeData
 618              	.LVL87:
 108:Core/Src/er_tft040.c ****     ER_TFT040_writeData(0x00);
 619              		.loc 1 108 5 view .LVU109
 620 010a B220     		movs	r0, #178
 621 010c 0002     		lsls	r0, r0, #8
 622 010e FFF7FEFF 		bl	ER_TFT040_writeCommand
 623              	.LVL88:
 109:Core/Src/er_tft040.c ****     ER_TFT040_writeCommand(0xB201);
 624              		.loc 1 109 5 view .LVU110
 625 0112 0020     		movs	r0, #0
 626 0114 FFF7FEFF 		bl	ER_TFT040_writeData
 627              	.LVL89:
 110:Core/Src/er_tft040.c ****     ER_TFT040_writeData(0x00);
 628              		.loc 1 110 5 view .LVU111
 629 0118 C548     		ldr	r0, .L22+52
 630 011a FFF7FEFF 		bl	ER_TFT040_writeCommand
 631              	.LVL90:
 111:Core/Src/er_tft040.c ****     ER_TFT040_writeCommand(0xB202);
 632              		.loc 1 111 5 view .LVU112
 633 011e 0020     		movs	r0, #0
 634 0120 FFF7FEFF 		bl	ER_TFT040_writeData
 635              	.LVL91:
 112:Core/Src/er_tft040.c ****     ER_TFT040_writeData(0x00);
 636              		.loc 1 112 5 view .LVU113
 637 0124 C348     		ldr	r0, .L22+56
 638 0126 FFF7FEFF 		bl	ER_TFT040_writeCommand
 639              	.LVL92:
 113:Core/Src/er_tft040.c **** 
 640              		.loc 1 113 5 view .LVU114
 641 012a 0020     		movs	r0, #0
 642 012c FFF7FEFF 		bl	ER_TFT040_writeData
 643              	.LVL93:
 116:Core/Src/er_tft040.c ****     ER_TFT040_writeData(0x24);
 644              		.loc 1 116 5 view .LVU115
 645 0130 B820     		movs	r0, #184
 646 0132 0002     		lsls	r0, r0, #8
 647 0134 FFF7FEFF 		bl	ER_TFT040_writeCommand
 648              	.LVL94:
 117:Core/Src/er_tft040.c ****     ER_TFT040_writeCommand(0xB801);
 649              		.loc 1 117 5 view .LVU116
 650 0138 2420     		movs	r0, #36
 651 013a FFF7FEFF 		bl	ER_TFT040_writeData
 652              	.LVL95:
ARM GAS  /var/folders/_5/7dt5dlyd7598cb98063hl5tr0000gn/T//cc5bI3Gx.s 			page 29


 118:Core/Src/er_tft040.c ****     ER_TFT040_writeData(0x24);
 653              		.loc 1 118 5 view .LVU117
 654 013e BE48     		ldr	r0, .L22+60
 655 0140 FFF7FEFF 		bl	ER_TFT040_writeCommand
 656              	.LVL96:
 119:Core/Src/er_tft040.c ****     ER_TFT040_writeCommand(0xB802);
 657              		.loc 1 119 5 view .LVU118
 658 0144 2420     		movs	r0, #36
 659 0146 FFF7FEFF 		bl	ER_TFT040_writeData
 660              	.LVL97:
 120:Core/Src/er_tft040.c ****     ER_TFT040_writeData(0x24);
 661              		.loc 1 120 5 view .LVU119
 662 014a BC48     		ldr	r0, .L22+64
 663 014c FFF7FEFF 		bl	ER_TFT040_writeCommand
 664              	.LVL98:
 121:Core/Src/er_tft040.c **** 
 665              		.loc 1 121 5 view .LVU120
 666 0150 2420     		movs	r0, #36
 667 0152 FFF7FEFF 		bl	ER_TFT040_writeData
 668              	.LVL99:
 124:Core/Src/er_tft040.c ****     ER_TFT040_writeData(0x01);
 669              		.loc 1 124 5 view .LVU121
 670 0156 BF20     		movs	r0, #191
 671 0158 0002     		lsls	r0, r0, #8
 672 015a FFF7FEFF 		bl	ER_TFT040_writeCommand
 673              	.LVL100:
 125:Core/Src/er_tft040.c ****     ER_TFT040_writeCommand(0xB300);
 674              		.loc 1 125 5 view .LVU122
 675 015e 0120     		movs	r0, #1
 676 0160 FFF7FEFF 		bl	ER_TFT040_writeData
 677              	.LVL101:
 126:Core/Src/er_tft040.c ****     ER_TFT040_writeData(0x0F);
 678              		.loc 1 126 5 view .LVU123
 679 0164 B320     		movs	r0, #179
 680 0166 0002     		lsls	r0, r0, #8
 681 0168 FFF7FEFF 		bl	ER_TFT040_writeCommand
 682              	.LVL102:
 127:Core/Src/er_tft040.c ****     ER_TFT040_writeCommand(0xB301);
 683              		.loc 1 127 5 view .LVU124
 684 016c 0F20     		movs	r0, #15
 685 016e FFF7FEFF 		bl	ER_TFT040_writeData
 686              	.LVL103:
 128:Core/Src/er_tft040.c ****     ER_TFT040_writeData(0x0F);
 687              		.loc 1 128 5 view .LVU125
 688 0172 B348     		ldr	r0, .L22+68
 689 0174 FFF7FEFF 		bl	ER_TFT040_writeCommand
 690              	.LVL104:
 129:Core/Src/er_tft040.c ****     ER_TFT040_writeCommand(0xB302);
 691              		.loc 1 129 5 view .LVU126
 692 0178 0F20     		movs	r0, #15
 693 017a FFF7FEFF 		bl	ER_TFT040_writeData
 694              	.LVL105:
 130:Core/Src/er_tft040.c ****     ER_TFT040_writeData(0x0F);
 695              		.loc 1 130 5 view .LVU127
 696 017e B148     		ldr	r0, .L22+72
 697 0180 FFF7FEFF 		bl	ER_TFT040_writeCommand
 698              	.LVL106:
ARM GAS  /var/folders/_5/7dt5dlyd7598cb98063hl5tr0000gn/T//cc5bI3Gx.s 			page 30


 131:Core/Src/er_tft040.c **** 
 699              		.loc 1 131 5 view .LVU128
 700 0184 0F20     		movs	r0, #15
 701 0186 FFF7FEFF 		bl	ER_TFT040_writeData
 702              	.LVL107:
 134:Core/Src/er_tft040.c ****     ER_TFT040_writeData(0x34);
 703              		.loc 1 134 5 view .LVU129
 704 018a B920     		movs	r0, #185
 705 018c 0002     		lsls	r0, r0, #8
 706 018e FFF7FEFF 		bl	ER_TFT040_writeCommand
 707              	.LVL108:
 135:Core/Src/er_tft040.c ****     ER_TFT040_writeCommand(0xB901);
 708              		.loc 1 135 5 view .LVU130
 709 0192 3420     		movs	r0, #52
 710 0194 FFF7FEFF 		bl	ER_TFT040_writeData
 711              	.LVL109:
 136:Core/Src/er_tft040.c ****     ER_TFT040_writeData(0x34);
 712              		.loc 1 136 5 view .LVU131
 713 0198 AB48     		ldr	r0, .L22+76
 714 019a FFF7FEFF 		bl	ER_TFT040_writeCommand
 715              	.LVL110:
 137:Core/Src/er_tft040.c ****     ER_TFT040_writeCommand(0xB902);
 716              		.loc 1 137 5 view .LVU132
 717 019e 3420     		movs	r0, #52
 718 01a0 FFF7FEFF 		bl	ER_TFT040_writeData
 719              	.LVL111:
 138:Core/Src/er_tft040.c ****     ER_TFT040_writeData(0x34);
 720              		.loc 1 138 5 view .LVU133
 721 01a4 A948     		ldr	r0, .L22+80
 722 01a6 FFF7FEFF 		bl	ER_TFT040_writeCommand
 723              	.LVL112:
 139:Core/Src/er_tft040.c **** 
 724              		.loc 1 139 5 view .LVU134
 725 01aa 3420     		movs	r0, #52
 726 01ac FFF7FEFF 		bl	ER_TFT040_writeData
 727              	.LVL113:
 142:Core/Src/er_tft040.c ****     ER_TFT040_writeData(0x08);
 728              		.loc 1 142 5 view .LVU135
 729 01b0 B524     		movs	r4, #181
 730 01b2 2402     		lsls	r4, r4, #8
 731 01b4 2000     		movs	r0, r4
 732 01b6 FFF7FEFF 		bl	ER_TFT040_writeCommand
 733              	.LVL114:
 143:Core/Src/er_tft040.c ****     ER_TFT040_writeCommand(0xB500);
 734              		.loc 1 143 5 view .LVU136
 735 01ba 0820     		movs	r0, #8
 736 01bc FFF7FEFF 		bl	ER_TFT040_writeData
 737              	.LVL115:
 144:Core/Src/er_tft040.c ****     ER_TFT040_writeData(0x08);
 738              		.loc 1 144 5 view .LVU137
 739 01c0 2000     		movs	r0, r4
 740 01c2 FFF7FEFF 		bl	ER_TFT040_writeCommand
 741              	.LVL116:
 145:Core/Src/er_tft040.c ****     ER_TFT040_writeCommand(0xB501);
 742              		.loc 1 145 5 view .LVU138
 743 01c6 0820     		movs	r0, #8
 744 01c8 FFF7FEFF 		bl	ER_TFT040_writeData
ARM GAS  /var/folders/_5/7dt5dlyd7598cb98063hl5tr0000gn/T//cc5bI3Gx.s 			page 31


 745              	.LVL117:
 146:Core/Src/er_tft040.c ****     ER_TFT040_writeData(0x08);
 746              		.loc 1 146 5 view .LVU139
 747 01cc A048     		ldr	r0, .L22+84
 748 01ce FFF7FEFF 		bl	ER_TFT040_writeCommand
 749              	.LVL118:
 147:Core/Src/er_tft040.c ****     ER_TFT040_writeCommand(0xC200);
 750              		.loc 1 147 5 view .LVU140
 751 01d2 0820     		movs	r0, #8
 752 01d4 FFF7FEFF 		bl	ER_TFT040_writeData
 753              	.LVL119:
 148:Core/Src/er_tft040.c ****     ER_TFT040_writeData(0x03);
 754              		.loc 1 148 5 view .LVU141
 755 01d8 C220     		movs	r0, #194
 756 01da 0002     		lsls	r0, r0, #8
 757 01dc FFF7FEFF 		bl	ER_TFT040_writeCommand
 758              	.LVL120:
 149:Core/Src/er_tft040.c **** 
 759              		.loc 1 149 5 view .LVU142
 760 01e0 0320     		movs	r0, #3
 761 01e2 FFF7FEFF 		bl	ER_TFT040_writeData
 762              	.LVL121:
 152:Core/Src/er_tft040.c ****     ER_TFT040_writeData(0x24);
 763              		.loc 1 152 5 view .LVU143
 764 01e6 BA20     		movs	r0, #186
 765 01e8 0002     		lsls	r0, r0, #8
 766 01ea FFF7FEFF 		bl	ER_TFT040_writeCommand
 767              	.LVL122:
 153:Core/Src/er_tft040.c ****     ER_TFT040_writeCommand(0xBA01);
 768              		.loc 1 153 5 view .LVU144
 769 01ee 2420     		movs	r0, #36
 770 01f0 FFF7FEFF 		bl	ER_TFT040_writeData
 771              	.LVL123:
 154:Core/Src/er_tft040.c ****     ER_TFT040_writeData(0x24);
 772              		.loc 1 154 5 view .LVU145
 773 01f4 9748     		ldr	r0, .L22+88
 774 01f6 FFF7FEFF 		bl	ER_TFT040_writeCommand
 775              	.LVL124:
 155:Core/Src/er_tft040.c ****     ER_TFT040_writeCommand(0xBA02);
 776              		.loc 1 155 5 view .LVU146
 777 01fa 2420     		movs	r0, #36
 778 01fc FFF7FEFF 		bl	ER_TFT040_writeData
 779              	.LVL125:
 156:Core/Src/er_tft040.c ****     ER_TFT040_writeData(0x24);
 780              		.loc 1 156 5 view .LVU147
 781 0200 9548     		ldr	r0, .L22+92
 782 0202 FFF7FEFF 		bl	ER_TFT040_writeCommand
 783              	.LVL126:
 157:Core/Src/er_tft040.c **** 
 784              		.loc 1 157 5 view .LVU148
 785 0206 2420     		movs	r0, #36
 786 0208 FFF7FEFF 		bl	ER_TFT040_writeData
 787              	.LVL127:
 160:Core/Src/er_tft040.c ****     ER_TFT040_writeData(0x00);
 788              		.loc 1 160 5 view .LVU149
 789 020c BC20     		movs	r0, #188
 790 020e 0002     		lsls	r0, r0, #8
ARM GAS  /var/folders/_5/7dt5dlyd7598cb98063hl5tr0000gn/T//cc5bI3Gx.s 			page 32


 791 0210 FFF7FEFF 		bl	ER_TFT040_writeCommand
 792              	.LVL128:
 161:Core/Src/er_tft040.c ****     ER_TFT040_writeCommand(0xBC01);
 793              		.loc 1 161 5 view .LVU150
 794 0214 0020     		movs	r0, #0
 795 0216 FFF7FEFF 		bl	ER_TFT040_writeData
 796              	.LVL129:
 162:Core/Src/er_tft040.c ****     ER_TFT040_writeData(0x78);
 797              		.loc 1 162 5 view .LVU151
 798 021a 9048     		ldr	r0, .L22+96
 799 021c FFF7FEFF 		bl	ER_TFT040_writeCommand
 800              	.LVL130:
 163:Core/Src/er_tft040.c ****     ER_TFT040_writeCommand(0xBC02);
 801              		.loc 1 163 5 view .LVU152
 802 0220 7820     		movs	r0, #120
 803 0222 FFF7FEFF 		bl	ER_TFT040_writeData
 804              	.LVL131:
 164:Core/Src/er_tft040.c ****     ER_TFT040_writeData(0x00);
 805              		.loc 1 164 5 view .LVU153
 806 0226 8E48     		ldr	r0, .L22+100
 807 0228 FFF7FEFF 		bl	ER_TFT040_writeCommand
 808              	.LVL132:
 165:Core/Src/er_tft040.c **** 
 809              		.loc 1 165 5 view .LVU154
 810 022c 0020     		movs	r0, #0
 811 022e FFF7FEFF 		bl	ER_TFT040_writeData
 812              	.LVL133:
 168:Core/Src/er_tft040.c ****     ER_TFT040_writeData(0x00);
 813              		.loc 1 168 5 view .LVU155
 814 0232 BD20     		movs	r0, #189
 815 0234 0002     		lsls	r0, r0, #8
 816 0236 FFF7FEFF 		bl	ER_TFT040_writeCommand
 817              	.LVL134:
 169:Core/Src/er_tft040.c ****     ER_TFT040_writeCommand(0xBD01);
 818              		.loc 1 169 5 view .LVU156
 819 023a 0020     		movs	r0, #0
 820 023c FFF7FEFF 		bl	ER_TFT040_writeData
 821              	.LVL135:
 170:Core/Src/er_tft040.c ****     ER_TFT040_writeData(0x78);
 822              		.loc 1 170 5 view .LVU157
 823 0240 8848     		ldr	r0, .L22+104
 824 0242 FFF7FEFF 		bl	ER_TFT040_writeCommand
 825              	.LVL136:
 171:Core/Src/er_tft040.c ****     ER_TFT040_writeCommand(0xBD02);
 826              		.loc 1 171 5 view .LVU158
 827 0246 7820     		movs	r0, #120
 828 0248 FFF7FEFF 		bl	ER_TFT040_writeData
 829              	.LVL137:
 172:Core/Src/er_tft040.c ****     ER_TFT040_writeData(0x00);
 830              		.loc 1 172 5 view .LVU159
 831 024c 8648     		ldr	r0, .L22+108
 832 024e FFF7FEFF 		bl	ER_TFT040_writeCommand
 833              	.LVL138:
 173:Core/Src/er_tft040.c **** 
 834              		.loc 1 173 5 view .LVU160
 835 0252 0020     		movs	r0, #0
 836 0254 FFF7FEFF 		bl	ER_TFT040_writeData
ARM GAS  /var/folders/_5/7dt5dlyd7598cb98063hl5tr0000gn/T//cc5bI3Gx.s 			page 33


 837              	.LVL139:
 176:Core/Src/er_tft040.c ****     ER_TFT040_writeData(0x00);
 838              		.loc 1 176 5 view .LVU161
 839 0258 BE20     		movs	r0, #190
 840 025a 0002     		lsls	r0, r0, #8
 841 025c FFF7FEFF 		bl	ER_TFT040_writeCommand
 842              	.LVL140:
 177:Core/Src/er_tft040.c ****     ER_TFT040_writeCommand(0xBE01);
 843              		.loc 1 177 5 view .LVU162
 844 0260 0020     		movs	r0, #0
 845 0262 FFF7FEFF 		bl	ER_TFT040_writeData
 846              	.LVL141:
 178:Core/Src/er_tft040.c ****     ER_TFT040_writeData(0x89);  // 69
 847              		.loc 1 178 5 view .LVU163
 848 0266 8148     		ldr	r0, .L22+112
 849 0268 FFF7FEFF 		bl	ER_TFT040_writeCommand
 850              	.LVL142:
 179:Core/Src/er_tft040.c **** 
 851              		.loc 1 179 5 view .LVU164
 852 026c 8920     		movs	r0, #137
 853 026e FFF7FEFF 		bl	ER_TFT040_writeData
 854              	.LVL143:
 182:Core/Src/er_tft040.c ****     ER_TFT040_writeData(0x00);
 855              		.loc 1 182 5 view .LVU165
 856 0272 D120     		movs	r0, #209
 857 0274 0002     		lsls	r0, r0, #8
 858 0276 FFF7FEFF 		bl	ER_TFT040_writeCommand
 859              	.LVL144:
 183:Core/Src/er_tft040.c ****     ER_TFT040_writeCommand(0xD101);
 860              		.loc 1 183 5 view .LVU166
 861 027a 0020     		movs	r0, #0
 862 027c FFF7FEFF 		bl	ER_TFT040_writeData
 863              	.LVL145:
 184:Core/Src/er_tft040.c ****     ER_TFT040_writeData(0x2D);
 864              		.loc 1 184 5 view .LVU167
 865 0280 7B48     		ldr	r0, .L22+116
 866 0282 FFF7FEFF 		bl	ER_TFT040_writeCommand
 867              	.LVL146:
 185:Core/Src/er_tft040.c ****     ER_TFT040_writeCommand(0xD102);
 868              		.loc 1 185 5 view .LVU168
 869 0286 2D20     		movs	r0, #45
 870 0288 FFF7FEFF 		bl	ER_TFT040_writeData
 871              	.LVL147:
 186:Core/Src/er_tft040.c ****     ER_TFT040_writeData(0x00);
 872              		.loc 1 186 5 view .LVU169
 873 028c 7948     		ldr	r0, .L22+120
 874 028e FFF7FEFF 		bl	ER_TFT040_writeCommand
 875              	.LVL148:
 187:Core/Src/er_tft040.c ****     ER_TFT040_writeCommand(0xD103);
 876              		.loc 1 187 5 view .LVU170
 877 0292 0020     		movs	r0, #0
 878 0294 FFF7FEFF 		bl	ER_TFT040_writeData
 879              	.LVL149:
 188:Core/Src/er_tft040.c ****     ER_TFT040_writeData(0x2E);
 880              		.loc 1 188 5 view .LVU171
 881 0298 7748     		ldr	r0, .L22+124
 882 029a FFF7FEFF 		bl	ER_TFT040_writeCommand
ARM GAS  /var/folders/_5/7dt5dlyd7598cb98063hl5tr0000gn/T//cc5bI3Gx.s 			page 34


 883              	.LVL150:
 189:Core/Src/er_tft040.c ****     ER_TFT040_writeCommand(0xD104);
 884              		.loc 1 189 5 view .LVU172
 885 029e 2E20     		movs	r0, #46
 886 02a0 FFF7FEFF 		bl	ER_TFT040_writeData
 887              	.LVL151:
 190:Core/Src/er_tft040.c ****     ER_TFT040_writeData(0x00);
 888              		.loc 1 190 5 view .LVU173
 889 02a4 7548     		ldr	r0, .L22+128
 890 02a6 FFF7FEFF 		bl	ER_TFT040_writeCommand
 891              	.LVL152:
 191:Core/Src/er_tft040.c ****     ER_TFT040_writeCommand(0xD105);
 892              		.loc 1 191 5 view .LVU174
 893 02aa 0020     		movs	r0, #0
 894 02ac FFF7FEFF 		bl	ER_TFT040_writeData
 895              	.LVL153:
 192:Core/Src/er_tft040.c ****     ER_TFT040_writeData(0x32);
 896              		.loc 1 192 5 view .LVU175
 897 02b0 7348     		ldr	r0, .L22+132
 898 02b2 FFF7FEFF 		bl	ER_TFT040_writeCommand
 899              	.LVL154:
 193:Core/Src/er_tft040.c ****     ER_TFT040_writeCommand(0xD106);
 900              		.loc 1 193 5 view .LVU176
 901 02b6 3220     		movs	r0, #50
 902 02b8 FFF7FEFF 		bl	ER_TFT040_writeData
 903              	.LVL155:
 194:Core/Src/er_tft040.c ****     ER_TFT040_writeData(0x00);
 904              		.loc 1 194 5 view .LVU177
 905 02bc 7148     		ldr	r0, .L22+136
 906 02be FFF7FEFF 		bl	ER_TFT040_writeCommand
 907              	.LVL156:
 195:Core/Src/er_tft040.c ****     ER_TFT040_writeCommand(0xD107);
 908              		.loc 1 195 5 view .LVU178
 909 02c2 0020     		movs	r0, #0
 910 02c4 FFF7FEFF 		bl	ER_TFT040_writeData
 911              	.LVL157:
 196:Core/Src/er_tft040.c ****     ER_TFT040_writeData(0x44);
 912              		.loc 1 196 5 view .LVU179
 913 02c8 6F48     		ldr	r0, .L22+140
 914 02ca FFF7FEFF 		bl	ER_TFT040_writeCommand
 915              	.LVL158:
 197:Core/Src/er_tft040.c ****     ER_TFT040_writeCommand(0xD108);
 916              		.loc 1 197 5 view .LVU180
 917 02ce 4420     		movs	r0, #68
 918 02d0 FFF7FEFF 		bl	ER_TFT040_writeData
 919              	.LVL159:
 198:Core/Src/er_tft040.c ****     ER_TFT040_writeData(0x00);
 920              		.loc 1 198 5 view .LVU181
 921 02d4 6D48     		ldr	r0, .L22+144
 922 02d6 FFF7FEFF 		bl	ER_TFT040_writeCommand
 923              	.LVL160:
 199:Core/Src/er_tft040.c ****     ER_TFT040_writeCommand(0xD109);
 924              		.loc 1 199 5 view .LVU182
 925 02da 0020     		movs	r0, #0
 926 02dc FFF7FEFF 		bl	ER_TFT040_writeData
 927              	.LVL161:
 200:Core/Src/er_tft040.c ****     ER_TFT040_writeData(0x53);
ARM GAS  /var/folders/_5/7dt5dlyd7598cb98063hl5tr0000gn/T//cc5bI3Gx.s 			page 35


 928              		.loc 1 200 5 view .LVU183
 929 02e0 6B48     		ldr	r0, .L22+148
 930 02e2 FFF7FEFF 		bl	ER_TFT040_writeCommand
 931              	.LVL162:
 201:Core/Src/er_tft040.c ****     ER_TFT040_writeCommand(0xD10A);
 932              		.loc 1 201 5 view .LVU184
 933 02e6 5320     		movs	r0, #83
 934 02e8 FFF7FEFF 		bl	ER_TFT040_writeData
 935              	.LVL163:
 202:Core/Src/er_tft040.c ****     ER_TFT040_writeData(0x00);
 936              		.loc 1 202 5 view .LVU185
 937 02ec 6948     		ldr	r0, .L22+152
 938 02ee FFF7FEFF 		bl	ER_TFT040_writeCommand
 939              	.LVL164:
 203:Core/Src/er_tft040.c ****     ER_TFT040_writeCommand(0xD10B);
 940              		.loc 1 203 5 view .LVU186
 941 02f2 0020     		movs	r0, #0
 942 02f4 FFF7FEFF 		bl	ER_TFT040_writeData
 943              	.LVL165:
 204:Core/Src/er_tft040.c ****     ER_TFT040_writeData(0x88);
 944              		.loc 1 204 5 view .LVU187
 945 02f8 6748     		ldr	r0, .L22+156
 946 02fa FFF7FEFF 		bl	ER_TFT040_writeCommand
 947              	.LVL166:
 205:Core/Src/er_tft040.c ****     ER_TFT040_writeCommand(0xD10C);
 948              		.loc 1 205 5 view .LVU188
 949 02fe 8820     		movs	r0, #136
 950 0300 FFF7FEFF 		bl	ER_TFT040_writeData
 951              	.LVL167:
 206:Core/Src/er_tft040.c ****     ER_TFT040_writeData(0x00);
 952              		.loc 1 206 5 view .LVU189
 953 0304 6548     		ldr	r0, .L22+160
 954 0306 FFF7FEFF 		bl	ER_TFT040_writeCommand
 955              	.LVL168:
 207:Core/Src/er_tft040.c ****     ER_TFT040_writeCommand(0xD10D);
 956              		.loc 1 207 5 view .LVU190
 957 030a 0020     		movs	r0, #0
 958 030c FFF7FEFF 		bl	ER_TFT040_writeData
 959              	.LVL169:
 208:Core/Src/er_tft040.c ****     ER_TFT040_writeData(0xB6);
 960              		.loc 1 208 5 view .LVU191
 961 0310 6348     		ldr	r0, .L22+164
 962 0312 FFF7FEFF 		bl	ER_TFT040_writeCommand
 963              	.LVL170:
 209:Core/Src/er_tft040.c ****     ER_TFT040_writeCommand(0xD10E);
 964              		.loc 1 209 5 view .LVU192
 965 0316 B620     		movs	r0, #182
 966 0318 FFF7FEFF 		bl	ER_TFT040_writeData
 967              	.LVL171:
 210:Core/Src/er_tft040.c ****     ER_TFT040_writeData(0x00);
 968              		.loc 1 210 5 view .LVU193
 969 031c 6148     		ldr	r0, .L22+168
 970 031e FFF7FEFF 		bl	ER_TFT040_writeCommand
 971              	.LVL172:
 211:Core/Src/er_tft040.c ****     ER_TFT040_writeCommand(0xD10F);
 972              		.loc 1 211 5 view .LVU194
 973 0322 0020     		movs	r0, #0
ARM GAS  /var/folders/_5/7dt5dlyd7598cb98063hl5tr0000gn/T//cc5bI3Gx.s 			page 36


 974 0324 FFF7FEFF 		bl	ER_TFT040_writeData
 975              	.LVL173:
 212:Core/Src/er_tft040.c ****     ER_TFT040_writeData(0xF3);  //
 976              		.loc 1 212 5 view .LVU195
 977 0328 5F48     		ldr	r0, .L22+172
 978 032a FFF7FEFF 		bl	ER_TFT040_writeCommand
 979              	.LVL174:
 213:Core/Src/er_tft040.c ****     ER_TFT040_writeCommand(0xD110);
 980              		.loc 1 213 5 view .LVU196
 981 032e F320     		movs	r0, #243
 982 0330 FFF7FEFF 		bl	ER_TFT040_writeData
 983              	.LVL175:
 214:Core/Src/er_tft040.c ****     ER_TFT040_writeData(0x01);
 984              		.loc 1 214 5 view .LVU197
 985 0334 5D48     		ldr	r0, .L22+176
 986 0336 FFF7FEFF 		bl	ER_TFT040_writeCommand
 987              	.LVL176:
 215:Core/Src/er_tft040.c ****     ER_TFT040_writeCommand(0xD111);
 988              		.loc 1 215 5 view .LVU198
 989 033a 0120     		movs	r0, #1
 990 033c FFF7FEFF 		bl	ER_TFT040_writeData
 991              	.LVL177:
 216:Core/Src/er_tft040.c ****     ER_TFT040_writeData(0x22);
 992              		.loc 1 216 5 view .LVU199
 993 0340 5B48     		ldr	r0, .L22+180
 994 0342 FFF7FEFF 		bl	ER_TFT040_writeCommand
 995              	.LVL178:
 217:Core/Src/er_tft040.c ****     ER_TFT040_writeCommand(0xD112);
 996              		.loc 1 217 5 view .LVU200
 997 0346 2220     		movs	r0, #34
 998 0348 FFF7FEFF 		bl	ER_TFT040_writeData
 999              	.LVL179:
 218:Core/Src/er_tft040.c ****     ER_TFT040_writeData(0x01);
 1000              		.loc 1 218 5 view .LVU201
 1001 034c 5948     		ldr	r0, .L22+184
 1002 034e FFF7FEFF 		bl	ER_TFT040_writeCommand
 1003              	.LVL180:
 219:Core/Src/er_tft040.c ****     ER_TFT040_writeCommand(0xD113);
 1004              		.loc 1 219 5 view .LVU202
 1005 0352 0120     		movs	r0, #1
 1006 0354 FFF7FEFF 		bl	ER_TFT040_writeData
 1007              	.LVL181:
 220:Core/Src/er_tft040.c ****     ER_TFT040_writeData(0x64);
 1008              		.loc 1 220 5 view .LVU203
 1009 0358 5748     		ldr	r0, .L22+188
 1010 035a FFF7FEFF 		bl	ER_TFT040_writeCommand
 1011              	.LVL182:
 221:Core/Src/er_tft040.c ****     ER_TFT040_writeCommand(0xD114);
 1012              		.loc 1 221 5 view .LVU204
 1013 035e 6420     		movs	r0, #100
 1014 0360 FFF7FEFF 		bl	ER_TFT040_writeData
 1015              	.LVL183:
 222:Core/Src/er_tft040.c ****     ER_TFT040_writeData(0x01);
 1016              		.loc 1 222 5 view .LVU205
 1017 0364 5548     		ldr	r0, .L22+192
 1018 0366 FFF7FEFF 		bl	ER_TFT040_writeCommand
 1019              	.LVL184:
ARM GAS  /var/folders/_5/7dt5dlyd7598cb98063hl5tr0000gn/T//cc5bI3Gx.s 			page 37


 223:Core/Src/er_tft040.c ****     ER_TFT040_writeCommand(0xD115);
 1020              		.loc 1 223 5 view .LVU206
 1021 036a 0120     		movs	r0, #1
 1022 036c FFF7FEFF 		bl	ER_TFT040_writeData
 1023              	.LVL185:
 224:Core/Src/er_tft040.c ****     ER_TFT040_writeData(0x92);
 1024              		.loc 1 224 5 view .LVU207
 1025 0370 5348     		ldr	r0, .L22+196
 1026 0372 FFF7FEFF 		bl	ER_TFT040_writeCommand
 1027              	.LVL186:
 225:Core/Src/er_tft040.c ****     ER_TFT040_writeCommand(0xD116);
 1028              		.loc 1 225 5 view .LVU208
 1029 0376 9220     		movs	r0, #146
 1030 0378 FFF7FEFF 		bl	ER_TFT040_writeData
 1031              	.LVL187:
 226:Core/Src/er_tft040.c ****     ER_TFT040_writeData(0x01);
 1032              		.loc 1 226 5 view .LVU209
 1033 037c 5148     		ldr	r0, .L22+200
 1034 037e FFF7FEFF 		bl	ER_TFT040_writeCommand
 1035              	.LVL188:
 227:Core/Src/er_tft040.c ****     ER_TFT040_writeCommand(0xD117);
 1036              		.loc 1 227 5 view .LVU210
 1037 0382 0120     		movs	r0, #1
 1038 0384 FFF7FEFF 		bl	ER_TFT040_writeData
 1039              	.LVL189:
 228:Core/Src/er_tft040.c ****     ER_TFT040_writeData(0xD4);
 1040              		.loc 1 228 5 view .LVU211
 1041 0388 4F48     		ldr	r0, .L22+204
 1042 038a FFF7FEFF 		bl	ER_TFT040_writeCommand
 1043              	.LVL190:
 229:Core/Src/er_tft040.c ****     ER_TFT040_writeCommand(0xD118);
 1044              		.loc 1 229 5 view .LVU212
 1045 038e D420     		movs	r0, #212
 1046 0390 FFF7FEFF 		bl	ER_TFT040_writeData
 1047              	.LVL191:
 230:Core/Src/er_tft040.c ****     ER_TFT040_writeData(0x02);
 1048              		.loc 1 230 5 view .LVU213
 1049 0394 4D48     		ldr	r0, .L22+208
 1050 0396 FFF7FEFF 		bl	ER_TFT040_writeCommand
 1051              	.LVL192:
 231:Core/Src/er_tft040.c ****     ER_TFT040_writeCommand(0xD119);
 1052              		.loc 1 231 5 view .LVU214
 1053 039a 0220     		movs	r0, #2
 1054 039c FFF7FEFF 		bl	ER_TFT040_writeData
 1055              	.LVL193:
 232:Core/Src/er_tft040.c ****     ER_TFT040_writeData(0x07);
 1056              		.loc 1 232 5 view .LVU215
 1057 03a0 4B48     		ldr	r0, .L22+212
 1058 03a2 FFF7FEFF 		bl	ER_TFT040_writeCommand
 1059              	.LVL194:
 233:Core/Src/er_tft040.c ****     ER_TFT040_writeCommand(0xD11A);
 1060              		.loc 1 233 5 view .LVU216
 1061 03a6 0720     		movs	r0, #7
 1062 03a8 FFF7FEFF 		bl	ER_TFT040_writeData
 1063              	.LVL195:
 234:Core/Src/er_tft040.c ****     ER_TFT040_writeData(0x02);
 1064              		.loc 1 234 5 view .LVU217
ARM GAS  /var/folders/_5/7dt5dlyd7598cb98063hl5tr0000gn/T//cc5bI3Gx.s 			page 38


 1065 03ac 4948     		ldr	r0, .L22+216
 1066 03ae FFF7FEFF 		bl	ER_TFT040_writeCommand
 1067              	.LVL196:
 235:Core/Src/er_tft040.c ****     ER_TFT040_writeCommand(0xD11B);
 1068              		.loc 1 235 5 view .LVU218
 1069 03b2 0220     		movs	r0, #2
 1070 03b4 FFF7FEFF 		bl	ER_TFT040_writeData
 1071              	.LVL197:
 236:Core/Src/er_tft040.c ****     ER_TFT040_writeData(0x08);
 1072              		.loc 1 236 5 view .LVU219
 1073 03b8 4748     		ldr	r0, .L22+220
 1074 03ba FFF7FEFF 		bl	ER_TFT040_writeCommand
 1075              	.LVL198:
 237:Core/Src/er_tft040.c ****     ER_TFT040_writeCommand(0xD11C);
 1076              		.loc 1 237 5 view .LVU220
 1077 03be 0820     		movs	r0, #8
 1078 03c0 FFF7FEFF 		bl	ER_TFT040_writeData
 1079              	.LVL199:
 238:Core/Src/er_tft040.c ****     ER_TFT040_writeData(0x02);
 1080              		.loc 1 238 5 view .LVU221
 1081 03c4 4548     		ldr	r0, .L22+224
 1082 03c6 FFF7FEFF 		bl	ER_TFT040_writeCommand
 1083              	.LVL200:
 239:Core/Src/er_tft040.c ****     ER_TFT040_writeCommand(0xD11D);
 1084              		.loc 1 239 5 view .LVU222
 1085 03ca 0220     		movs	r0, #2
 1086 03cc FFF7FEFF 		bl	ER_TFT040_writeData
 1087              	.LVL201:
 240:Core/Src/er_tft040.c ****     ER_TFT040_writeData(0x34);
 1088              		.loc 1 240 5 view .LVU223
 1089 03d0 4348     		ldr	r0, .L22+228
 1090 03d2 FFF7FEFF 		bl	ER_TFT040_writeCommand
 1091              	.LVL202:
 241:Core/Src/er_tft040.c ****     ER_TFT040_writeCommand(0xD11E);
 1092              		.loc 1 241 5 view .LVU224
 1093 03d6 3420     		movs	r0, #52
 1094 03d8 FFF7FEFF 		bl	ER_TFT040_writeData
 1095              	.LVL203:
 242:Core/Src/er_tft040.c ****     ER_TFT040_writeData(0x02);
 1096              		.loc 1 242 5 view .LVU225
 1097 03dc 4148     		ldr	r0, .L22+232
 1098 03de FFF7FEFF 		bl	ER_TFT040_writeCommand
 1099              	.LVL204:
 243:Core/Src/er_tft040.c ****     ER_TFT040_writeCommand(0xD11F);
 1100              		.loc 1 243 5 view .LVU226
 1101 03e2 0220     		movs	r0, #2
 1102 03e4 FFF7FEFF 		bl	ER_TFT040_writeData
 1103              	.LVL205:
 244:Core/Src/er_tft040.c ****     ER_TFT040_writeData(0x5F);  //
 1104              		.loc 1 244 5 view .LVU227
 1105 03e8 3F48     		ldr	r0, .L22+236
 1106 03ea FFF7FEFF 		bl	ER_TFT040_writeCommand
 1107              	.LVL206:
 245:Core/Src/er_tft040.c ****     ER_TFT040_writeCommand(0xD120);
 1108              		.loc 1 245 5 view .LVU228
 1109 03ee 5F20     		movs	r0, #95
 1110 03f0 FFF7FEFF 		bl	ER_TFT040_writeData
ARM GAS  /var/folders/_5/7dt5dlyd7598cb98063hl5tr0000gn/T//cc5bI3Gx.s 			page 39


 1111              	.LVL207:
 246:Core/Src/er_tft040.c ****     ER_TFT040_writeData(0x02);
 1112              		.loc 1 246 5 view .LVU229
 1113 03f4 3D48     		ldr	r0, .L22+240
 1114 03f6 FFF7FEFF 		bl	ER_TFT040_writeCommand
 1115              	.LVL208:
 1116 03fa 79E0     		b	.L23
 1117              	.L24:
 1118              		.align	2
 1119              	.L22:
 1120 03fc 00080048 		.word	1207961600
 1121 0400 01F00000 		.word	61441
 1122 0404 02F00000 		.word	61442
 1123 0408 03F00000 		.word	61443
 1124 040c 04F00000 		.word	61444
 1125 0410 01B00000 		.word	45057
 1126 0414 02B00000 		.word	45058
 1127 0418 01B60000 		.word	46593
 1128 041c 02B60000 		.word	46594
 1129 0420 01B10000 		.word	45313
 1130 0424 02B10000 		.word	45314
 1131 0428 01B70000 		.word	46849
 1132 042c 02B70000 		.word	46850
 1133 0430 01B20000 		.word	45569
 1134 0434 02B20000 		.word	45570
 1135 0438 01B80000 		.word	47105
 1136 043c 02B80000 		.word	47106
 1137 0440 01B30000 		.word	45825
 1138 0444 02B30000 		.word	45826
 1139 0448 01B90000 		.word	47361
 1140 044c 02B90000 		.word	47362
 1141 0450 01B50000 		.word	46337
 1142 0454 01BA0000 		.word	47617
 1143 0458 02BA0000 		.word	47618
 1144 045c 01BC0000 		.word	48129
 1145 0460 02BC0000 		.word	48130
 1146 0464 01BD0000 		.word	48385
 1147 0468 02BD0000 		.word	48386
 1148 046c 01BE0000 		.word	48641
 1149 0470 01D10000 		.word	53505
 1150 0474 02D10000 		.word	53506
 1151 0478 03D10000 		.word	53507
 1152 047c 04D10000 		.word	53508
 1153 0480 05D10000 		.word	53509
 1154 0484 06D10000 		.word	53510
 1155 0488 07D10000 		.word	53511
 1156 048c 08D10000 		.word	53512
 1157 0490 09D10000 		.word	53513
 1158 0494 0AD10000 		.word	53514
 1159 0498 0BD10000 		.word	53515
 1160 049c 0CD10000 		.word	53516
 1161 04a0 0DD10000 		.word	53517
 1162 04a4 0ED10000 		.word	53518
 1163 04a8 0FD10000 		.word	53519
 1164 04ac 10D10000 		.word	53520
 1165 04b0 11D10000 		.word	53521
 1166 04b4 12D10000 		.word	53522
ARM GAS  /var/folders/_5/7dt5dlyd7598cb98063hl5tr0000gn/T//cc5bI3Gx.s 			page 40


 1167 04b8 13D10000 		.word	53523
 1168 04bc 14D10000 		.word	53524
 1169 04c0 15D10000 		.word	53525
 1170 04c4 16D10000 		.word	53526
 1171 04c8 17D10000 		.word	53527
 1172 04cc 18D10000 		.word	53528
 1173 04d0 19D10000 		.word	53529
 1174 04d4 1AD10000 		.word	53530
 1175 04d8 1BD10000 		.word	53531
 1176 04dc 1CD10000 		.word	53532
 1177 04e0 1DD10000 		.word	53533
 1178 04e4 1ED10000 		.word	53534
 1179 04e8 1FD10000 		.word	53535
 1180 04ec 20D10000 		.word	53536
 1181              	.L23:
 247:Core/Src/er_tft040.c ****     ER_TFT040_writeCommand(0xD121);
 1182              		.loc 1 247 5 view .LVU230
 1183 04f0 0220     		movs	r0, #2
 1184 04f2 FFF7FEFF 		bl	ER_TFT040_writeData
 1185              	.LVL209:
 248:Core/Src/er_tft040.c ****     ER_TFT040_writeData(0x78);
 1186              		.loc 1 248 5 view .LVU231
 1187 04f6 FD48     		ldr	r0, .L25
 1188 04f8 FFF7FEFF 		bl	ER_TFT040_writeCommand
 1189              	.LVL210:
 249:Core/Src/er_tft040.c ****     ER_TFT040_writeCommand(0xD122);
 1190              		.loc 1 249 5 view .LVU232
 1191 04fc 7820     		movs	r0, #120
 1192 04fe FFF7FEFF 		bl	ER_TFT040_writeData
 1193              	.LVL211:
 250:Core/Src/er_tft040.c ****     ER_TFT040_writeData(0x02);
 1194              		.loc 1 250 5 view .LVU233
 1195 0502 FB48     		ldr	r0, .L25+4
 1196 0504 FFF7FEFF 		bl	ER_TFT040_writeCommand
 1197              	.LVL212:
 251:Core/Src/er_tft040.c ****     ER_TFT040_writeCommand(0xD123);
 1198              		.loc 1 251 5 view .LVU234
 1199 0508 0220     		movs	r0, #2
 1200 050a FFF7FEFF 		bl	ER_TFT040_writeData
 1201              	.LVL213:
 252:Core/Src/er_tft040.c ****     ER_TFT040_writeData(0x94);
 1202              		.loc 1 252 5 view .LVU235
 1203 050e F948     		ldr	r0, .L25+8
 1204 0510 FFF7FEFF 		bl	ER_TFT040_writeCommand
 1205              	.LVL214:
 253:Core/Src/er_tft040.c ****     ER_TFT040_writeCommand(0xD124);
 1206              		.loc 1 253 5 view .LVU236
 1207 0514 9420     		movs	r0, #148
 1208 0516 FFF7FEFF 		bl	ER_TFT040_writeData
 1209              	.LVL215:
 254:Core/Src/er_tft040.c ****     ER_TFT040_writeData(0x02);
 1210              		.loc 1 254 5 view .LVU237
 1211 051a F748     		ldr	r0, .L25+12
 1212 051c FFF7FEFF 		bl	ER_TFT040_writeCommand
 1213              	.LVL216:
 255:Core/Src/er_tft040.c ****     ER_TFT040_writeCommand(0xD125);
 1214              		.loc 1 255 5 view .LVU238
ARM GAS  /var/folders/_5/7dt5dlyd7598cb98063hl5tr0000gn/T//cc5bI3Gx.s 			page 41


 1215 0520 0220     		movs	r0, #2
 1216 0522 FFF7FEFF 		bl	ER_TFT040_writeData
 1217              	.LVL217:
 256:Core/Src/er_tft040.c ****     ER_TFT040_writeData(0xA6);
 1218              		.loc 1 256 5 view .LVU239
 1219 0526 F548     		ldr	r0, .L25+16
 1220 0528 FFF7FEFF 		bl	ER_TFT040_writeCommand
 1221              	.LVL218:
 257:Core/Src/er_tft040.c ****     ER_TFT040_writeCommand(0xD126);
 1222              		.loc 1 257 5 view .LVU240
 1223 052c A620     		movs	r0, #166
 1224 052e FFF7FEFF 		bl	ER_TFT040_writeData
 1225              	.LVL219:
 258:Core/Src/er_tft040.c ****     ER_TFT040_writeData(0x02);
 1226              		.loc 1 258 5 view .LVU241
 1227 0532 F348     		ldr	r0, .L25+20
 1228 0534 FFF7FEFF 		bl	ER_TFT040_writeCommand
 1229              	.LVL220:
 259:Core/Src/er_tft040.c ****     ER_TFT040_writeCommand(0xD127);
 1230              		.loc 1 259 5 view .LVU242
 1231 0538 0220     		movs	r0, #2
 1232 053a FFF7FEFF 		bl	ER_TFT040_writeData
 1233              	.LVL221:
 260:Core/Src/er_tft040.c ****     ER_TFT040_writeData(0xBB);
 1234              		.loc 1 260 5 view .LVU243
 1235 053e F148     		ldr	r0, .L25+24
 1236 0540 FFF7FEFF 		bl	ER_TFT040_writeCommand
 1237              	.LVL222:
 261:Core/Src/er_tft040.c ****     ER_TFT040_writeCommand(0xD128);
 1238              		.loc 1 261 5 view .LVU244
 1239 0544 BB20     		movs	r0, #187
 1240 0546 FFF7FEFF 		bl	ER_TFT040_writeData
 1241              	.LVL223:
 262:Core/Src/er_tft040.c ****     ER_TFT040_writeData(0x02);
 1242              		.loc 1 262 5 view .LVU245
 1243 054a EF48     		ldr	r0, .L25+28
 1244 054c FFF7FEFF 		bl	ER_TFT040_writeCommand
 1245              	.LVL224:
 263:Core/Src/er_tft040.c ****     ER_TFT040_writeCommand(0xD129);
 1246              		.loc 1 263 5 view .LVU246
 1247 0550 0220     		movs	r0, #2
 1248 0552 FFF7FEFF 		bl	ER_TFT040_writeData
 1249              	.LVL225:
 264:Core/Src/er_tft040.c ****     ER_TFT040_writeData(0xCA);
 1250              		.loc 1 264 5 view .LVU247
 1251 0556 ED48     		ldr	r0, .L25+32
 1252 0558 FFF7FEFF 		bl	ER_TFT040_writeCommand
 1253              	.LVL226:
 265:Core/Src/er_tft040.c ****     ER_TFT040_writeCommand(0xD12A);
 1254              		.loc 1 265 5 view .LVU248
 1255 055c CA20     		movs	r0, #202
 1256 055e FFF7FEFF 		bl	ER_TFT040_writeData
 1257              	.LVL227:
 266:Core/Src/er_tft040.c ****     ER_TFT040_writeData(0x02);
 1258              		.loc 1 266 5 view .LVU249
 1259 0562 EB48     		ldr	r0, .L25+36
 1260 0564 FFF7FEFF 		bl	ER_TFT040_writeCommand
ARM GAS  /var/folders/_5/7dt5dlyd7598cb98063hl5tr0000gn/T//cc5bI3Gx.s 			page 42


 1261              	.LVL228:
 267:Core/Src/er_tft040.c ****     ER_TFT040_writeCommand(0xD12B);
 1262              		.loc 1 267 5 view .LVU250
 1263 0568 0220     		movs	r0, #2
 1264 056a FFF7FEFF 		bl	ER_TFT040_writeData
 1265              	.LVL229:
 268:Core/Src/er_tft040.c ****     ER_TFT040_writeData(0xDB);
 1266              		.loc 1 268 5 view .LVU251
 1267 056e E948     		ldr	r0, .L25+40
 1268 0570 FFF7FEFF 		bl	ER_TFT040_writeCommand
 1269              	.LVL230:
 269:Core/Src/er_tft040.c ****     ER_TFT040_writeCommand(0xD12C);
 1270              		.loc 1 269 5 view .LVU252
 1271 0574 DB20     		movs	r0, #219
 1272 0576 FFF7FEFF 		bl	ER_TFT040_writeData
 1273              	.LVL231:
 270:Core/Src/er_tft040.c ****     ER_TFT040_writeData(0x02);
 1274              		.loc 1 270 5 view .LVU253
 1275 057a E748     		ldr	r0, .L25+44
 1276 057c FFF7FEFF 		bl	ER_TFT040_writeCommand
 1277              	.LVL232:
 271:Core/Src/er_tft040.c ****     ER_TFT040_writeCommand(0xD12D);
 1278              		.loc 1 271 5 view .LVU254
 1279 0580 0220     		movs	r0, #2
 1280 0582 FFF7FEFF 		bl	ER_TFT040_writeData
 1281              	.LVL233:
 272:Core/Src/er_tft040.c ****     ER_TFT040_writeData(0xE8);
 1282              		.loc 1 272 5 view .LVU255
 1283 0586 E548     		ldr	r0, .L25+48
 1284 0588 FFF7FEFF 		bl	ER_TFT040_writeCommand
 1285              	.LVL234:
 273:Core/Src/er_tft040.c ****     ER_TFT040_writeCommand(0xD12E);
 1286              		.loc 1 273 5 view .LVU256
 1287 058c E820     		movs	r0, #232
 1288 058e FFF7FEFF 		bl	ER_TFT040_writeData
 1289              	.LVL235:
 274:Core/Src/er_tft040.c ****     ER_TFT040_writeData(0x02);
 1290              		.loc 1 274 5 view .LVU257
 1291 0592 E348     		ldr	r0, .L25+52
 1292 0594 FFF7FEFF 		bl	ER_TFT040_writeCommand
 1293              	.LVL236:
 275:Core/Src/er_tft040.c ****     ER_TFT040_writeCommand(0xD12F);
 1294              		.loc 1 275 5 view .LVU258
 1295 0598 0220     		movs	r0, #2
 1296 059a FFF7FEFF 		bl	ER_TFT040_writeData
 1297              	.LVL237:
 276:Core/Src/er_tft040.c ****     ER_TFT040_writeData(0xF9);  //
 1298              		.loc 1 276 5 view .LVU259
 1299 059e E148     		ldr	r0, .L25+56
 1300 05a0 FFF7FEFF 		bl	ER_TFT040_writeCommand
 1301              	.LVL238:
 277:Core/Src/er_tft040.c ****     ER_TFT040_writeCommand(0xD130);
 1302              		.loc 1 277 5 view .LVU260
 1303 05a4 F920     		movs	r0, #249
 1304 05a6 FFF7FEFF 		bl	ER_TFT040_writeData
 1305              	.LVL239:
 278:Core/Src/er_tft040.c ****     ER_TFT040_writeData(0x03);
ARM GAS  /var/folders/_5/7dt5dlyd7598cb98063hl5tr0000gn/T//cc5bI3Gx.s 			page 43


 1306              		.loc 1 278 5 view .LVU261
 1307 05aa DF48     		ldr	r0, .L25+60
 1308 05ac FFF7FEFF 		bl	ER_TFT040_writeCommand
 1309              	.LVL240:
 279:Core/Src/er_tft040.c ****     ER_TFT040_writeCommand(0xD131);
 1310              		.loc 1 279 5 view .LVU262
 1311 05b0 0320     		movs	r0, #3
 1312 05b2 FFF7FEFF 		bl	ER_TFT040_writeData
 1313              	.LVL241:
 280:Core/Src/er_tft040.c ****     ER_TFT040_writeData(0x1F);
 1314              		.loc 1 280 5 view .LVU263
 1315 05b6 DD48     		ldr	r0, .L25+64
 1316 05b8 FFF7FEFF 		bl	ER_TFT040_writeCommand
 1317              	.LVL242:
 281:Core/Src/er_tft040.c ****     ER_TFT040_writeCommand(0xD132);
 1318              		.loc 1 281 5 view .LVU264
 1319 05bc 1F20     		movs	r0, #31
 1320 05be FFF7FEFF 		bl	ER_TFT040_writeData
 1321              	.LVL243:
 282:Core/Src/er_tft040.c ****     ER_TFT040_writeData(0x03);
 1322              		.loc 1 282 5 view .LVU265
 1323 05c2 DB48     		ldr	r0, .L25+68
 1324 05c4 FFF7FEFF 		bl	ER_TFT040_writeCommand
 1325              	.LVL244:
 283:Core/Src/er_tft040.c ****     ER_TFT040_writeCommand(0xD133);
 1326              		.loc 1 283 5 view .LVU266
 1327 05c8 0320     		movs	r0, #3
 1328 05ca FFF7FEFF 		bl	ER_TFT040_writeData
 1329              	.LVL245:
 284:Core/Src/er_tft040.c ****     ER_TFT040_writeData(0x7F);
 1330              		.loc 1 284 5 view .LVU267
 1331 05ce D948     		ldr	r0, .L25+72
 1332 05d0 FFF7FEFF 		bl	ER_TFT040_writeCommand
 1333              	.LVL246:
 285:Core/Src/er_tft040.c **** 
 1334              		.loc 1 285 5 view .LVU268
 1335 05d4 7F20     		movs	r0, #127
 1336 05d6 FFF7FEFF 		bl	ER_TFT040_writeData
 1337              	.LVL247:
 287:Core/Src/er_tft040.c ****     ER_TFT040_writeData(0x00);
 1338              		.loc 1 287 5 view .LVU269
 1339 05da D220     		movs	r0, #210
 1340 05dc 0002     		lsls	r0, r0, #8
 1341 05de FFF7FEFF 		bl	ER_TFT040_writeCommand
 1342              	.LVL248:
 288:Core/Src/er_tft040.c ****     ER_TFT040_writeCommand(0xD201);
 1343              		.loc 1 288 5 view .LVU270
 1344 05e2 0020     		movs	r0, #0
 1345 05e4 FFF7FEFF 		bl	ER_TFT040_writeData
 1346              	.LVL249:
 289:Core/Src/er_tft040.c ****     ER_TFT040_writeData(0x2D);
 1347              		.loc 1 289 5 view .LVU271
 1348 05e8 D348     		ldr	r0, .L25+76
 1349 05ea FFF7FEFF 		bl	ER_TFT040_writeCommand
 1350              	.LVL250:
 290:Core/Src/er_tft040.c ****     ER_TFT040_writeCommand(0xD202);
 1351              		.loc 1 290 5 view .LVU272
ARM GAS  /var/folders/_5/7dt5dlyd7598cb98063hl5tr0000gn/T//cc5bI3Gx.s 			page 44


 1352 05ee 2D20     		movs	r0, #45
 1353 05f0 FFF7FEFF 		bl	ER_TFT040_writeData
 1354              	.LVL251:
 291:Core/Src/er_tft040.c ****     ER_TFT040_writeData(0x00);
 1355              		.loc 1 291 5 view .LVU273
 1356 05f4 D148     		ldr	r0, .L25+80
 1357 05f6 FFF7FEFF 		bl	ER_TFT040_writeCommand
 1358              	.LVL252:
 292:Core/Src/er_tft040.c ****     ER_TFT040_writeCommand(0xD203);
 1359              		.loc 1 292 5 view .LVU274
 1360 05fa 0020     		movs	r0, #0
 1361 05fc FFF7FEFF 		bl	ER_TFT040_writeData
 1362              	.LVL253:
 293:Core/Src/er_tft040.c ****     ER_TFT040_writeData(0x2E);
 1363              		.loc 1 293 5 view .LVU275
 1364 0600 CF48     		ldr	r0, .L25+84
 1365 0602 FFF7FEFF 		bl	ER_TFT040_writeCommand
 1366              	.LVL254:
 294:Core/Src/er_tft040.c ****     ER_TFT040_writeCommand(0xD204);
 1367              		.loc 1 294 5 view .LVU276
 1368 0606 2E20     		movs	r0, #46
 1369 0608 FFF7FEFF 		bl	ER_TFT040_writeData
 1370              	.LVL255:
 295:Core/Src/er_tft040.c ****     ER_TFT040_writeData(0x00);
 1371              		.loc 1 295 5 view .LVU277
 1372 060c CD48     		ldr	r0, .L25+88
 1373 060e FFF7FEFF 		bl	ER_TFT040_writeCommand
 1374              	.LVL256:
 296:Core/Src/er_tft040.c ****     ER_TFT040_writeCommand(0xD205);
 1375              		.loc 1 296 5 view .LVU278
 1376 0612 0020     		movs	r0, #0
 1377 0614 FFF7FEFF 		bl	ER_TFT040_writeData
 1378              	.LVL257:
 297:Core/Src/er_tft040.c ****     ER_TFT040_writeData(0x32);
 1379              		.loc 1 297 5 view .LVU279
 1380 0618 CB48     		ldr	r0, .L25+92
 1381 061a FFF7FEFF 		bl	ER_TFT040_writeCommand
 1382              	.LVL258:
 298:Core/Src/er_tft040.c ****     ER_TFT040_writeCommand(0xD206);
 1383              		.loc 1 298 5 view .LVU280
 1384 061e 3220     		movs	r0, #50
 1385 0620 FFF7FEFF 		bl	ER_TFT040_writeData
 1386              	.LVL259:
 299:Core/Src/er_tft040.c ****     ER_TFT040_writeData(0x00);
 1387              		.loc 1 299 5 view .LVU281
 1388 0624 C948     		ldr	r0, .L25+96
 1389 0626 FFF7FEFF 		bl	ER_TFT040_writeCommand
 1390              	.LVL260:
 300:Core/Src/er_tft040.c ****     ER_TFT040_writeCommand(0xD207);
 1391              		.loc 1 300 5 view .LVU282
 1392 062a 0020     		movs	r0, #0
 1393 062c FFF7FEFF 		bl	ER_TFT040_writeData
 1394              	.LVL261:
 301:Core/Src/er_tft040.c ****     ER_TFT040_writeData(0x44);
 1395              		.loc 1 301 5 view .LVU283
 1396 0630 C748     		ldr	r0, .L25+100
 1397 0632 FFF7FEFF 		bl	ER_TFT040_writeCommand
ARM GAS  /var/folders/_5/7dt5dlyd7598cb98063hl5tr0000gn/T//cc5bI3Gx.s 			page 45


 1398              	.LVL262:
 302:Core/Src/er_tft040.c ****     ER_TFT040_writeCommand(0xD208);
 1399              		.loc 1 302 5 view .LVU284
 1400 0636 4420     		movs	r0, #68
 1401 0638 FFF7FEFF 		bl	ER_TFT040_writeData
 1402              	.LVL263:
 303:Core/Src/er_tft040.c ****     ER_TFT040_writeData(0x00);
 1403              		.loc 1 303 5 view .LVU285
 1404 063c C548     		ldr	r0, .L25+104
 1405 063e FFF7FEFF 		bl	ER_TFT040_writeCommand
 1406              	.LVL264:
 304:Core/Src/er_tft040.c ****     ER_TFT040_writeCommand(0xD209);
 1407              		.loc 1 304 5 view .LVU286
 1408 0642 0020     		movs	r0, #0
 1409 0644 FFF7FEFF 		bl	ER_TFT040_writeData
 1410              	.LVL265:
 305:Core/Src/er_tft040.c ****     ER_TFT040_writeData(0x53);
 1411              		.loc 1 305 5 view .LVU287
 1412 0648 C348     		ldr	r0, .L25+108
 1413 064a FFF7FEFF 		bl	ER_TFT040_writeCommand
 1414              	.LVL266:
 306:Core/Src/er_tft040.c ****     ER_TFT040_writeCommand(0xD20A);
 1415              		.loc 1 306 5 view .LVU288
 1416 064e 5320     		movs	r0, #83
 1417 0650 FFF7FEFF 		bl	ER_TFT040_writeData
 1418              	.LVL267:
 307:Core/Src/er_tft040.c ****     ER_TFT040_writeData(0x00);
 1419              		.loc 1 307 5 view .LVU289
 1420 0654 C148     		ldr	r0, .L25+112
 1421 0656 FFF7FEFF 		bl	ER_TFT040_writeCommand
 1422              	.LVL268:
 308:Core/Src/er_tft040.c ****     ER_TFT040_writeCommand(0xD20B);
 1423              		.loc 1 308 5 view .LVU290
 1424 065a 0020     		movs	r0, #0
 1425 065c FFF7FEFF 		bl	ER_TFT040_writeData
 1426              	.LVL269:
 309:Core/Src/er_tft040.c ****     ER_TFT040_writeData(0x88);
 1427              		.loc 1 309 5 view .LVU291
 1428 0660 BF48     		ldr	r0, .L25+116
 1429 0662 FFF7FEFF 		bl	ER_TFT040_writeCommand
 1430              	.LVL270:
 310:Core/Src/er_tft040.c ****     ER_TFT040_writeCommand(0xD20C);
 1431              		.loc 1 310 5 view .LVU292
 1432 0666 8820     		movs	r0, #136
 1433 0668 FFF7FEFF 		bl	ER_TFT040_writeData
 1434              	.LVL271:
 311:Core/Src/er_tft040.c ****     ER_TFT040_writeData(0x00);
 1435              		.loc 1 311 5 view .LVU293
 1436 066c BD48     		ldr	r0, .L25+120
 1437 066e FFF7FEFF 		bl	ER_TFT040_writeCommand
 1438              	.LVL272:
 312:Core/Src/er_tft040.c ****     ER_TFT040_writeCommand(0xD20D);
 1439              		.loc 1 312 5 view .LVU294
 1440 0672 0020     		movs	r0, #0
 1441 0674 FFF7FEFF 		bl	ER_TFT040_writeData
 1442              	.LVL273:
 313:Core/Src/er_tft040.c ****     ER_TFT040_writeData(0xB6);
ARM GAS  /var/folders/_5/7dt5dlyd7598cb98063hl5tr0000gn/T//cc5bI3Gx.s 			page 46


 1443              		.loc 1 313 5 view .LVU295
 1444 0678 BB48     		ldr	r0, .L25+124
 1445 067a FFF7FEFF 		bl	ER_TFT040_writeCommand
 1446              	.LVL274:
 314:Core/Src/er_tft040.c ****     ER_TFT040_writeCommand(0xD20E);
 1447              		.loc 1 314 5 view .LVU296
 1448 067e B620     		movs	r0, #182
 1449 0680 FFF7FEFF 		bl	ER_TFT040_writeData
 1450              	.LVL275:
 315:Core/Src/er_tft040.c ****     ER_TFT040_writeData(0x00);
 1451              		.loc 1 315 5 view .LVU297
 1452 0684 B948     		ldr	r0, .L25+128
 1453 0686 FFF7FEFF 		bl	ER_TFT040_writeCommand
 1454              	.LVL276:
 316:Core/Src/er_tft040.c ****     ER_TFT040_writeCommand(0xD20F);
 1455              		.loc 1 316 5 view .LVU298
 1456 068a 0020     		movs	r0, #0
 1457 068c FFF7FEFF 		bl	ER_TFT040_writeData
 1458              	.LVL277:
 317:Core/Src/er_tft040.c ****     ER_TFT040_writeData(0xF3);  //
 1459              		.loc 1 317 5 view .LVU299
 1460 0690 B748     		ldr	r0, .L25+132
 1461 0692 FFF7FEFF 		bl	ER_TFT040_writeCommand
 1462              	.LVL278:
 318:Core/Src/er_tft040.c ****     ER_TFT040_writeCommand(0xD210);
 1463              		.loc 1 318 5 view .LVU300
 1464 0696 F320     		movs	r0, #243
 1465 0698 FFF7FEFF 		bl	ER_TFT040_writeData
 1466              	.LVL279:
 319:Core/Src/er_tft040.c ****     ER_TFT040_writeData(0x01);
 1467              		.loc 1 319 5 view .LVU301
 1468 069c B548     		ldr	r0, .L25+136
 1469 069e FFF7FEFF 		bl	ER_TFT040_writeCommand
 1470              	.LVL280:
 320:Core/Src/er_tft040.c ****     ER_TFT040_writeCommand(0xD211);
 1471              		.loc 1 320 5 view .LVU302
 1472 06a2 0120     		movs	r0, #1
 1473 06a4 FFF7FEFF 		bl	ER_TFT040_writeData
 1474              	.LVL281:
 321:Core/Src/er_tft040.c ****     ER_TFT040_writeData(0x22);
 1475              		.loc 1 321 5 view .LVU303
 1476 06a8 B348     		ldr	r0, .L25+140
 1477 06aa FFF7FEFF 		bl	ER_TFT040_writeCommand
 1478              	.LVL282:
 322:Core/Src/er_tft040.c ****     ER_TFT040_writeCommand(0xD212);
 1479              		.loc 1 322 5 view .LVU304
 1480 06ae 2220     		movs	r0, #34
 1481 06b0 FFF7FEFF 		bl	ER_TFT040_writeData
 1482              	.LVL283:
 323:Core/Src/er_tft040.c ****     ER_TFT040_writeData(0x01);
 1483              		.loc 1 323 5 view .LVU305
 1484 06b4 B148     		ldr	r0, .L25+144
 1485 06b6 FFF7FEFF 		bl	ER_TFT040_writeCommand
 1486              	.LVL284:
 324:Core/Src/er_tft040.c ****     ER_TFT040_writeCommand(0xD213);
 1487              		.loc 1 324 5 view .LVU306
 1488 06ba 0120     		movs	r0, #1
ARM GAS  /var/folders/_5/7dt5dlyd7598cb98063hl5tr0000gn/T//cc5bI3Gx.s 			page 47


 1489 06bc FFF7FEFF 		bl	ER_TFT040_writeData
 1490              	.LVL285:
 325:Core/Src/er_tft040.c ****     ER_TFT040_writeData(0x64);
 1491              		.loc 1 325 5 view .LVU307
 1492 06c0 AF48     		ldr	r0, .L25+148
 1493 06c2 FFF7FEFF 		bl	ER_TFT040_writeCommand
 1494              	.LVL286:
 326:Core/Src/er_tft040.c ****     ER_TFT040_writeCommand(0xD214);
 1495              		.loc 1 326 5 view .LVU308
 1496 06c6 6420     		movs	r0, #100
 1497 06c8 FFF7FEFF 		bl	ER_TFT040_writeData
 1498              	.LVL287:
 327:Core/Src/er_tft040.c ****     ER_TFT040_writeData(0x01);
 1499              		.loc 1 327 5 view .LVU309
 1500 06cc AD48     		ldr	r0, .L25+152
 1501 06ce FFF7FEFF 		bl	ER_TFT040_writeCommand
 1502              	.LVL288:
 328:Core/Src/er_tft040.c ****     ER_TFT040_writeCommand(0xD215);
 1503              		.loc 1 328 5 view .LVU310
 1504 06d2 0120     		movs	r0, #1
 1505 06d4 FFF7FEFF 		bl	ER_TFT040_writeData
 1506              	.LVL289:
 329:Core/Src/er_tft040.c ****     ER_TFT040_writeData(0x92);
 1507              		.loc 1 329 5 view .LVU311
 1508 06d8 AB48     		ldr	r0, .L25+156
 1509 06da FFF7FEFF 		bl	ER_TFT040_writeCommand
 1510              	.LVL290:
 330:Core/Src/er_tft040.c ****     ER_TFT040_writeCommand(0xD216);
 1511              		.loc 1 330 5 view .LVU312
 1512 06de 9220     		movs	r0, #146
 1513 06e0 FFF7FEFF 		bl	ER_TFT040_writeData
 1514              	.LVL291:
 331:Core/Src/er_tft040.c ****     ER_TFT040_writeData(0x01);
 1515              		.loc 1 331 5 view .LVU313
 1516 06e4 A948     		ldr	r0, .L25+160
 1517 06e6 FFF7FEFF 		bl	ER_TFT040_writeCommand
 1518              	.LVL292:
 332:Core/Src/er_tft040.c ****     ER_TFT040_writeCommand(0xD217);
 1519              		.loc 1 332 5 view .LVU314
 1520 06ea 0120     		movs	r0, #1
 1521 06ec FFF7FEFF 		bl	ER_TFT040_writeData
 1522              	.LVL293:
 333:Core/Src/er_tft040.c ****     ER_TFT040_writeData(0xD4);
 1523              		.loc 1 333 5 view .LVU315
 1524 06f0 A748     		ldr	r0, .L25+164
 1525 06f2 FFF7FEFF 		bl	ER_TFT040_writeCommand
 1526              	.LVL294:
 334:Core/Src/er_tft040.c ****     ER_TFT040_writeCommand(0xD218);
 1527              		.loc 1 334 5 view .LVU316
 1528 06f6 D420     		movs	r0, #212
 1529 06f8 FFF7FEFF 		bl	ER_TFT040_writeData
 1530              	.LVL295:
 335:Core/Src/er_tft040.c ****     ER_TFT040_writeData(0x02);
 1531              		.loc 1 335 5 view .LVU317
 1532 06fc A548     		ldr	r0, .L25+168
 1533 06fe FFF7FEFF 		bl	ER_TFT040_writeCommand
 1534              	.LVL296:
ARM GAS  /var/folders/_5/7dt5dlyd7598cb98063hl5tr0000gn/T//cc5bI3Gx.s 			page 48


 336:Core/Src/er_tft040.c ****     ER_TFT040_writeCommand(0xD219);
 1535              		.loc 1 336 5 view .LVU318
 1536 0702 0220     		movs	r0, #2
 1537 0704 FFF7FEFF 		bl	ER_TFT040_writeData
 1538              	.LVL297:
 337:Core/Src/er_tft040.c ****     ER_TFT040_writeData(0x07);
 1539              		.loc 1 337 5 view .LVU319
 1540 0708 A348     		ldr	r0, .L25+172
 1541 070a FFF7FEFF 		bl	ER_TFT040_writeCommand
 1542              	.LVL298:
 338:Core/Src/er_tft040.c ****     ER_TFT040_writeCommand(0xD21A);
 1543              		.loc 1 338 5 view .LVU320
 1544 070e 0720     		movs	r0, #7
 1545 0710 FFF7FEFF 		bl	ER_TFT040_writeData
 1546              	.LVL299:
 339:Core/Src/er_tft040.c ****     ER_TFT040_writeData(0x02);
 1547              		.loc 1 339 5 view .LVU321
 1548 0714 A148     		ldr	r0, .L25+176
 1549 0716 FFF7FEFF 		bl	ER_TFT040_writeCommand
 1550              	.LVL300:
 340:Core/Src/er_tft040.c ****     ER_TFT040_writeCommand(0xD21B);
 1551              		.loc 1 340 5 view .LVU322
 1552 071a 0220     		movs	r0, #2
 1553 071c FFF7FEFF 		bl	ER_TFT040_writeData
 1554              	.LVL301:
 341:Core/Src/er_tft040.c ****     ER_TFT040_writeData(0x08);
 1555              		.loc 1 341 5 view .LVU323
 1556 0720 9F48     		ldr	r0, .L25+180
 1557 0722 FFF7FEFF 		bl	ER_TFT040_writeCommand
 1558              	.LVL302:
 342:Core/Src/er_tft040.c ****     ER_TFT040_writeCommand(0xD21C);
 1559              		.loc 1 342 5 view .LVU324
 1560 0726 0820     		movs	r0, #8
 1561 0728 FFF7FEFF 		bl	ER_TFT040_writeData
 1562              	.LVL303:
 343:Core/Src/er_tft040.c ****     ER_TFT040_writeData(0x02);
 1563              		.loc 1 343 5 view .LVU325
 1564 072c 9D48     		ldr	r0, .L25+184
 1565 072e FFF7FEFF 		bl	ER_TFT040_writeCommand
 1566              	.LVL304:
 344:Core/Src/er_tft040.c ****     ER_TFT040_writeCommand(0xD21D);
 1567              		.loc 1 344 5 view .LVU326
 1568 0732 0220     		movs	r0, #2
 1569 0734 FFF7FEFF 		bl	ER_TFT040_writeData
 1570              	.LVL305:
 345:Core/Src/er_tft040.c ****     ER_TFT040_writeData(0x34);
 1571              		.loc 1 345 5 view .LVU327
 1572 0738 9B48     		ldr	r0, .L25+188
 1573 073a FFF7FEFF 		bl	ER_TFT040_writeCommand
 1574              	.LVL306:
 346:Core/Src/er_tft040.c ****     ER_TFT040_writeCommand(0xD21E);
 1575              		.loc 1 346 5 view .LVU328
 1576 073e 3420     		movs	r0, #52
 1577 0740 FFF7FEFF 		bl	ER_TFT040_writeData
 1578              	.LVL307:
 347:Core/Src/er_tft040.c ****     ER_TFT040_writeData(0x02);
 1579              		.loc 1 347 5 view .LVU329
ARM GAS  /var/folders/_5/7dt5dlyd7598cb98063hl5tr0000gn/T//cc5bI3Gx.s 			page 49


 1580 0744 9948     		ldr	r0, .L25+192
 1581 0746 FFF7FEFF 		bl	ER_TFT040_writeCommand
 1582              	.LVL308:
 348:Core/Src/er_tft040.c ****     ER_TFT040_writeCommand(0xD21F);
 1583              		.loc 1 348 5 view .LVU330
 1584 074a 0220     		movs	r0, #2
 1585 074c FFF7FEFF 		bl	ER_TFT040_writeData
 1586              	.LVL309:
 349:Core/Src/er_tft040.c ****     ER_TFT040_writeData(0x5F);  //
 1587              		.loc 1 349 5 view .LVU331
 1588 0750 9748     		ldr	r0, .L25+196
 1589 0752 FFF7FEFF 		bl	ER_TFT040_writeCommand
 1590              	.LVL310:
 350:Core/Src/er_tft040.c ****     ER_TFT040_writeCommand(0xD220);
 1591              		.loc 1 350 5 view .LVU332
 1592 0756 5F20     		movs	r0, #95
 1593 0758 FFF7FEFF 		bl	ER_TFT040_writeData
 1594              	.LVL311:
 351:Core/Src/er_tft040.c ****     ER_TFT040_writeData(0x02);
 1595              		.loc 1 351 5 view .LVU333
 1596 075c 9548     		ldr	r0, .L25+200
 1597 075e FFF7FEFF 		bl	ER_TFT040_writeCommand
 1598              	.LVL312:
 352:Core/Src/er_tft040.c ****     ER_TFT040_writeCommand(0xD221);
 1599              		.loc 1 352 5 view .LVU334
 1600 0762 0220     		movs	r0, #2
 1601 0764 FFF7FEFF 		bl	ER_TFT040_writeData
 1602              	.LVL313:
 353:Core/Src/er_tft040.c ****     ER_TFT040_writeData(0x78);
 1603              		.loc 1 353 5 view .LVU335
 1604 0768 9348     		ldr	r0, .L25+204
 1605 076a FFF7FEFF 		bl	ER_TFT040_writeCommand
 1606              	.LVL314:
 354:Core/Src/er_tft040.c ****     ER_TFT040_writeCommand(0xD222);
 1607              		.loc 1 354 5 view .LVU336
 1608 076e 7820     		movs	r0, #120
 1609 0770 FFF7FEFF 		bl	ER_TFT040_writeData
 1610              	.LVL315:
 355:Core/Src/er_tft040.c ****     ER_TFT040_writeData(0x02);
 1611              		.loc 1 355 5 view .LVU337
 1612 0774 9148     		ldr	r0, .L25+208
 1613 0776 FFF7FEFF 		bl	ER_TFT040_writeCommand
 1614              	.LVL316:
 356:Core/Src/er_tft040.c ****     ER_TFT040_writeCommand(0xD223);
 1615              		.loc 1 356 5 view .LVU338
 1616 077a 0220     		movs	r0, #2
 1617 077c FFF7FEFF 		bl	ER_TFT040_writeData
 1618              	.LVL317:
 357:Core/Src/er_tft040.c ****     ER_TFT040_writeData(0x94);
 1619              		.loc 1 357 5 view .LVU339
 1620 0780 8F48     		ldr	r0, .L25+212
 1621 0782 FFF7FEFF 		bl	ER_TFT040_writeCommand
 1622              	.LVL318:
 358:Core/Src/er_tft040.c ****     ER_TFT040_writeCommand(0xD224);
 1623              		.loc 1 358 5 view .LVU340
 1624 0786 9420     		movs	r0, #148
 1625 0788 FFF7FEFF 		bl	ER_TFT040_writeData
ARM GAS  /var/folders/_5/7dt5dlyd7598cb98063hl5tr0000gn/T//cc5bI3Gx.s 			page 50


 1626              	.LVL319:
 359:Core/Src/er_tft040.c ****     ER_TFT040_writeData(0x02);
 1627              		.loc 1 359 5 view .LVU341
 1628 078c 8D48     		ldr	r0, .L25+216
 1629 078e FFF7FEFF 		bl	ER_TFT040_writeCommand
 1630              	.LVL320:
 360:Core/Src/er_tft040.c ****     ER_TFT040_writeCommand(0xD225);
 1631              		.loc 1 360 5 view .LVU342
 1632 0792 0220     		movs	r0, #2
 1633 0794 FFF7FEFF 		bl	ER_TFT040_writeData
 1634              	.LVL321:
 361:Core/Src/er_tft040.c ****     ER_TFT040_writeData(0xA6);
 1635              		.loc 1 361 5 view .LVU343
 1636 0798 8B48     		ldr	r0, .L25+220
 1637 079a FFF7FEFF 		bl	ER_TFT040_writeCommand
 1638              	.LVL322:
 362:Core/Src/er_tft040.c ****     ER_TFT040_writeCommand(0xD226);
 1639              		.loc 1 362 5 view .LVU344
 1640 079e A620     		movs	r0, #166
 1641 07a0 FFF7FEFF 		bl	ER_TFT040_writeData
 1642              	.LVL323:
 363:Core/Src/er_tft040.c ****     ER_TFT040_writeData(0x02);
 1643              		.loc 1 363 5 view .LVU345
 1644 07a4 8948     		ldr	r0, .L25+224
 1645 07a6 FFF7FEFF 		bl	ER_TFT040_writeCommand
 1646              	.LVL324:
 364:Core/Src/er_tft040.c ****     ER_TFT040_writeCommand(0xD227);
 1647              		.loc 1 364 5 view .LVU346
 1648 07aa 0220     		movs	r0, #2
 1649 07ac FFF7FEFF 		bl	ER_TFT040_writeData
 1650              	.LVL325:
 365:Core/Src/er_tft040.c ****     ER_TFT040_writeData(0xBB);
 1651              		.loc 1 365 5 view .LVU347
 1652 07b0 8748     		ldr	r0, .L25+228
 1653 07b2 FFF7FEFF 		bl	ER_TFT040_writeCommand
 1654              	.LVL326:
 366:Core/Src/er_tft040.c ****     ER_TFT040_writeCommand(0xD228);
 1655              		.loc 1 366 5 view .LVU348
 1656 07b6 BB20     		movs	r0, #187
 1657 07b8 FFF7FEFF 		bl	ER_TFT040_writeData
 1658              	.LVL327:
 367:Core/Src/er_tft040.c ****     ER_TFT040_writeData(0x02);
 1659              		.loc 1 367 5 view .LVU349
 1660 07bc 8548     		ldr	r0, .L25+232
 1661 07be FFF7FEFF 		bl	ER_TFT040_writeCommand
 1662              	.LVL328:
 368:Core/Src/er_tft040.c ****     ER_TFT040_writeCommand(0xD229);
 1663              		.loc 1 368 5 view .LVU350
 1664 07c2 0220     		movs	r0, #2
 1665 07c4 FFF7FEFF 		bl	ER_TFT040_writeData
 1666              	.LVL329:
 369:Core/Src/er_tft040.c ****     ER_TFT040_writeData(0xCA);
 1667              		.loc 1 369 5 view .LVU351
 1668 07c8 8348     		ldr	r0, .L25+236
 1669 07ca FFF7FEFF 		bl	ER_TFT040_writeCommand
 1670              	.LVL330:
 370:Core/Src/er_tft040.c ****     ER_TFT040_writeCommand(0xD22A);
ARM GAS  /var/folders/_5/7dt5dlyd7598cb98063hl5tr0000gn/T//cc5bI3Gx.s 			page 51


 1671              		.loc 1 370 5 view .LVU352
 1672 07ce CA20     		movs	r0, #202
 1673 07d0 FFF7FEFF 		bl	ER_TFT040_writeData
 1674              	.LVL331:
 371:Core/Src/er_tft040.c ****     ER_TFT040_writeData(0x02);
 1675              		.loc 1 371 5 view .LVU353
 1676 07d4 8148     		ldr	r0, .L25+240
 1677 07d6 FFF7FEFF 		bl	ER_TFT040_writeCommand
 1678              	.LVL332:
 372:Core/Src/er_tft040.c ****     ER_TFT040_writeCommand(0xD22B);
 1679              		.loc 1 372 5 view .LVU354
 1680 07da 0220     		movs	r0, #2
 1681 07dc FFF7FEFF 		bl	ER_TFT040_writeData
 1682              	.LVL333:
 373:Core/Src/er_tft040.c ****     ER_TFT040_writeData(0xDB);
 1683              		.loc 1 373 5 view .LVU355
 1684 07e0 7F48     		ldr	r0, .L25+244
 1685 07e2 FFF7FEFF 		bl	ER_TFT040_writeCommand
 1686              	.LVL334:
 374:Core/Src/er_tft040.c ****     ER_TFT040_writeCommand(0xD22C);
 1687              		.loc 1 374 5 view .LVU356
 1688 07e6 DB20     		movs	r0, #219
 1689 07e8 FFF7FEFF 		bl	ER_TFT040_writeData
 1690              	.LVL335:
 375:Core/Src/er_tft040.c ****     ER_TFT040_writeData(0x02);
 1691              		.loc 1 375 5 view .LVU357
 1692 07ec 7D48     		ldr	r0, .L25+248
 1693 07ee FFF7FEFF 		bl	ER_TFT040_writeCommand
 1694              	.LVL336:
 376:Core/Src/er_tft040.c ****     ER_TFT040_writeCommand(0xD22D);
 1695              		.loc 1 376 5 view .LVU358
 1696 07f2 0220     		movs	r0, #2
 1697 07f4 FFF7FEFF 		bl	ER_TFT040_writeData
 1698              	.LVL337:
 377:Core/Src/er_tft040.c ****     ER_TFT040_writeData(0xE8);
 1699              		.loc 1 377 5 view .LVU359
 1700 07f8 7B48     		ldr	r0, .L25+252
 1701 07fa FFF7FEFF 		bl	ER_TFT040_writeCommand
 1702              	.LVL338:
 378:Core/Src/er_tft040.c ****     ER_TFT040_writeCommand(0xD22E);
 1703              		.loc 1 378 5 view .LVU360
 1704 07fe E820     		movs	r0, #232
 1705 0800 FFF7FEFF 		bl	ER_TFT040_writeData
 1706              	.LVL339:
 379:Core/Src/er_tft040.c ****     ER_TFT040_writeData(0x02);
 1707              		.loc 1 379 5 view .LVU361
 1708 0804 7948     		ldr	r0, .L25+256
 1709 0806 FFF7FEFF 		bl	ER_TFT040_writeCommand
 1710              	.LVL340:
 380:Core/Src/er_tft040.c ****     ER_TFT040_writeCommand(0xD22F);
 1711              		.loc 1 380 5 view .LVU362
 1712 080a 0220     		movs	r0, #2
 1713 080c FFF7FEFF 		bl	ER_TFT040_writeData
 1714              	.LVL341:
 381:Core/Src/er_tft040.c ****     ER_TFT040_writeData(0xF9);  //
 1715              		.loc 1 381 5 view .LVU363
 1716 0810 7748     		ldr	r0, .L25+260
ARM GAS  /var/folders/_5/7dt5dlyd7598cb98063hl5tr0000gn/T//cc5bI3Gx.s 			page 52


 1717 0812 FFF7FEFF 		bl	ER_TFT040_writeCommand
 1718              	.LVL342:
 382:Core/Src/er_tft040.c ****     ER_TFT040_writeCommand(0xD230);
 1719              		.loc 1 382 5 view .LVU364
 1720 0816 F920     		movs	r0, #249
 1721 0818 FFF7FEFF 		bl	ER_TFT040_writeData
 1722              	.LVL343:
 383:Core/Src/er_tft040.c ****     ER_TFT040_writeData(0x03);
 1723              		.loc 1 383 5 view .LVU365
 1724 081c 7548     		ldr	r0, .L25+264
 1725 081e FFF7FEFF 		bl	ER_TFT040_writeCommand
 1726              	.LVL344:
 384:Core/Src/er_tft040.c ****     ER_TFT040_writeCommand(0xD231);
 1727              		.loc 1 384 5 view .LVU366
 1728 0822 0320     		movs	r0, #3
 1729 0824 FFF7FEFF 		bl	ER_TFT040_writeData
 1730              	.LVL345:
 385:Core/Src/er_tft040.c ****     ER_TFT040_writeData(0x1F);
 1731              		.loc 1 385 5 view .LVU367
 1732 0828 7348     		ldr	r0, .L25+268
 1733 082a FFF7FEFF 		bl	ER_TFT040_writeCommand
 1734              	.LVL346:
 386:Core/Src/er_tft040.c ****     ER_TFT040_writeCommand(0xD232);
 1735              		.loc 1 386 5 view .LVU368
 1736 082e 1F20     		movs	r0, #31
 1737 0830 FFF7FEFF 		bl	ER_TFT040_writeData
 1738              	.LVL347:
 387:Core/Src/er_tft040.c ****     ER_TFT040_writeData(0x03);
 1739              		.loc 1 387 5 view .LVU369
 1740 0834 7148     		ldr	r0, .L25+272
 1741 0836 FFF7FEFF 		bl	ER_TFT040_writeCommand
 1742              	.LVL348:
 388:Core/Src/er_tft040.c ****     ER_TFT040_writeCommand(0xD233);
 1743              		.loc 1 388 5 view .LVU370
 1744 083a 0320     		movs	r0, #3
 1745 083c FFF7FEFF 		bl	ER_TFT040_writeData
 1746              	.LVL349:
 389:Core/Src/er_tft040.c ****     ER_TFT040_writeData(0x7F);
 1747              		.loc 1 389 5 view .LVU371
 1748 0840 6F48     		ldr	r0, .L25+276
 1749 0842 FFF7FEFF 		bl	ER_TFT040_writeCommand
 1750              	.LVL350:
 390:Core/Src/er_tft040.c **** 
 1751              		.loc 1 390 5 view .LVU372
 1752 0846 7F20     		movs	r0, #127
 1753 0848 FFF7FEFF 		bl	ER_TFT040_writeData
 1754              	.LVL351:
 392:Core/Src/er_tft040.c ****     ER_TFT040_writeData(0x00);
 1755              		.loc 1 392 5 view .LVU373
 1756 084c D320     		movs	r0, #211
 1757 084e 0002     		lsls	r0, r0, #8
 1758 0850 FFF7FEFF 		bl	ER_TFT040_writeCommand
 1759              	.LVL352:
 393:Core/Src/er_tft040.c ****     ER_TFT040_writeCommand(0xD301);
 1760              		.loc 1 393 5 view .LVU374
 1761 0854 0020     		movs	r0, #0
 1762 0856 FFF7FEFF 		bl	ER_TFT040_writeData
ARM GAS  /var/folders/_5/7dt5dlyd7598cb98063hl5tr0000gn/T//cc5bI3Gx.s 			page 53


 1763              	.LVL353:
 394:Core/Src/er_tft040.c ****     ER_TFT040_writeData(0x2D);
 1764              		.loc 1 394 5 view .LVU375
 1765 085a 6A48     		ldr	r0, .L25+280
 1766 085c FFF7FEFF 		bl	ER_TFT040_writeCommand
 1767              	.LVL354:
 395:Core/Src/er_tft040.c ****     ER_TFT040_writeCommand(0xD302);
 1768              		.loc 1 395 5 view .LVU376
 1769 0860 2D20     		movs	r0, #45
 1770 0862 FFF7FEFF 		bl	ER_TFT040_writeData
 1771              	.LVL355:
 396:Core/Src/er_tft040.c ****     ER_TFT040_writeData(0x00);
 1772              		.loc 1 396 5 view .LVU377
 1773 0866 6848     		ldr	r0, .L25+284
 1774 0868 FFF7FEFF 		bl	ER_TFT040_writeCommand
 1775              	.LVL356:
 397:Core/Src/er_tft040.c ****     ER_TFT040_writeCommand(0xD303);
 1776              		.loc 1 397 5 view .LVU378
 1777 086c 0020     		movs	r0, #0
 1778 086e FFF7FEFF 		bl	ER_TFT040_writeData
 1779              	.LVL357:
 398:Core/Src/er_tft040.c ****     ER_TFT040_writeData(0x2E);
 1780              		.loc 1 398 5 view .LVU379
 1781 0872 6648     		ldr	r0, .L25+288
 1782 0874 FFF7FEFF 		bl	ER_TFT040_writeCommand
 1783              	.LVL358:
 399:Core/Src/er_tft040.c ****     ER_TFT040_writeCommand(0xD304);
 1784              		.loc 1 399 5 view .LVU380
 1785 0878 2E20     		movs	r0, #46
 1786 087a FFF7FEFF 		bl	ER_TFT040_writeData
 1787              	.LVL359:
 400:Core/Src/er_tft040.c ****     ER_TFT040_writeData(0x00);
 1788              		.loc 1 400 5 view .LVU381
 1789 087e 6448     		ldr	r0, .L25+292
 1790 0880 FFF7FEFF 		bl	ER_TFT040_writeCommand
 1791              	.LVL360:
 401:Core/Src/er_tft040.c ****     ER_TFT040_writeCommand(0xD305);
 1792              		.loc 1 401 5 view .LVU382
 1793 0884 0020     		movs	r0, #0
 1794 0886 FFF7FEFF 		bl	ER_TFT040_writeData
 1795              	.LVL361:
 402:Core/Src/er_tft040.c ****     ER_TFT040_writeData(0x32);
 1796              		.loc 1 402 5 view .LVU383
 1797 088a 6248     		ldr	r0, .L25+296
 1798 088c FFF7FEFF 		bl	ER_TFT040_writeCommand
 1799              	.LVL362:
 403:Core/Src/er_tft040.c ****     ER_TFT040_writeCommand(0xD306);
 1800              		.loc 1 403 5 view .LVU384
 1801 0890 3220     		movs	r0, #50
 1802 0892 FFF7FEFF 		bl	ER_TFT040_writeData
 1803              	.LVL363:
 404:Core/Src/er_tft040.c ****     ER_TFT040_writeData(0x00);
 1804              		.loc 1 404 5 view .LVU385
 1805 0896 6048     		ldr	r0, .L25+300
 1806 0898 FFF7FEFF 		bl	ER_TFT040_writeCommand
 1807              	.LVL364:
 405:Core/Src/er_tft040.c ****     ER_TFT040_writeCommand(0xD307);
ARM GAS  /var/folders/_5/7dt5dlyd7598cb98063hl5tr0000gn/T//cc5bI3Gx.s 			page 54


 1808              		.loc 1 405 5 view .LVU386
 1809 089c 0020     		movs	r0, #0
 1810 089e FFF7FEFF 		bl	ER_TFT040_writeData
 1811              	.LVL365:
 406:Core/Src/er_tft040.c ****     ER_TFT040_writeData(0x44);
 1812              		.loc 1 406 5 view .LVU387
 1813 08a2 5E48     		ldr	r0, .L25+304
 1814 08a4 FFF7FEFF 		bl	ER_TFT040_writeCommand
 1815              	.LVL366:
 407:Core/Src/er_tft040.c ****     ER_TFT040_writeCommand(0xD308);
 1816              		.loc 1 407 5 view .LVU388
 1817 08a8 4420     		movs	r0, #68
 1818 08aa FFF7FEFF 		bl	ER_TFT040_writeData
 1819              	.LVL367:
 408:Core/Src/er_tft040.c ****     ER_TFT040_writeData(0x00);
 1820              		.loc 1 408 5 view .LVU389
 1821 08ae 5C48     		ldr	r0, .L25+308
 1822 08b0 FFF7FEFF 		bl	ER_TFT040_writeCommand
 1823              	.LVL368:
 409:Core/Src/er_tft040.c ****     ER_TFT040_writeCommand(0xD309);
 1824              		.loc 1 409 5 view .LVU390
 1825 08b4 0020     		movs	r0, #0
 1826 08b6 FFF7FEFF 		bl	ER_TFT040_writeData
 1827              	.LVL369:
 410:Core/Src/er_tft040.c ****     ER_TFT040_writeData(0x53);
 1828              		.loc 1 410 5 view .LVU391
 1829 08ba 5A48     		ldr	r0, .L25+312
 1830 08bc FFF7FEFF 		bl	ER_TFT040_writeCommand
 1831              	.LVL370:
 411:Core/Src/er_tft040.c ****     ER_TFT040_writeCommand(0xD30A);
 1832              		.loc 1 411 5 view .LVU392
 1833 08c0 5320     		movs	r0, #83
 1834 08c2 FFF7FEFF 		bl	ER_TFT040_writeData
 1835              	.LVL371:
 412:Core/Src/er_tft040.c ****     ER_TFT040_writeData(0x00);
 1836              		.loc 1 412 5 view .LVU393
 1837 08c6 5848     		ldr	r0, .L25+316
 1838 08c8 FFF7FEFF 		bl	ER_TFT040_writeCommand
 1839              	.LVL372:
 413:Core/Src/er_tft040.c ****     ER_TFT040_writeCommand(0xD30B);
 1840              		.loc 1 413 5 view .LVU394
 1841 08cc 0020     		movs	r0, #0
 1842 08ce FFF7FEFF 		bl	ER_TFT040_writeData
 1843              	.LVL373:
 414:Core/Src/er_tft040.c ****     ER_TFT040_writeData(0x88);
 1844              		.loc 1 414 5 view .LVU395
 1845 08d2 5648     		ldr	r0, .L25+320
 1846 08d4 FFF7FEFF 		bl	ER_TFT040_writeCommand
 1847              	.LVL374:
 415:Core/Src/er_tft040.c ****     ER_TFT040_writeCommand(0xD30C);
 1848              		.loc 1 415 5 view .LVU396
 1849 08d8 8820     		movs	r0, #136
 1850 08da FFF7FEFF 		bl	ER_TFT040_writeData
 1851              	.LVL375:
 416:Core/Src/er_tft040.c ****     ER_TFT040_writeData(0x00);
 1852              		.loc 1 416 5 view .LVU397
 1853 08de 5448     		ldr	r0, .L25+324
ARM GAS  /var/folders/_5/7dt5dlyd7598cb98063hl5tr0000gn/T//cc5bI3Gx.s 			page 55


 1854 08e0 FFF7FEFF 		bl	ER_TFT040_writeCommand
 1855              	.LVL376:
 417:Core/Src/er_tft040.c ****     ER_TFT040_writeCommand(0xD30D);
 1856              		.loc 1 417 5 view .LVU398
 1857 08e4 0020     		movs	r0, #0
 1858 08e6 FFF7FEFF 		bl	ER_TFT040_writeData
 1859              	.LVL377:
 1860 08ea A3E0     		b	.L26
 1861              	.L27:
 1862              		.align	2
 1863              	.L25:
 1864 08ec 21D10000 		.word	53537
 1865 08f0 22D10000 		.word	53538
 1866 08f4 23D10000 		.word	53539
 1867 08f8 24D10000 		.word	53540
 1868 08fc 25D10000 		.word	53541
 1869 0900 26D10000 		.word	53542
 1870 0904 27D10000 		.word	53543
 1871 0908 28D10000 		.word	53544
 1872 090c 29D10000 		.word	53545
 1873 0910 2AD10000 		.word	53546
 1874 0914 2BD10000 		.word	53547
 1875 0918 2CD10000 		.word	53548
 1876 091c 2DD10000 		.word	53549
 1877 0920 2ED10000 		.word	53550
 1878 0924 2FD10000 		.word	53551
 1879 0928 30D10000 		.word	53552
 1880 092c 31D10000 		.word	53553
 1881 0930 32D10000 		.word	53554
 1882 0934 33D10000 		.word	53555
 1883 0938 01D20000 		.word	53761
 1884 093c 02D20000 		.word	53762
 1885 0940 03D20000 		.word	53763
 1886 0944 04D20000 		.word	53764
 1887 0948 05D20000 		.word	53765
 1888 094c 06D20000 		.word	53766
 1889 0950 07D20000 		.word	53767
 1890 0954 08D20000 		.word	53768
 1891 0958 09D20000 		.word	53769
 1892 095c 0AD20000 		.word	53770
 1893 0960 0BD20000 		.word	53771
 1894 0964 0CD20000 		.word	53772
 1895 0968 0DD20000 		.word	53773
 1896 096c 0ED20000 		.word	53774
 1897 0970 0FD20000 		.word	53775
 1898 0974 10D20000 		.word	53776
 1899 0978 11D20000 		.word	53777
 1900 097c 12D20000 		.word	53778
 1901 0980 13D20000 		.word	53779
 1902 0984 14D20000 		.word	53780
 1903 0988 15D20000 		.word	53781
 1904 098c 16D20000 		.word	53782
 1905 0990 17D20000 		.word	53783
 1906 0994 18D20000 		.word	53784
 1907 0998 19D20000 		.word	53785
 1908 099c 1AD20000 		.word	53786
 1909 09a0 1BD20000 		.word	53787
ARM GAS  /var/folders/_5/7dt5dlyd7598cb98063hl5tr0000gn/T//cc5bI3Gx.s 			page 56


 1910 09a4 1CD20000 		.word	53788
 1911 09a8 1DD20000 		.word	53789
 1912 09ac 1ED20000 		.word	53790
 1913 09b0 1FD20000 		.word	53791
 1914 09b4 20D20000 		.word	53792
 1915 09b8 21D20000 		.word	53793
 1916 09bc 22D20000 		.word	53794
 1917 09c0 23D20000 		.word	53795
 1918 09c4 24D20000 		.word	53796
 1919 09c8 25D20000 		.word	53797
 1920 09cc 26D20000 		.word	53798
 1921 09d0 27D20000 		.word	53799
 1922 09d4 28D20000 		.word	53800
 1923 09d8 29D20000 		.word	53801
 1924 09dc 2AD20000 		.word	53802
 1925 09e0 2BD20000 		.word	53803
 1926 09e4 2CD20000 		.word	53804
 1927 09e8 2DD20000 		.word	53805
 1928 09ec 2ED20000 		.word	53806
 1929 09f0 2FD20000 		.word	53807
 1930 09f4 30D20000 		.word	53808
 1931 09f8 31D20000 		.word	53809
 1932 09fc 32D20000 		.word	53810
 1933 0a00 33D20000 		.word	53811
 1934 0a04 01D30000 		.word	54017
 1935 0a08 02D30000 		.word	54018
 1936 0a0c 03D30000 		.word	54019
 1937 0a10 04D30000 		.word	54020
 1938 0a14 05D30000 		.word	54021
 1939 0a18 06D30000 		.word	54022
 1940 0a1c 07D30000 		.word	54023
 1941 0a20 08D30000 		.word	54024
 1942 0a24 09D30000 		.word	54025
 1943 0a28 0AD30000 		.word	54026
 1944 0a2c 0BD30000 		.word	54027
 1945 0a30 0CD30000 		.word	54028
 1946              	.L26:
 418:Core/Src/er_tft040.c ****     ER_TFT040_writeData(0xB6);
 1947              		.loc 1 418 5 view .LVU399
 1948 0a34 FE48     		ldr	r0, .L28
 1949 0a36 FFF7FEFF 		bl	ER_TFT040_writeCommand
 1950              	.LVL378:
 419:Core/Src/er_tft040.c ****     ER_TFT040_writeCommand(0xD30E);
 1951              		.loc 1 419 5 view .LVU400
 1952 0a3a B620     		movs	r0, #182
 1953 0a3c FFF7FEFF 		bl	ER_TFT040_writeData
 1954              	.LVL379:
 420:Core/Src/er_tft040.c ****     ER_TFT040_writeData(0x00);
 1955              		.loc 1 420 5 view .LVU401
 1956 0a40 FC48     		ldr	r0, .L28+4
 1957 0a42 FFF7FEFF 		bl	ER_TFT040_writeCommand
 1958              	.LVL380:
 421:Core/Src/er_tft040.c ****     ER_TFT040_writeCommand(0xD30F);
 1959              		.loc 1 421 5 view .LVU402
 1960 0a46 0020     		movs	r0, #0
 1961 0a48 FFF7FEFF 		bl	ER_TFT040_writeData
 1962              	.LVL381:
ARM GAS  /var/folders/_5/7dt5dlyd7598cb98063hl5tr0000gn/T//cc5bI3Gx.s 			page 57


 422:Core/Src/er_tft040.c ****     ER_TFT040_writeData(0xF3);  //
 1963              		.loc 1 422 5 view .LVU403
 1964 0a4c FA48     		ldr	r0, .L28+8
 1965 0a4e FFF7FEFF 		bl	ER_TFT040_writeCommand
 1966              	.LVL382:
 423:Core/Src/er_tft040.c ****     ER_TFT040_writeCommand(0xD310);
 1967              		.loc 1 423 5 view .LVU404
 1968 0a52 F320     		movs	r0, #243
 1969 0a54 FFF7FEFF 		bl	ER_TFT040_writeData
 1970              	.LVL383:
 424:Core/Src/er_tft040.c ****     ER_TFT040_writeData(0x01);
 1971              		.loc 1 424 5 view .LVU405
 1972 0a58 F848     		ldr	r0, .L28+12
 1973 0a5a FFF7FEFF 		bl	ER_TFT040_writeCommand
 1974              	.LVL384:
 425:Core/Src/er_tft040.c ****     ER_TFT040_writeCommand(0xD311);
 1975              		.loc 1 425 5 view .LVU406
 1976 0a5e 0120     		movs	r0, #1
 1977 0a60 FFF7FEFF 		bl	ER_TFT040_writeData
 1978              	.LVL385:
 426:Core/Src/er_tft040.c ****     ER_TFT040_writeData(0x22);
 1979              		.loc 1 426 5 view .LVU407
 1980 0a64 F648     		ldr	r0, .L28+16
 1981 0a66 FFF7FEFF 		bl	ER_TFT040_writeCommand
 1982              	.LVL386:
 427:Core/Src/er_tft040.c ****     ER_TFT040_writeCommand(0xD312);
 1983              		.loc 1 427 5 view .LVU408
 1984 0a6a 2220     		movs	r0, #34
 1985 0a6c FFF7FEFF 		bl	ER_TFT040_writeData
 1986              	.LVL387:
 428:Core/Src/er_tft040.c ****     ER_TFT040_writeData(0x01);
 1987              		.loc 1 428 5 view .LVU409
 1988 0a70 F448     		ldr	r0, .L28+20
 1989 0a72 FFF7FEFF 		bl	ER_TFT040_writeCommand
 1990              	.LVL388:
 429:Core/Src/er_tft040.c ****     ER_TFT040_writeCommand(0xD313);
 1991              		.loc 1 429 5 view .LVU410
 1992 0a76 0120     		movs	r0, #1
 1993 0a78 FFF7FEFF 		bl	ER_TFT040_writeData
 1994              	.LVL389:
 430:Core/Src/er_tft040.c ****     ER_TFT040_writeData(0x64);
 1995              		.loc 1 430 5 view .LVU411
 1996 0a7c F248     		ldr	r0, .L28+24
 1997 0a7e FFF7FEFF 		bl	ER_TFT040_writeCommand
 1998              	.LVL390:
 431:Core/Src/er_tft040.c ****     ER_TFT040_writeCommand(0xD314);
 1999              		.loc 1 431 5 view .LVU412
 2000 0a82 6420     		movs	r0, #100
 2001 0a84 FFF7FEFF 		bl	ER_TFT040_writeData
 2002              	.LVL391:
 432:Core/Src/er_tft040.c ****     ER_TFT040_writeData(0x01);
 2003              		.loc 1 432 5 view .LVU413
 2004 0a88 F048     		ldr	r0, .L28+28
 2005 0a8a FFF7FEFF 		bl	ER_TFT040_writeCommand
 2006              	.LVL392:
 433:Core/Src/er_tft040.c ****     ER_TFT040_writeCommand(0xD315);
 2007              		.loc 1 433 5 view .LVU414
ARM GAS  /var/folders/_5/7dt5dlyd7598cb98063hl5tr0000gn/T//cc5bI3Gx.s 			page 58


 2008 0a8e 0120     		movs	r0, #1
 2009 0a90 FFF7FEFF 		bl	ER_TFT040_writeData
 2010              	.LVL393:
 434:Core/Src/er_tft040.c ****     ER_TFT040_writeData(0x92);
 2011              		.loc 1 434 5 view .LVU415
 2012 0a94 EE48     		ldr	r0, .L28+32
 2013 0a96 FFF7FEFF 		bl	ER_TFT040_writeCommand
 2014              	.LVL394:
 435:Core/Src/er_tft040.c ****     ER_TFT040_writeCommand(0xD316);
 2015              		.loc 1 435 5 view .LVU416
 2016 0a9a 9220     		movs	r0, #146
 2017 0a9c FFF7FEFF 		bl	ER_TFT040_writeData
 2018              	.LVL395:
 436:Core/Src/er_tft040.c ****     ER_TFT040_writeData(0x01);
 2019              		.loc 1 436 5 view .LVU417
 2020 0aa0 EC48     		ldr	r0, .L28+36
 2021 0aa2 FFF7FEFF 		bl	ER_TFT040_writeCommand
 2022              	.LVL396:
 437:Core/Src/er_tft040.c ****     ER_TFT040_writeCommand(0xD317);
 2023              		.loc 1 437 5 view .LVU418
 2024 0aa6 0120     		movs	r0, #1
 2025 0aa8 FFF7FEFF 		bl	ER_TFT040_writeData
 2026              	.LVL397:
 438:Core/Src/er_tft040.c ****     ER_TFT040_writeData(0xD4);
 2027              		.loc 1 438 5 view .LVU419
 2028 0aac EA48     		ldr	r0, .L28+40
 2029 0aae FFF7FEFF 		bl	ER_TFT040_writeCommand
 2030              	.LVL398:
 439:Core/Src/er_tft040.c ****     ER_TFT040_writeCommand(0xD318);
 2031              		.loc 1 439 5 view .LVU420
 2032 0ab2 D420     		movs	r0, #212
 2033 0ab4 FFF7FEFF 		bl	ER_TFT040_writeData
 2034              	.LVL399:
 440:Core/Src/er_tft040.c ****     ER_TFT040_writeData(0x02);
 2035              		.loc 1 440 5 view .LVU421
 2036 0ab8 E848     		ldr	r0, .L28+44
 2037 0aba FFF7FEFF 		bl	ER_TFT040_writeCommand
 2038              	.LVL400:
 441:Core/Src/er_tft040.c ****     ER_TFT040_writeCommand(0xD319);
 2039              		.loc 1 441 5 view .LVU422
 2040 0abe 0220     		movs	r0, #2
 2041 0ac0 FFF7FEFF 		bl	ER_TFT040_writeData
 2042              	.LVL401:
 442:Core/Src/er_tft040.c ****     ER_TFT040_writeData(0x07);
 2043              		.loc 1 442 5 view .LVU423
 2044 0ac4 E648     		ldr	r0, .L28+48
 2045 0ac6 FFF7FEFF 		bl	ER_TFT040_writeCommand
 2046              	.LVL402:
 443:Core/Src/er_tft040.c ****     ER_TFT040_writeCommand(0xD31A);
 2047              		.loc 1 443 5 view .LVU424
 2048 0aca 0720     		movs	r0, #7
 2049 0acc FFF7FEFF 		bl	ER_TFT040_writeData
 2050              	.LVL403:
 444:Core/Src/er_tft040.c ****     ER_TFT040_writeData(0x02);
 2051              		.loc 1 444 5 view .LVU425
 2052 0ad0 E448     		ldr	r0, .L28+52
 2053 0ad2 FFF7FEFF 		bl	ER_TFT040_writeCommand
ARM GAS  /var/folders/_5/7dt5dlyd7598cb98063hl5tr0000gn/T//cc5bI3Gx.s 			page 59


 2054              	.LVL404:
 445:Core/Src/er_tft040.c ****     ER_TFT040_writeCommand(0xD31B);
 2055              		.loc 1 445 5 view .LVU426
 2056 0ad6 0220     		movs	r0, #2
 2057 0ad8 FFF7FEFF 		bl	ER_TFT040_writeData
 2058              	.LVL405:
 446:Core/Src/er_tft040.c ****     ER_TFT040_writeData(0x08);
 2059              		.loc 1 446 5 view .LVU427
 2060 0adc E248     		ldr	r0, .L28+56
 2061 0ade FFF7FEFF 		bl	ER_TFT040_writeCommand
 2062              	.LVL406:
 447:Core/Src/er_tft040.c ****     ER_TFT040_writeCommand(0xD31C);
 2063              		.loc 1 447 5 view .LVU428
 2064 0ae2 0820     		movs	r0, #8
 2065 0ae4 FFF7FEFF 		bl	ER_TFT040_writeData
 2066              	.LVL407:
 448:Core/Src/er_tft040.c ****     ER_TFT040_writeData(0x02);
 2067              		.loc 1 448 5 view .LVU429
 2068 0ae8 E048     		ldr	r0, .L28+60
 2069 0aea FFF7FEFF 		bl	ER_TFT040_writeCommand
 2070              	.LVL408:
 449:Core/Src/er_tft040.c ****     ER_TFT040_writeCommand(0xD31D);
 2071              		.loc 1 449 5 view .LVU430
 2072 0aee 0220     		movs	r0, #2
 2073 0af0 FFF7FEFF 		bl	ER_TFT040_writeData
 2074              	.LVL409:
 450:Core/Src/er_tft040.c ****     ER_TFT040_writeData(0x34);
 2075              		.loc 1 450 5 view .LVU431
 2076 0af4 DE48     		ldr	r0, .L28+64
 2077 0af6 FFF7FEFF 		bl	ER_TFT040_writeCommand
 2078              	.LVL410:
 451:Core/Src/er_tft040.c ****     ER_TFT040_writeCommand(0xD31E);
 2079              		.loc 1 451 5 view .LVU432
 2080 0afa 3420     		movs	r0, #52
 2081 0afc FFF7FEFF 		bl	ER_TFT040_writeData
 2082              	.LVL411:
 452:Core/Src/er_tft040.c ****     ER_TFT040_writeData(0x02);
 2083              		.loc 1 452 5 view .LVU433
 2084 0b00 DC48     		ldr	r0, .L28+68
 2085 0b02 FFF7FEFF 		bl	ER_TFT040_writeCommand
 2086              	.LVL412:
 453:Core/Src/er_tft040.c ****     ER_TFT040_writeCommand(0xD31F);
 2087              		.loc 1 453 5 view .LVU434
 2088 0b06 0220     		movs	r0, #2
 2089 0b08 FFF7FEFF 		bl	ER_TFT040_writeData
 2090              	.LVL413:
 454:Core/Src/er_tft040.c ****     ER_TFT040_writeData(0x5F);  //
 2091              		.loc 1 454 5 view .LVU435
 2092 0b0c DA48     		ldr	r0, .L28+72
 2093 0b0e FFF7FEFF 		bl	ER_TFT040_writeCommand
 2094              	.LVL414:
 455:Core/Src/er_tft040.c ****     ER_TFT040_writeCommand(0xD320);
 2095              		.loc 1 455 5 view .LVU436
 2096 0b12 5F20     		movs	r0, #95
 2097 0b14 FFF7FEFF 		bl	ER_TFT040_writeData
 2098              	.LVL415:
 456:Core/Src/er_tft040.c ****     ER_TFT040_writeData(0x02);
ARM GAS  /var/folders/_5/7dt5dlyd7598cb98063hl5tr0000gn/T//cc5bI3Gx.s 			page 60


 2099              		.loc 1 456 5 view .LVU437
 2100 0b18 D848     		ldr	r0, .L28+76
 2101 0b1a FFF7FEFF 		bl	ER_TFT040_writeCommand
 2102              	.LVL416:
 457:Core/Src/er_tft040.c ****     ER_TFT040_writeCommand(0xD321);
 2103              		.loc 1 457 5 view .LVU438
 2104 0b1e 0220     		movs	r0, #2
 2105 0b20 FFF7FEFF 		bl	ER_TFT040_writeData
 2106              	.LVL417:
 458:Core/Src/er_tft040.c ****     ER_TFT040_writeData(0x78);
 2107              		.loc 1 458 5 view .LVU439
 2108 0b24 D648     		ldr	r0, .L28+80
 2109 0b26 FFF7FEFF 		bl	ER_TFT040_writeCommand
 2110              	.LVL418:
 459:Core/Src/er_tft040.c ****     ER_TFT040_writeCommand(0xD322);
 2111              		.loc 1 459 5 view .LVU440
 2112 0b2a 7820     		movs	r0, #120
 2113 0b2c FFF7FEFF 		bl	ER_TFT040_writeData
 2114              	.LVL419:
 460:Core/Src/er_tft040.c ****     ER_TFT040_writeData(0x02);
 2115              		.loc 1 460 5 view .LVU441
 2116 0b30 D448     		ldr	r0, .L28+84
 2117 0b32 FFF7FEFF 		bl	ER_TFT040_writeCommand
 2118              	.LVL420:
 461:Core/Src/er_tft040.c ****     ER_TFT040_writeCommand(0xD323);
 2119              		.loc 1 461 5 view .LVU442
 2120 0b36 0220     		movs	r0, #2
 2121 0b38 FFF7FEFF 		bl	ER_TFT040_writeData
 2122              	.LVL421:
 462:Core/Src/er_tft040.c ****     ER_TFT040_writeData(0x94);
 2123              		.loc 1 462 5 view .LVU443
 2124 0b3c D248     		ldr	r0, .L28+88
 2125 0b3e FFF7FEFF 		bl	ER_TFT040_writeCommand
 2126              	.LVL422:
 463:Core/Src/er_tft040.c ****     ER_TFT040_writeCommand(0xD324);
 2127              		.loc 1 463 5 view .LVU444
 2128 0b42 9420     		movs	r0, #148
 2129 0b44 FFF7FEFF 		bl	ER_TFT040_writeData
 2130              	.LVL423:
 464:Core/Src/er_tft040.c ****     ER_TFT040_writeData(0x02);
 2131              		.loc 1 464 5 view .LVU445
 2132 0b48 D048     		ldr	r0, .L28+92
 2133 0b4a FFF7FEFF 		bl	ER_TFT040_writeCommand
 2134              	.LVL424:
 465:Core/Src/er_tft040.c ****     ER_TFT040_writeCommand(0xD325);
 2135              		.loc 1 465 5 view .LVU446
 2136 0b4e 0220     		movs	r0, #2
 2137 0b50 FFF7FEFF 		bl	ER_TFT040_writeData
 2138              	.LVL425:
 466:Core/Src/er_tft040.c ****     ER_TFT040_writeData(0xA6);
 2139              		.loc 1 466 5 view .LVU447
 2140 0b54 CE48     		ldr	r0, .L28+96
 2141 0b56 FFF7FEFF 		bl	ER_TFT040_writeCommand
 2142              	.LVL426:
 467:Core/Src/er_tft040.c ****     ER_TFT040_writeCommand(0xD326);
 2143              		.loc 1 467 5 view .LVU448
 2144 0b5a A620     		movs	r0, #166
ARM GAS  /var/folders/_5/7dt5dlyd7598cb98063hl5tr0000gn/T//cc5bI3Gx.s 			page 61


 2145 0b5c FFF7FEFF 		bl	ER_TFT040_writeData
 2146              	.LVL427:
 468:Core/Src/er_tft040.c ****     ER_TFT040_writeData(0x02);
 2147              		.loc 1 468 5 view .LVU449
 2148 0b60 CC48     		ldr	r0, .L28+100
 2149 0b62 FFF7FEFF 		bl	ER_TFT040_writeCommand
 2150              	.LVL428:
 469:Core/Src/er_tft040.c ****     ER_TFT040_writeCommand(0xD327);
 2151              		.loc 1 469 5 view .LVU450
 2152 0b66 0220     		movs	r0, #2
 2153 0b68 FFF7FEFF 		bl	ER_TFT040_writeData
 2154              	.LVL429:
 470:Core/Src/er_tft040.c ****     ER_TFT040_writeData(0xBB);
 2155              		.loc 1 470 5 view .LVU451
 2156 0b6c CA48     		ldr	r0, .L28+104
 2157 0b6e FFF7FEFF 		bl	ER_TFT040_writeCommand
 2158              	.LVL430:
 471:Core/Src/er_tft040.c ****     ER_TFT040_writeCommand(0xD328);
 2159              		.loc 1 471 5 view .LVU452
 2160 0b72 BB20     		movs	r0, #187
 2161 0b74 FFF7FEFF 		bl	ER_TFT040_writeData
 2162              	.LVL431:
 472:Core/Src/er_tft040.c ****     ER_TFT040_writeData(0x02);
 2163              		.loc 1 472 5 view .LVU453
 2164 0b78 C848     		ldr	r0, .L28+108
 2165 0b7a FFF7FEFF 		bl	ER_TFT040_writeCommand
 2166              	.LVL432:
 473:Core/Src/er_tft040.c ****     ER_TFT040_writeCommand(0xD329);
 2167              		.loc 1 473 5 view .LVU454
 2168 0b7e 0220     		movs	r0, #2
 2169 0b80 FFF7FEFF 		bl	ER_TFT040_writeData
 2170              	.LVL433:
 474:Core/Src/er_tft040.c ****     ER_TFT040_writeData(0xCA);
 2171              		.loc 1 474 5 view .LVU455
 2172 0b84 C648     		ldr	r0, .L28+112
 2173 0b86 FFF7FEFF 		bl	ER_TFT040_writeCommand
 2174              	.LVL434:
 475:Core/Src/er_tft040.c ****     ER_TFT040_writeCommand(0xD32A);
 2175              		.loc 1 475 5 view .LVU456
 2176 0b8a CA20     		movs	r0, #202
 2177 0b8c FFF7FEFF 		bl	ER_TFT040_writeData
 2178              	.LVL435:
 476:Core/Src/er_tft040.c ****     ER_TFT040_writeData(0x02);
 2179              		.loc 1 476 5 view .LVU457
 2180 0b90 C448     		ldr	r0, .L28+116
 2181 0b92 FFF7FEFF 		bl	ER_TFT040_writeCommand
 2182              	.LVL436:
 477:Core/Src/er_tft040.c ****     ER_TFT040_writeCommand(0xD32B);
 2183              		.loc 1 477 5 view .LVU458
 2184 0b96 0220     		movs	r0, #2
 2185 0b98 FFF7FEFF 		bl	ER_TFT040_writeData
 2186              	.LVL437:
 478:Core/Src/er_tft040.c ****     ER_TFT040_writeData(0xDB);
 2187              		.loc 1 478 5 view .LVU459
 2188 0b9c C248     		ldr	r0, .L28+120
 2189 0b9e FFF7FEFF 		bl	ER_TFT040_writeCommand
 2190              	.LVL438:
ARM GAS  /var/folders/_5/7dt5dlyd7598cb98063hl5tr0000gn/T//cc5bI3Gx.s 			page 62


 479:Core/Src/er_tft040.c ****     ER_TFT040_writeCommand(0xD32C);
 2191              		.loc 1 479 5 view .LVU460
 2192 0ba2 DB20     		movs	r0, #219
 2193 0ba4 FFF7FEFF 		bl	ER_TFT040_writeData
 2194              	.LVL439:
 480:Core/Src/er_tft040.c ****     ER_TFT040_writeData(0x02);
 2195              		.loc 1 480 5 view .LVU461
 2196 0ba8 C048     		ldr	r0, .L28+124
 2197 0baa FFF7FEFF 		bl	ER_TFT040_writeCommand
 2198              	.LVL440:
 481:Core/Src/er_tft040.c ****     ER_TFT040_writeCommand(0xD32D);
 2199              		.loc 1 481 5 view .LVU462
 2200 0bae 0220     		movs	r0, #2
 2201 0bb0 FFF7FEFF 		bl	ER_TFT040_writeData
 2202              	.LVL441:
 482:Core/Src/er_tft040.c ****     ER_TFT040_writeData(0xE8);
 2203              		.loc 1 482 5 view .LVU463
 2204 0bb4 BE48     		ldr	r0, .L28+128
 2205 0bb6 FFF7FEFF 		bl	ER_TFT040_writeCommand
 2206              	.LVL442:
 483:Core/Src/er_tft040.c ****     ER_TFT040_writeCommand(0xD32E);
 2207              		.loc 1 483 5 view .LVU464
 2208 0bba E820     		movs	r0, #232
 2209 0bbc FFF7FEFF 		bl	ER_TFT040_writeData
 2210              	.LVL443:
 484:Core/Src/er_tft040.c ****     ER_TFT040_writeData(0x02);
 2211              		.loc 1 484 5 view .LVU465
 2212 0bc0 BC48     		ldr	r0, .L28+132
 2213 0bc2 FFF7FEFF 		bl	ER_TFT040_writeCommand
 2214              	.LVL444:
 485:Core/Src/er_tft040.c ****     ER_TFT040_writeCommand(0xD32F);
 2215              		.loc 1 485 5 view .LVU466
 2216 0bc6 0220     		movs	r0, #2
 2217 0bc8 FFF7FEFF 		bl	ER_TFT040_writeData
 2218              	.LVL445:
 486:Core/Src/er_tft040.c ****     ER_TFT040_writeData(0xF9);  //
 2219              		.loc 1 486 5 view .LVU467
 2220 0bcc BA48     		ldr	r0, .L28+136
 2221 0bce FFF7FEFF 		bl	ER_TFT040_writeCommand
 2222              	.LVL446:
 487:Core/Src/er_tft040.c ****     ER_TFT040_writeCommand(0xD330);
 2223              		.loc 1 487 5 view .LVU468
 2224 0bd2 F920     		movs	r0, #249
 2225 0bd4 FFF7FEFF 		bl	ER_TFT040_writeData
 2226              	.LVL447:
 488:Core/Src/er_tft040.c ****     ER_TFT040_writeData(0x03);
 2227              		.loc 1 488 5 view .LVU469
 2228 0bd8 B848     		ldr	r0, .L28+140
 2229 0bda FFF7FEFF 		bl	ER_TFT040_writeCommand
 2230              	.LVL448:
 489:Core/Src/er_tft040.c ****     ER_TFT040_writeCommand(0xD331);
 2231              		.loc 1 489 5 view .LVU470
 2232 0bde 0320     		movs	r0, #3
 2233 0be0 FFF7FEFF 		bl	ER_TFT040_writeData
 2234              	.LVL449:
 490:Core/Src/er_tft040.c ****     ER_TFT040_writeData(0x1F);
 2235              		.loc 1 490 5 view .LVU471
ARM GAS  /var/folders/_5/7dt5dlyd7598cb98063hl5tr0000gn/T//cc5bI3Gx.s 			page 63


 2236 0be4 B648     		ldr	r0, .L28+144
 2237 0be6 FFF7FEFF 		bl	ER_TFT040_writeCommand
 2238              	.LVL450:
 491:Core/Src/er_tft040.c ****     ER_TFT040_writeCommand(0xD332);
 2239              		.loc 1 491 5 view .LVU472
 2240 0bea 1F20     		movs	r0, #31
 2241 0bec FFF7FEFF 		bl	ER_TFT040_writeData
 2242              	.LVL451:
 492:Core/Src/er_tft040.c ****     ER_TFT040_writeData(0x03);
 2243              		.loc 1 492 5 view .LVU473
 2244 0bf0 B448     		ldr	r0, .L28+148
 2245 0bf2 FFF7FEFF 		bl	ER_TFT040_writeCommand
 2246              	.LVL452:
 493:Core/Src/er_tft040.c ****     ER_TFT040_writeCommand(0xD333);
 2247              		.loc 1 493 5 view .LVU474
 2248 0bf6 0320     		movs	r0, #3
 2249 0bf8 FFF7FEFF 		bl	ER_TFT040_writeData
 2250              	.LVL453:
 494:Core/Src/er_tft040.c ****     ER_TFT040_writeData(0x7F);
 2251              		.loc 1 494 5 view .LVU475
 2252 0bfc B248     		ldr	r0, .L28+152
 2253 0bfe FFF7FEFF 		bl	ER_TFT040_writeCommand
 2254              	.LVL454:
 495:Core/Src/er_tft040.c **** 
 2255              		.loc 1 495 5 view .LVU476
 2256 0c02 7F20     		movs	r0, #127
 2257 0c04 FFF7FEFF 		bl	ER_TFT040_writeData
 2258              	.LVL455:
 497:Core/Src/er_tft040.c ****     ER_TFT040_writeData(0x00);
 2259              		.loc 1 497 5 view .LVU477
 2260 0c08 D420     		movs	r0, #212
 2261 0c0a 0002     		lsls	r0, r0, #8
 2262 0c0c FFF7FEFF 		bl	ER_TFT040_writeCommand
 2263              	.LVL456:
 498:Core/Src/er_tft040.c ****     ER_TFT040_writeCommand(0xD401);
 2264              		.loc 1 498 5 view .LVU478
 2265 0c10 0020     		movs	r0, #0
 2266 0c12 FFF7FEFF 		bl	ER_TFT040_writeData
 2267              	.LVL457:
 499:Core/Src/er_tft040.c ****     ER_TFT040_writeData(0x2D);
 2268              		.loc 1 499 5 view .LVU479
 2269 0c16 AD48     		ldr	r0, .L28+156
 2270 0c18 FFF7FEFF 		bl	ER_TFT040_writeCommand
 2271              	.LVL458:
 500:Core/Src/er_tft040.c ****     ER_TFT040_writeCommand(0xD402);
 2272              		.loc 1 500 5 view .LVU480
 2273 0c1c 2D20     		movs	r0, #45
 2274 0c1e FFF7FEFF 		bl	ER_TFT040_writeData
 2275              	.LVL459:
 501:Core/Src/er_tft040.c ****     ER_TFT040_writeData(0x00);
 2276              		.loc 1 501 5 view .LVU481
 2277 0c22 AB48     		ldr	r0, .L28+160
 2278 0c24 FFF7FEFF 		bl	ER_TFT040_writeCommand
 2279              	.LVL460:
 502:Core/Src/er_tft040.c ****     ER_TFT040_writeCommand(0xD403);
 2280              		.loc 1 502 5 view .LVU482
 2281 0c28 0020     		movs	r0, #0
ARM GAS  /var/folders/_5/7dt5dlyd7598cb98063hl5tr0000gn/T//cc5bI3Gx.s 			page 64


 2282 0c2a FFF7FEFF 		bl	ER_TFT040_writeData
 2283              	.LVL461:
 503:Core/Src/er_tft040.c ****     ER_TFT040_writeData(0x2E);
 2284              		.loc 1 503 5 view .LVU483
 2285 0c2e A948     		ldr	r0, .L28+164
 2286 0c30 FFF7FEFF 		bl	ER_TFT040_writeCommand
 2287              	.LVL462:
 504:Core/Src/er_tft040.c ****     ER_TFT040_writeCommand(0xD404);
 2288              		.loc 1 504 5 view .LVU484
 2289 0c34 2E20     		movs	r0, #46
 2290 0c36 FFF7FEFF 		bl	ER_TFT040_writeData
 2291              	.LVL463:
 505:Core/Src/er_tft040.c ****     ER_TFT040_writeData(0x00);
 2292              		.loc 1 505 5 view .LVU485
 2293 0c3a A748     		ldr	r0, .L28+168
 2294 0c3c FFF7FEFF 		bl	ER_TFT040_writeCommand
 2295              	.LVL464:
 506:Core/Src/er_tft040.c ****     ER_TFT040_writeCommand(0xD405);
 2296              		.loc 1 506 5 view .LVU486
 2297 0c40 0020     		movs	r0, #0
 2298 0c42 FFF7FEFF 		bl	ER_TFT040_writeData
 2299              	.LVL465:
 507:Core/Src/er_tft040.c ****     ER_TFT040_writeData(0x32);
 2300              		.loc 1 507 5 view .LVU487
 2301 0c46 A548     		ldr	r0, .L28+172
 2302 0c48 FFF7FEFF 		bl	ER_TFT040_writeCommand
 2303              	.LVL466:
 508:Core/Src/er_tft040.c ****     ER_TFT040_writeCommand(0xD406);
 2304              		.loc 1 508 5 view .LVU488
 2305 0c4c 3220     		movs	r0, #50
 2306 0c4e FFF7FEFF 		bl	ER_TFT040_writeData
 2307              	.LVL467:
 509:Core/Src/er_tft040.c ****     ER_TFT040_writeData(0x00);
 2308              		.loc 1 509 5 view .LVU489
 2309 0c52 A348     		ldr	r0, .L28+176
 2310 0c54 FFF7FEFF 		bl	ER_TFT040_writeCommand
 2311              	.LVL468:
 510:Core/Src/er_tft040.c ****     ER_TFT040_writeCommand(0xD407);
 2312              		.loc 1 510 5 view .LVU490
 2313 0c58 0020     		movs	r0, #0
 2314 0c5a FFF7FEFF 		bl	ER_TFT040_writeData
 2315              	.LVL469:
 511:Core/Src/er_tft040.c ****     ER_TFT040_writeData(0x44);
 2316              		.loc 1 511 5 view .LVU491
 2317 0c5e A148     		ldr	r0, .L28+180
 2318 0c60 FFF7FEFF 		bl	ER_TFT040_writeCommand
 2319              	.LVL470:
 512:Core/Src/er_tft040.c ****     ER_TFT040_writeCommand(0xD408);
 2320              		.loc 1 512 5 view .LVU492
 2321 0c64 4420     		movs	r0, #68
 2322 0c66 FFF7FEFF 		bl	ER_TFT040_writeData
 2323              	.LVL471:
 513:Core/Src/er_tft040.c ****     ER_TFT040_writeData(0x00);
 2324              		.loc 1 513 5 view .LVU493
 2325 0c6a 9F48     		ldr	r0, .L28+184
 2326 0c6c FFF7FEFF 		bl	ER_TFT040_writeCommand
 2327              	.LVL472:
ARM GAS  /var/folders/_5/7dt5dlyd7598cb98063hl5tr0000gn/T//cc5bI3Gx.s 			page 65


 514:Core/Src/er_tft040.c ****     ER_TFT040_writeCommand(0xD409);
 2328              		.loc 1 514 5 view .LVU494
 2329 0c70 0020     		movs	r0, #0
 2330 0c72 FFF7FEFF 		bl	ER_TFT040_writeData
 2331              	.LVL473:
 515:Core/Src/er_tft040.c ****     ER_TFT040_writeData(0x53);
 2332              		.loc 1 515 5 view .LVU495
 2333 0c76 9D48     		ldr	r0, .L28+188
 2334 0c78 FFF7FEFF 		bl	ER_TFT040_writeCommand
 2335              	.LVL474:
 516:Core/Src/er_tft040.c ****     ER_TFT040_writeCommand(0xD40A);
 2336              		.loc 1 516 5 view .LVU496
 2337 0c7c 5320     		movs	r0, #83
 2338 0c7e FFF7FEFF 		bl	ER_TFT040_writeData
 2339              	.LVL475:
 517:Core/Src/er_tft040.c ****     ER_TFT040_writeData(0x00);
 2340              		.loc 1 517 5 view .LVU497
 2341 0c82 9B48     		ldr	r0, .L28+192
 2342 0c84 FFF7FEFF 		bl	ER_TFT040_writeCommand
 2343              	.LVL476:
 518:Core/Src/er_tft040.c ****     ER_TFT040_writeCommand(0xD40B);
 2344              		.loc 1 518 5 view .LVU498
 2345 0c88 0020     		movs	r0, #0
 2346 0c8a FFF7FEFF 		bl	ER_TFT040_writeData
 2347              	.LVL477:
 519:Core/Src/er_tft040.c ****     ER_TFT040_writeData(0x88);
 2348              		.loc 1 519 5 view .LVU499
 2349 0c8e 9948     		ldr	r0, .L28+196
 2350 0c90 FFF7FEFF 		bl	ER_TFT040_writeCommand
 2351              	.LVL478:
 520:Core/Src/er_tft040.c ****     ER_TFT040_writeCommand(0xD40C);
 2352              		.loc 1 520 5 view .LVU500
 2353 0c94 8820     		movs	r0, #136
 2354 0c96 FFF7FEFF 		bl	ER_TFT040_writeData
 2355              	.LVL479:
 521:Core/Src/er_tft040.c ****     ER_TFT040_writeData(0x00);
 2356              		.loc 1 521 5 view .LVU501
 2357 0c9a 9748     		ldr	r0, .L28+200
 2358 0c9c FFF7FEFF 		bl	ER_TFT040_writeCommand
 2359              	.LVL480:
 522:Core/Src/er_tft040.c ****     ER_TFT040_writeCommand(0xD40D);
 2360              		.loc 1 522 5 view .LVU502
 2361 0ca0 0020     		movs	r0, #0
 2362 0ca2 FFF7FEFF 		bl	ER_TFT040_writeData
 2363              	.LVL481:
 523:Core/Src/er_tft040.c ****     ER_TFT040_writeData(0xB6);
 2364              		.loc 1 523 5 view .LVU503
 2365 0ca6 9548     		ldr	r0, .L28+204
 2366 0ca8 FFF7FEFF 		bl	ER_TFT040_writeCommand
 2367              	.LVL482:
 524:Core/Src/er_tft040.c ****     ER_TFT040_writeCommand(0xD40E);
 2368              		.loc 1 524 5 view .LVU504
 2369 0cac B620     		movs	r0, #182
 2370 0cae FFF7FEFF 		bl	ER_TFT040_writeData
 2371              	.LVL483:
 525:Core/Src/er_tft040.c ****     ER_TFT040_writeData(0x00);
 2372              		.loc 1 525 5 view .LVU505
ARM GAS  /var/folders/_5/7dt5dlyd7598cb98063hl5tr0000gn/T//cc5bI3Gx.s 			page 66


 2373 0cb2 9348     		ldr	r0, .L28+208
 2374 0cb4 FFF7FEFF 		bl	ER_TFT040_writeCommand
 2375              	.LVL484:
 526:Core/Src/er_tft040.c ****     ER_TFT040_writeCommand(0xD40F);
 2376              		.loc 1 526 5 view .LVU506
 2377 0cb8 0020     		movs	r0, #0
 2378 0cba FFF7FEFF 		bl	ER_TFT040_writeData
 2379              	.LVL485:
 527:Core/Src/er_tft040.c ****     ER_TFT040_writeData(0xF3);  //
 2380              		.loc 1 527 5 view .LVU507
 2381 0cbe 9148     		ldr	r0, .L28+212
 2382 0cc0 FFF7FEFF 		bl	ER_TFT040_writeCommand
 2383              	.LVL486:
 528:Core/Src/er_tft040.c ****     ER_TFT040_writeCommand(0xD410);
 2384              		.loc 1 528 5 view .LVU508
 2385 0cc4 F320     		movs	r0, #243
 2386 0cc6 FFF7FEFF 		bl	ER_TFT040_writeData
 2387              	.LVL487:
 529:Core/Src/er_tft040.c ****     ER_TFT040_writeData(0x01);
 2388              		.loc 1 529 5 view .LVU509
 2389 0cca 8F48     		ldr	r0, .L28+216
 2390 0ccc FFF7FEFF 		bl	ER_TFT040_writeCommand
 2391              	.LVL488:
 530:Core/Src/er_tft040.c ****     ER_TFT040_writeCommand(0xD411);
 2392              		.loc 1 530 5 view .LVU510
 2393 0cd0 0120     		movs	r0, #1
 2394 0cd2 FFF7FEFF 		bl	ER_TFT040_writeData
 2395              	.LVL489:
 531:Core/Src/er_tft040.c ****     ER_TFT040_writeData(0x22);
 2396              		.loc 1 531 5 view .LVU511
 2397 0cd6 8D48     		ldr	r0, .L28+220
 2398 0cd8 FFF7FEFF 		bl	ER_TFT040_writeCommand
 2399              	.LVL490:
 532:Core/Src/er_tft040.c ****     ER_TFT040_writeCommand(0xD412);
 2400              		.loc 1 532 5 view .LVU512
 2401 0cdc 2220     		movs	r0, #34
 2402 0cde FFF7FEFF 		bl	ER_TFT040_writeData
 2403              	.LVL491:
 533:Core/Src/er_tft040.c ****     ER_TFT040_writeData(0x01);
 2404              		.loc 1 533 5 view .LVU513
 2405 0ce2 8B48     		ldr	r0, .L28+224
 2406 0ce4 FFF7FEFF 		bl	ER_TFT040_writeCommand
 2407              	.LVL492:
 534:Core/Src/er_tft040.c ****     ER_TFT040_writeCommand(0xD413);
 2408              		.loc 1 534 5 view .LVU514
 2409 0ce8 0120     		movs	r0, #1
 2410 0cea FFF7FEFF 		bl	ER_TFT040_writeData
 2411              	.LVL493:
 535:Core/Src/er_tft040.c ****     ER_TFT040_writeData(0x64);
 2412              		.loc 1 535 5 view .LVU515
 2413 0cee 8948     		ldr	r0, .L28+228
 2414 0cf0 FFF7FEFF 		bl	ER_TFT040_writeCommand
 2415              	.LVL494:
 536:Core/Src/er_tft040.c ****     ER_TFT040_writeCommand(0xD414);
 2416              		.loc 1 536 5 view .LVU516
 2417 0cf4 6420     		movs	r0, #100
 2418 0cf6 FFF7FEFF 		bl	ER_TFT040_writeData
ARM GAS  /var/folders/_5/7dt5dlyd7598cb98063hl5tr0000gn/T//cc5bI3Gx.s 			page 67


 2419              	.LVL495:
 537:Core/Src/er_tft040.c ****     ER_TFT040_writeData(0x01);
 2420              		.loc 1 537 5 view .LVU517
 2421 0cfa 8748     		ldr	r0, .L28+232
 2422 0cfc FFF7FEFF 		bl	ER_TFT040_writeCommand
 2423              	.LVL496:
 538:Core/Src/er_tft040.c ****     ER_TFT040_writeCommand(0xD415);
 2424              		.loc 1 538 5 view .LVU518
 2425 0d00 0120     		movs	r0, #1
 2426 0d02 FFF7FEFF 		bl	ER_TFT040_writeData
 2427              	.LVL497:
 539:Core/Src/er_tft040.c ****     ER_TFT040_writeData(0x92);
 2428              		.loc 1 539 5 view .LVU519
 2429 0d06 8548     		ldr	r0, .L28+236
 2430 0d08 FFF7FEFF 		bl	ER_TFT040_writeCommand
 2431              	.LVL498:
 540:Core/Src/er_tft040.c ****     ER_TFT040_writeCommand(0xD416);
 2432              		.loc 1 540 5 view .LVU520
 2433 0d0c 9220     		movs	r0, #146
 2434 0d0e FFF7FEFF 		bl	ER_TFT040_writeData
 2435              	.LVL499:
 541:Core/Src/er_tft040.c ****     ER_TFT040_writeData(0x01);
 2436              		.loc 1 541 5 view .LVU521
 2437 0d12 8348     		ldr	r0, .L28+240
 2438 0d14 FFF7FEFF 		bl	ER_TFT040_writeCommand
 2439              	.LVL500:
 542:Core/Src/er_tft040.c ****     ER_TFT040_writeCommand(0xD417);
 2440              		.loc 1 542 5 view .LVU522
 2441 0d18 0120     		movs	r0, #1
 2442 0d1a FFF7FEFF 		bl	ER_TFT040_writeData
 2443              	.LVL501:
 543:Core/Src/er_tft040.c ****     ER_TFT040_writeData(0xD4);
 2444              		.loc 1 543 5 view .LVU523
 2445 0d1e 8148     		ldr	r0, .L28+244
 2446 0d20 FFF7FEFF 		bl	ER_TFT040_writeCommand
 2447              	.LVL502:
 544:Core/Src/er_tft040.c ****     ER_TFT040_writeCommand(0xD418);
 2448              		.loc 1 544 5 view .LVU524
 2449 0d24 D420     		movs	r0, #212
 2450 0d26 FFF7FEFF 		bl	ER_TFT040_writeData
 2451              	.LVL503:
 545:Core/Src/er_tft040.c ****     ER_TFT040_writeData(0x02);
 2452              		.loc 1 545 5 view .LVU525
 2453 0d2a 7F48     		ldr	r0, .L28+248
 2454 0d2c FFF7FEFF 		bl	ER_TFT040_writeCommand
 2455              	.LVL504:
 546:Core/Src/er_tft040.c ****     ER_TFT040_writeCommand(0xD419);
 2456              		.loc 1 546 5 view .LVU526
 2457 0d30 0220     		movs	r0, #2
 2458 0d32 FFF7FEFF 		bl	ER_TFT040_writeData
 2459              	.LVL505:
 547:Core/Src/er_tft040.c ****     ER_TFT040_writeData(0x07);
 2460              		.loc 1 547 5 view .LVU527
 2461 0d36 7D48     		ldr	r0, .L28+252
 2462 0d38 FFF7FEFF 		bl	ER_TFT040_writeCommand
 2463              	.LVL506:
 548:Core/Src/er_tft040.c ****     ER_TFT040_writeCommand(0xD41A);
ARM GAS  /var/folders/_5/7dt5dlyd7598cb98063hl5tr0000gn/T//cc5bI3Gx.s 			page 68


 2464              		.loc 1 548 5 view .LVU528
 2465 0d3c 0720     		movs	r0, #7
 2466 0d3e FFF7FEFF 		bl	ER_TFT040_writeData
 2467              	.LVL507:
 549:Core/Src/er_tft040.c ****     ER_TFT040_writeData(0x02);
 2468              		.loc 1 549 5 view .LVU529
 2469 0d42 7B48     		ldr	r0, .L28+256
 2470 0d44 FFF7FEFF 		bl	ER_TFT040_writeCommand
 2471              	.LVL508:
 550:Core/Src/er_tft040.c ****     ER_TFT040_writeCommand(0xD41B);
 2472              		.loc 1 550 5 view .LVU530
 2473 0d48 0220     		movs	r0, #2
 2474 0d4a FFF7FEFF 		bl	ER_TFT040_writeData
 2475              	.LVL509:
 551:Core/Src/er_tft040.c ****     ER_TFT040_writeData(0x08);
 2476              		.loc 1 551 5 view .LVU531
 2477 0d4e 7948     		ldr	r0, .L28+260
 2478 0d50 FFF7FEFF 		bl	ER_TFT040_writeCommand
 2479              	.LVL510:
 552:Core/Src/er_tft040.c ****     ER_TFT040_writeCommand(0xD41C);
 2480              		.loc 1 552 5 view .LVU532
 2481 0d54 0820     		movs	r0, #8
 2482 0d56 FFF7FEFF 		bl	ER_TFT040_writeData
 2483              	.LVL511:
 553:Core/Src/er_tft040.c ****     ER_TFT040_writeData(0x02);
 2484              		.loc 1 553 5 view .LVU533
 2485 0d5a 7748     		ldr	r0, .L28+264
 2486 0d5c FFF7FEFF 		bl	ER_TFT040_writeCommand
 2487              	.LVL512:
 554:Core/Src/er_tft040.c ****     ER_TFT040_writeCommand(0xD41D);
 2488              		.loc 1 554 5 view .LVU534
 2489 0d60 0220     		movs	r0, #2
 2490 0d62 FFF7FEFF 		bl	ER_TFT040_writeData
 2491              	.LVL513:
 555:Core/Src/er_tft040.c ****     ER_TFT040_writeData(0x34);
 2492              		.loc 1 555 5 view .LVU535
 2493 0d66 7548     		ldr	r0, .L28+268
 2494 0d68 FFF7FEFF 		bl	ER_TFT040_writeCommand
 2495              	.LVL514:
 556:Core/Src/er_tft040.c ****     ER_TFT040_writeCommand(0xD41E);
 2496              		.loc 1 556 5 view .LVU536
 2497 0d6c 3420     		movs	r0, #52
 2498 0d6e FFF7FEFF 		bl	ER_TFT040_writeData
 2499              	.LVL515:
 557:Core/Src/er_tft040.c ****     ER_TFT040_writeData(0x02);
 2500              		.loc 1 557 5 view .LVU537
 2501 0d72 7348     		ldr	r0, .L28+272
 2502 0d74 FFF7FEFF 		bl	ER_TFT040_writeCommand
 2503              	.LVL516:
 558:Core/Src/er_tft040.c ****     ER_TFT040_writeCommand(0xD41F);
 2504              		.loc 1 558 5 view .LVU538
 2505 0d78 0220     		movs	r0, #2
 2506 0d7a FFF7FEFF 		bl	ER_TFT040_writeData
 2507              	.LVL517:
 559:Core/Src/er_tft040.c ****     ER_TFT040_writeData(0x5F);  //
 2508              		.loc 1 559 5 view .LVU539
 2509 0d7e 7148     		ldr	r0, .L28+276
ARM GAS  /var/folders/_5/7dt5dlyd7598cb98063hl5tr0000gn/T//cc5bI3Gx.s 			page 69


 2510 0d80 FFF7FEFF 		bl	ER_TFT040_writeCommand
 2511              	.LVL518:
 560:Core/Src/er_tft040.c ****     ER_TFT040_writeCommand(0xD420);
 2512              		.loc 1 560 5 view .LVU540
 2513 0d84 5F20     		movs	r0, #95
 2514 0d86 FFF7FEFF 		bl	ER_TFT040_writeData
 2515              	.LVL519:
 561:Core/Src/er_tft040.c ****     ER_TFT040_writeData(0x02);
 2516              		.loc 1 561 5 view .LVU541
 2517 0d8a 6F48     		ldr	r0, .L28+280
 2518 0d8c FFF7FEFF 		bl	ER_TFT040_writeCommand
 2519              	.LVL520:
 562:Core/Src/er_tft040.c ****     ER_TFT040_writeCommand(0xD421);
 2520              		.loc 1 562 5 view .LVU542
 2521 0d90 0220     		movs	r0, #2
 2522 0d92 FFF7FEFF 		bl	ER_TFT040_writeData
 2523              	.LVL521:
 563:Core/Src/er_tft040.c ****     ER_TFT040_writeData(0x78);
 2524              		.loc 1 563 5 view .LVU543
 2525 0d96 6D48     		ldr	r0, .L28+284
 2526 0d98 FFF7FEFF 		bl	ER_TFT040_writeCommand
 2527              	.LVL522:
 564:Core/Src/er_tft040.c ****     ER_TFT040_writeCommand(0xD422);
 2528              		.loc 1 564 5 view .LVU544
 2529 0d9c 7820     		movs	r0, #120
 2530 0d9e FFF7FEFF 		bl	ER_TFT040_writeData
 2531              	.LVL523:
 565:Core/Src/er_tft040.c ****     ER_TFT040_writeData(0x02);
 2532              		.loc 1 565 5 view .LVU545
 2533 0da2 6B48     		ldr	r0, .L28+288
 2534 0da4 FFF7FEFF 		bl	ER_TFT040_writeCommand
 2535              	.LVL524:
 566:Core/Src/er_tft040.c ****     ER_TFT040_writeCommand(0xD423);
 2536              		.loc 1 566 5 view .LVU546
 2537 0da8 0220     		movs	r0, #2
 2538 0daa FFF7FEFF 		bl	ER_TFT040_writeData
 2539              	.LVL525:
 567:Core/Src/er_tft040.c ****     ER_TFT040_writeData(0x94);
 2540              		.loc 1 567 5 view .LVU547
 2541 0dae 6948     		ldr	r0, .L28+292
 2542 0db0 FFF7FEFF 		bl	ER_TFT040_writeCommand
 2543              	.LVL526:
 568:Core/Src/er_tft040.c ****     ER_TFT040_writeCommand(0xD424);
 2544              		.loc 1 568 5 view .LVU548
 2545 0db4 9420     		movs	r0, #148
 2546 0db6 FFF7FEFF 		bl	ER_TFT040_writeData
 2547              	.LVL527:
 569:Core/Src/er_tft040.c ****     ER_TFT040_writeData(0x02);
 2548              		.loc 1 569 5 view .LVU549
 2549 0dba 6748     		ldr	r0, .L28+296
 2550 0dbc FFF7FEFF 		bl	ER_TFT040_writeCommand
 2551              	.LVL528:
 570:Core/Src/er_tft040.c ****     ER_TFT040_writeCommand(0xD425);
 2552              		.loc 1 570 5 view .LVU550
 2553 0dc0 0220     		movs	r0, #2
 2554 0dc2 FFF7FEFF 		bl	ER_TFT040_writeData
 2555              	.LVL529:
ARM GAS  /var/folders/_5/7dt5dlyd7598cb98063hl5tr0000gn/T//cc5bI3Gx.s 			page 70


 571:Core/Src/er_tft040.c ****     ER_TFT040_writeData(0xA6);
 2556              		.loc 1 571 5 view .LVU551
 2557 0dc6 6548     		ldr	r0, .L28+300
 2558 0dc8 FFF7FEFF 		bl	ER_TFT040_writeCommand
 2559              	.LVL530:
 572:Core/Src/er_tft040.c ****     ER_TFT040_writeCommand(0xD426);
 2560              		.loc 1 572 5 view .LVU552
 2561 0dcc A620     		movs	r0, #166
 2562 0dce FFF7FEFF 		bl	ER_TFT040_writeData
 2563              	.LVL531:
 573:Core/Src/er_tft040.c ****     ER_TFT040_writeData(0x02);
 2564              		.loc 1 573 5 view .LVU553
 2565 0dd2 6348     		ldr	r0, .L28+304
 2566 0dd4 FFF7FEFF 		bl	ER_TFT040_writeCommand
 2567              	.LVL532:
 574:Core/Src/er_tft040.c ****     ER_TFT040_writeCommand(0xD427);
 2568              		.loc 1 574 5 view .LVU554
 2569 0dd8 0220     		movs	r0, #2
 2570 0dda FFF7FEFF 		bl	ER_TFT040_writeData
 2571              	.LVL533:
 575:Core/Src/er_tft040.c ****     ER_TFT040_writeData(0xBB);
 2572              		.loc 1 575 5 view .LVU555
 2573 0dde 6148     		ldr	r0, .L28+308
 2574 0de0 FFF7FEFF 		bl	ER_TFT040_writeCommand
 2575              	.LVL534:
 576:Core/Src/er_tft040.c ****     ER_TFT040_writeCommand(0xD428);
 2576              		.loc 1 576 5 view .LVU556
 2577 0de4 BB20     		movs	r0, #187
 2578 0de6 FFF7FEFF 		bl	ER_TFT040_writeData
 2579              	.LVL535:
 577:Core/Src/er_tft040.c ****     ER_TFT040_writeData(0x02);
 2580              		.loc 1 577 5 view .LVU557
 2581 0dea 5F48     		ldr	r0, .L28+312
 2582 0dec FFF7FEFF 		bl	ER_TFT040_writeCommand
 2583              	.LVL536:
 578:Core/Src/er_tft040.c ****     ER_TFT040_writeCommand(0xD429);
 2584              		.loc 1 578 5 view .LVU558
 2585 0df0 0220     		movs	r0, #2
 2586 0df2 FFF7FEFF 		bl	ER_TFT040_writeData
 2587              	.LVL537:
 579:Core/Src/er_tft040.c ****     ER_TFT040_writeData(0xCA);
 2588              		.loc 1 579 5 view .LVU559
 2589 0df6 5D48     		ldr	r0, .L28+316
 2590 0df8 FFF7FEFF 		bl	ER_TFT040_writeCommand
 2591              	.LVL538:
 580:Core/Src/er_tft040.c ****     ER_TFT040_writeCommand(0xD42A);
 2592              		.loc 1 580 5 view .LVU560
 2593 0dfc CA20     		movs	r0, #202
 2594 0dfe FFF7FEFF 		bl	ER_TFT040_writeData
 2595              	.LVL539:
 581:Core/Src/er_tft040.c ****     ER_TFT040_writeData(0x02);
 2596              		.loc 1 581 5 view .LVU561
 2597 0e02 5B48     		ldr	r0, .L28+320
 2598 0e04 FFF7FEFF 		bl	ER_TFT040_writeCommand
 2599              	.LVL540:
 582:Core/Src/er_tft040.c ****     ER_TFT040_writeCommand(0xD42B);
 2600              		.loc 1 582 5 view .LVU562
ARM GAS  /var/folders/_5/7dt5dlyd7598cb98063hl5tr0000gn/T//cc5bI3Gx.s 			page 71


 2601 0e08 0220     		movs	r0, #2
 2602 0e0a FFF7FEFF 		bl	ER_TFT040_writeData
 2603              	.LVL541:
 583:Core/Src/er_tft040.c ****     ER_TFT040_writeData(0xDB);
 2604              		.loc 1 583 5 view .LVU563
 2605 0e0e 5948     		ldr	r0, .L28+324
 2606 0e10 FFF7FEFF 		bl	ER_TFT040_writeCommand
 2607              	.LVL542:
 584:Core/Src/er_tft040.c ****     ER_TFT040_writeCommand(0xD42C);
 2608              		.loc 1 584 5 view .LVU564
 2609 0e14 DB20     		movs	r0, #219
 2610 0e16 FFF7FEFF 		bl	ER_TFT040_writeData
 2611              	.LVL543:
 585:Core/Src/er_tft040.c ****     ER_TFT040_writeData(0x02);
 2612              		.loc 1 585 5 view .LVU565
 2613 0e1a 5748     		ldr	r0, .L28+328
 2614 0e1c FFF7FEFF 		bl	ER_TFT040_writeCommand
 2615              	.LVL544:
 586:Core/Src/er_tft040.c ****     ER_TFT040_writeCommand(0xD42D);
 2616              		.loc 1 586 5 view .LVU566
 2617 0e20 0220     		movs	r0, #2
 2618 0e22 FFF7FEFF 		bl	ER_TFT040_writeData
 2619              	.LVL545:
 587:Core/Src/er_tft040.c ****     ER_TFT040_writeData(0xE8);
 2620              		.loc 1 587 5 view .LVU567
 2621 0e26 5548     		ldr	r0, .L28+332
 2622 0e28 FFF7FEFF 		bl	ER_TFT040_writeCommand
 2623              	.LVL546:
 2624 0e2c A8E0     		b	.L29
 2625              	.L30:
 2626 0e2e C046     		.align	2
 2627              	.L28:
 2628 0e30 0DD30000 		.word	54029
 2629 0e34 0ED30000 		.word	54030
 2630 0e38 0FD30000 		.word	54031
 2631 0e3c 10D30000 		.word	54032
 2632 0e40 11D30000 		.word	54033
 2633 0e44 12D30000 		.word	54034
 2634 0e48 13D30000 		.word	54035
 2635 0e4c 14D30000 		.word	54036
 2636 0e50 15D30000 		.word	54037
 2637 0e54 16D30000 		.word	54038
 2638 0e58 17D30000 		.word	54039
 2639 0e5c 18D30000 		.word	54040
 2640 0e60 19D30000 		.word	54041
 2641 0e64 1AD30000 		.word	54042
 2642 0e68 1BD30000 		.word	54043
 2643 0e6c 1CD30000 		.word	54044
 2644 0e70 1DD30000 		.word	54045
 2645 0e74 1ED30000 		.word	54046
 2646 0e78 1FD30000 		.word	54047
 2647 0e7c 20D30000 		.word	54048
 2648 0e80 21D30000 		.word	54049
 2649 0e84 22D30000 		.word	54050
 2650 0e88 23D30000 		.word	54051
 2651 0e8c 24D30000 		.word	54052
 2652 0e90 25D30000 		.word	54053
ARM GAS  /var/folders/_5/7dt5dlyd7598cb98063hl5tr0000gn/T//cc5bI3Gx.s 			page 72


 2653 0e94 26D30000 		.word	54054
 2654 0e98 27D30000 		.word	54055
 2655 0e9c 28D30000 		.word	54056
 2656 0ea0 29D30000 		.word	54057
 2657 0ea4 2AD30000 		.word	54058
 2658 0ea8 2BD30000 		.word	54059
 2659 0eac 2CD30000 		.word	54060
 2660 0eb0 2DD30000 		.word	54061
 2661 0eb4 2ED30000 		.word	54062
 2662 0eb8 2FD30000 		.word	54063
 2663 0ebc 30D30000 		.word	54064
 2664 0ec0 31D30000 		.word	54065
 2665 0ec4 32D30000 		.word	54066
 2666 0ec8 33D30000 		.word	54067
 2667 0ecc 01D40000 		.word	54273
 2668 0ed0 02D40000 		.word	54274
 2669 0ed4 03D40000 		.word	54275
 2670 0ed8 04D40000 		.word	54276
 2671 0edc 05D40000 		.word	54277
 2672 0ee0 06D40000 		.word	54278
 2673 0ee4 07D40000 		.word	54279
 2674 0ee8 08D40000 		.word	54280
 2675 0eec 09D40000 		.word	54281
 2676 0ef0 0AD40000 		.word	54282
 2677 0ef4 0BD40000 		.word	54283
 2678 0ef8 0CD40000 		.word	54284
 2679 0efc 0DD40000 		.word	54285
 2680 0f00 0ED40000 		.word	54286
 2681 0f04 0FD40000 		.word	54287
 2682 0f08 10D40000 		.word	54288
 2683 0f0c 11D40000 		.word	54289
 2684 0f10 12D40000 		.word	54290
 2685 0f14 13D40000 		.word	54291
 2686 0f18 14D40000 		.word	54292
 2687 0f1c 15D40000 		.word	54293
 2688 0f20 16D40000 		.word	54294
 2689 0f24 17D40000 		.word	54295
 2690 0f28 18D40000 		.word	54296
 2691 0f2c 19D40000 		.word	54297
 2692 0f30 1AD40000 		.word	54298
 2693 0f34 1BD40000 		.word	54299
 2694 0f38 1CD40000 		.word	54300
 2695 0f3c 1DD40000 		.word	54301
 2696 0f40 1ED40000 		.word	54302
 2697 0f44 1FD40000 		.word	54303
 2698 0f48 20D40000 		.word	54304
 2699 0f4c 21D40000 		.word	54305
 2700 0f50 22D40000 		.word	54306
 2701 0f54 23D40000 		.word	54307
 2702 0f58 24D40000 		.word	54308
 2703 0f5c 25D40000 		.word	54309
 2704 0f60 26D40000 		.word	54310
 2705 0f64 27D40000 		.word	54311
 2706 0f68 28D40000 		.word	54312
 2707 0f6c 29D40000 		.word	54313
 2708 0f70 2AD40000 		.word	54314
 2709 0f74 2BD40000 		.word	54315
ARM GAS  /var/folders/_5/7dt5dlyd7598cb98063hl5tr0000gn/T//cc5bI3Gx.s 			page 73


 2710 0f78 2CD40000 		.word	54316
 2711 0f7c 2DD40000 		.word	54317
 2712              	.L29:
 588:Core/Src/er_tft040.c ****     ER_TFT040_writeCommand(0xD42E);
 2713              		.loc 1 588 5 view .LVU568
 2714 0f80 E820     		movs	r0, #232
 2715 0f82 FFF7FEFF 		bl	ER_TFT040_writeData
 2716              	.LVL547:
 589:Core/Src/er_tft040.c ****     ER_TFT040_writeData(0x02);
 2717              		.loc 1 589 5 view .LVU569
 2718 0f86 FD48     		ldr	r0, .L31
 2719 0f88 FFF7FEFF 		bl	ER_TFT040_writeCommand
 2720              	.LVL548:
 590:Core/Src/er_tft040.c ****     ER_TFT040_writeCommand(0xD42F);
 2721              		.loc 1 590 5 view .LVU570
 2722 0f8c 0220     		movs	r0, #2
 2723 0f8e FFF7FEFF 		bl	ER_TFT040_writeData
 2724              	.LVL549:
 591:Core/Src/er_tft040.c ****     ER_TFT040_writeData(0xF9);  //
 2725              		.loc 1 591 5 view .LVU571
 2726 0f92 FB48     		ldr	r0, .L31+4
 2727 0f94 FFF7FEFF 		bl	ER_TFT040_writeCommand
 2728              	.LVL550:
 592:Core/Src/er_tft040.c ****     ER_TFT040_writeCommand(0xD430);
 2729              		.loc 1 592 5 view .LVU572
 2730 0f98 F920     		movs	r0, #249
 2731 0f9a FFF7FEFF 		bl	ER_TFT040_writeData
 2732              	.LVL551:
 593:Core/Src/er_tft040.c ****     ER_TFT040_writeData(0x03);
 2733              		.loc 1 593 5 view .LVU573
 2734 0f9e F948     		ldr	r0, .L31+8
 2735 0fa0 FFF7FEFF 		bl	ER_TFT040_writeCommand
 2736              	.LVL552:
 594:Core/Src/er_tft040.c ****     ER_TFT040_writeCommand(0xD431);
 2737              		.loc 1 594 5 view .LVU574
 2738 0fa4 0320     		movs	r0, #3
 2739 0fa6 FFF7FEFF 		bl	ER_TFT040_writeData
 2740              	.LVL553:
 595:Core/Src/er_tft040.c ****     ER_TFT040_writeData(0x1F);
 2741              		.loc 1 595 5 view .LVU575
 2742 0faa F748     		ldr	r0, .L31+12
 2743 0fac FFF7FEFF 		bl	ER_TFT040_writeCommand
 2744              	.LVL554:
 596:Core/Src/er_tft040.c ****     ER_TFT040_writeCommand(0xD432);
 2745              		.loc 1 596 5 view .LVU576
 2746 0fb0 1F20     		movs	r0, #31
 2747 0fb2 FFF7FEFF 		bl	ER_TFT040_writeData
 2748              	.LVL555:
 597:Core/Src/er_tft040.c ****     ER_TFT040_writeData(0x03);
 2749              		.loc 1 597 5 view .LVU577
 2750 0fb6 F548     		ldr	r0, .L31+16
 2751 0fb8 FFF7FEFF 		bl	ER_TFT040_writeCommand
 2752              	.LVL556:
 598:Core/Src/er_tft040.c ****     ER_TFT040_writeCommand(0xD433);
 2753              		.loc 1 598 5 view .LVU578
 2754 0fbc 0320     		movs	r0, #3
 2755 0fbe FFF7FEFF 		bl	ER_TFT040_writeData
ARM GAS  /var/folders/_5/7dt5dlyd7598cb98063hl5tr0000gn/T//cc5bI3Gx.s 			page 74


 2756              	.LVL557:
 599:Core/Src/er_tft040.c ****     ER_TFT040_writeData(0x7F);
 2757              		.loc 1 599 5 view .LVU579
 2758 0fc2 F348     		ldr	r0, .L31+20
 2759 0fc4 FFF7FEFF 		bl	ER_TFT040_writeCommand
 2760              	.LVL558:
 600:Core/Src/er_tft040.c **** 
 2761              		.loc 1 600 5 view .LVU580
 2762 0fc8 7F20     		movs	r0, #127
 2763 0fca FFF7FEFF 		bl	ER_TFT040_writeData
 2764              	.LVL559:
 602:Core/Src/er_tft040.c ****     ER_TFT040_writeData(0x00);
 2765              		.loc 1 602 5 view .LVU581
 2766 0fce D520     		movs	r0, #213
 2767 0fd0 0002     		lsls	r0, r0, #8
 2768 0fd2 FFF7FEFF 		bl	ER_TFT040_writeCommand
 2769              	.LVL560:
 603:Core/Src/er_tft040.c ****     ER_TFT040_writeCommand(0xD501);
 2770              		.loc 1 603 5 view .LVU582
 2771 0fd6 0020     		movs	r0, #0
 2772 0fd8 FFF7FEFF 		bl	ER_TFT040_writeData
 2773              	.LVL561:
 604:Core/Src/er_tft040.c ****     ER_TFT040_writeData(0x2D);
 2774              		.loc 1 604 5 view .LVU583
 2775 0fdc ED48     		ldr	r0, .L31+24
 2776 0fde FFF7FEFF 		bl	ER_TFT040_writeCommand
 2777              	.LVL562:
 605:Core/Src/er_tft040.c ****     ER_TFT040_writeCommand(0xD502);
 2778              		.loc 1 605 5 view .LVU584
 2779 0fe2 2D20     		movs	r0, #45
 2780 0fe4 FFF7FEFF 		bl	ER_TFT040_writeData
 2781              	.LVL563:
 606:Core/Src/er_tft040.c ****     ER_TFT040_writeData(0x00);
 2782              		.loc 1 606 5 view .LVU585
 2783 0fe8 EB48     		ldr	r0, .L31+28
 2784 0fea FFF7FEFF 		bl	ER_TFT040_writeCommand
 2785              	.LVL564:
 607:Core/Src/er_tft040.c ****     ER_TFT040_writeCommand(0xD503);
 2786              		.loc 1 607 5 view .LVU586
 2787 0fee 0020     		movs	r0, #0
 2788 0ff0 FFF7FEFF 		bl	ER_TFT040_writeData
 2789              	.LVL565:
 608:Core/Src/er_tft040.c ****     ER_TFT040_writeData(0x2E);
 2790              		.loc 1 608 5 view .LVU587
 2791 0ff4 E948     		ldr	r0, .L31+32
 2792 0ff6 FFF7FEFF 		bl	ER_TFT040_writeCommand
 2793              	.LVL566:
 609:Core/Src/er_tft040.c ****     ER_TFT040_writeCommand(0xD504);
 2794              		.loc 1 609 5 view .LVU588
 2795 0ffa 2E20     		movs	r0, #46
 2796 0ffc FFF7FEFF 		bl	ER_TFT040_writeData
 2797              	.LVL567:
 610:Core/Src/er_tft040.c ****     ER_TFT040_writeData(0x00);
 2798              		.loc 1 610 5 view .LVU589
 2799 1000 E748     		ldr	r0, .L31+36
 2800 1002 FFF7FEFF 		bl	ER_TFT040_writeCommand
 2801              	.LVL568:
ARM GAS  /var/folders/_5/7dt5dlyd7598cb98063hl5tr0000gn/T//cc5bI3Gx.s 			page 75


 611:Core/Src/er_tft040.c ****     ER_TFT040_writeCommand(0xD505);
 2802              		.loc 1 611 5 view .LVU590
 2803 1006 0020     		movs	r0, #0
 2804 1008 FFF7FEFF 		bl	ER_TFT040_writeData
 2805              	.LVL569:
 612:Core/Src/er_tft040.c ****     ER_TFT040_writeData(0x32);
 2806              		.loc 1 612 5 view .LVU591
 2807 100c E548     		ldr	r0, .L31+40
 2808 100e FFF7FEFF 		bl	ER_TFT040_writeCommand
 2809              	.LVL570:
 613:Core/Src/er_tft040.c ****     ER_TFT040_writeCommand(0xD506);
 2810              		.loc 1 613 5 view .LVU592
 2811 1012 3220     		movs	r0, #50
 2812 1014 FFF7FEFF 		bl	ER_TFT040_writeData
 2813              	.LVL571:
 614:Core/Src/er_tft040.c ****     ER_TFT040_writeData(0x00);
 2814              		.loc 1 614 5 view .LVU593
 2815 1018 E348     		ldr	r0, .L31+44
 2816 101a FFF7FEFF 		bl	ER_TFT040_writeCommand
 2817              	.LVL572:
 615:Core/Src/er_tft040.c ****     ER_TFT040_writeCommand(0xD507);
 2818              		.loc 1 615 5 view .LVU594
 2819 101e 0020     		movs	r0, #0
 2820 1020 FFF7FEFF 		bl	ER_TFT040_writeData
 2821              	.LVL573:
 616:Core/Src/er_tft040.c ****     ER_TFT040_writeData(0x44);
 2822              		.loc 1 616 5 view .LVU595
 2823 1024 E148     		ldr	r0, .L31+48
 2824 1026 FFF7FEFF 		bl	ER_TFT040_writeCommand
 2825              	.LVL574:
 617:Core/Src/er_tft040.c ****     ER_TFT040_writeCommand(0xD508);
 2826              		.loc 1 617 5 view .LVU596
 2827 102a 4420     		movs	r0, #68
 2828 102c FFF7FEFF 		bl	ER_TFT040_writeData
 2829              	.LVL575:
 618:Core/Src/er_tft040.c ****     ER_TFT040_writeData(0x00);
 2830              		.loc 1 618 5 view .LVU597
 2831 1030 DF48     		ldr	r0, .L31+52
 2832 1032 FFF7FEFF 		bl	ER_TFT040_writeCommand
 2833              	.LVL576:
 619:Core/Src/er_tft040.c ****     ER_TFT040_writeCommand(0xD509);
 2834              		.loc 1 619 5 view .LVU598
 2835 1036 0020     		movs	r0, #0
 2836 1038 FFF7FEFF 		bl	ER_TFT040_writeData
 2837              	.LVL577:
 620:Core/Src/er_tft040.c ****     ER_TFT040_writeData(0x53);
 2838              		.loc 1 620 5 view .LVU599
 2839 103c DD48     		ldr	r0, .L31+56
 2840 103e FFF7FEFF 		bl	ER_TFT040_writeCommand
 2841              	.LVL578:
 621:Core/Src/er_tft040.c ****     ER_TFT040_writeCommand(0xD50A);
 2842              		.loc 1 621 5 view .LVU600
 2843 1042 5320     		movs	r0, #83
 2844 1044 FFF7FEFF 		bl	ER_TFT040_writeData
 2845              	.LVL579:
 622:Core/Src/er_tft040.c ****     ER_TFT040_writeData(0x00);
 2846              		.loc 1 622 5 view .LVU601
ARM GAS  /var/folders/_5/7dt5dlyd7598cb98063hl5tr0000gn/T//cc5bI3Gx.s 			page 76


 2847 1048 DB48     		ldr	r0, .L31+60
 2848 104a FFF7FEFF 		bl	ER_TFT040_writeCommand
 2849              	.LVL580:
 623:Core/Src/er_tft040.c ****     ER_TFT040_writeCommand(0xD50B);
 2850              		.loc 1 623 5 view .LVU602
 2851 104e 0020     		movs	r0, #0
 2852 1050 FFF7FEFF 		bl	ER_TFT040_writeData
 2853              	.LVL581:
 624:Core/Src/er_tft040.c ****     ER_TFT040_writeData(0x88);
 2854              		.loc 1 624 5 view .LVU603
 2855 1054 D948     		ldr	r0, .L31+64
 2856 1056 FFF7FEFF 		bl	ER_TFT040_writeCommand
 2857              	.LVL582:
 625:Core/Src/er_tft040.c ****     ER_TFT040_writeCommand(0xD50C);
 2858              		.loc 1 625 5 view .LVU604
 2859 105a 8820     		movs	r0, #136
 2860 105c FFF7FEFF 		bl	ER_TFT040_writeData
 2861              	.LVL583:
 626:Core/Src/er_tft040.c ****     ER_TFT040_writeData(0x00);
 2862              		.loc 1 626 5 view .LVU605
 2863 1060 D748     		ldr	r0, .L31+68
 2864 1062 FFF7FEFF 		bl	ER_TFT040_writeCommand
 2865              	.LVL584:
 627:Core/Src/er_tft040.c ****     ER_TFT040_writeCommand(0xD50D);
 2866              		.loc 1 627 5 view .LVU606
 2867 1066 0020     		movs	r0, #0
 2868 1068 FFF7FEFF 		bl	ER_TFT040_writeData
 2869              	.LVL585:
 628:Core/Src/er_tft040.c ****     ER_TFT040_writeData(0xB6);
 2870              		.loc 1 628 5 view .LVU607
 2871 106c D548     		ldr	r0, .L31+72
 2872 106e FFF7FEFF 		bl	ER_TFT040_writeCommand
 2873              	.LVL586:
 629:Core/Src/er_tft040.c ****     ER_TFT040_writeCommand(0xD50E);
 2874              		.loc 1 629 5 view .LVU608
 2875 1072 B620     		movs	r0, #182
 2876 1074 FFF7FEFF 		bl	ER_TFT040_writeData
 2877              	.LVL587:
 630:Core/Src/er_tft040.c ****     ER_TFT040_writeData(0x00);
 2878              		.loc 1 630 5 view .LVU609
 2879 1078 D348     		ldr	r0, .L31+76
 2880 107a FFF7FEFF 		bl	ER_TFT040_writeCommand
 2881              	.LVL588:
 631:Core/Src/er_tft040.c ****     ER_TFT040_writeCommand(0xD50F);
 2882              		.loc 1 631 5 view .LVU610
 2883 107e 0020     		movs	r0, #0
 2884 1080 FFF7FEFF 		bl	ER_TFT040_writeData
 2885              	.LVL589:
 632:Core/Src/er_tft040.c ****     ER_TFT040_writeData(0xF3);  //
 2886              		.loc 1 632 5 view .LVU611
 2887 1084 D148     		ldr	r0, .L31+80
 2888 1086 FFF7FEFF 		bl	ER_TFT040_writeCommand
 2889              	.LVL590:
 633:Core/Src/er_tft040.c ****     ER_TFT040_writeCommand(0xD510);
 2890              		.loc 1 633 5 view .LVU612
 2891 108a F320     		movs	r0, #243
 2892 108c FFF7FEFF 		bl	ER_TFT040_writeData
ARM GAS  /var/folders/_5/7dt5dlyd7598cb98063hl5tr0000gn/T//cc5bI3Gx.s 			page 77


 2893              	.LVL591:
 634:Core/Src/er_tft040.c ****     ER_TFT040_writeData(0x01);
 2894              		.loc 1 634 5 view .LVU613
 2895 1090 CF48     		ldr	r0, .L31+84
 2896 1092 FFF7FEFF 		bl	ER_TFT040_writeCommand
 2897              	.LVL592:
 635:Core/Src/er_tft040.c ****     ER_TFT040_writeCommand(0xD511);
 2898              		.loc 1 635 5 view .LVU614
 2899 1096 0120     		movs	r0, #1
 2900 1098 FFF7FEFF 		bl	ER_TFT040_writeData
 2901              	.LVL593:
 636:Core/Src/er_tft040.c ****     ER_TFT040_writeData(0x22);
 2902              		.loc 1 636 5 view .LVU615
 2903 109c CD48     		ldr	r0, .L31+88
 2904 109e FFF7FEFF 		bl	ER_TFT040_writeCommand
 2905              	.LVL594:
 637:Core/Src/er_tft040.c ****     ER_TFT040_writeCommand(0xD512);
 2906              		.loc 1 637 5 view .LVU616
 2907 10a2 2220     		movs	r0, #34
 2908 10a4 FFF7FEFF 		bl	ER_TFT040_writeData
 2909              	.LVL595:
 638:Core/Src/er_tft040.c ****     ER_TFT040_writeData(0x01);
 2910              		.loc 1 638 5 view .LVU617
 2911 10a8 CB48     		ldr	r0, .L31+92
 2912 10aa FFF7FEFF 		bl	ER_TFT040_writeCommand
 2913              	.LVL596:
 639:Core/Src/er_tft040.c ****     ER_TFT040_writeCommand(0xD513);
 2914              		.loc 1 639 5 view .LVU618
 2915 10ae 0120     		movs	r0, #1
 2916 10b0 FFF7FEFF 		bl	ER_TFT040_writeData
 2917              	.LVL597:
 640:Core/Src/er_tft040.c ****     ER_TFT040_writeData(0x64);
 2918              		.loc 1 640 5 view .LVU619
 2919 10b4 C948     		ldr	r0, .L31+96
 2920 10b6 FFF7FEFF 		bl	ER_TFT040_writeCommand
 2921              	.LVL598:
 641:Core/Src/er_tft040.c ****     ER_TFT040_writeCommand(0xD514);
 2922              		.loc 1 641 5 view .LVU620
 2923 10ba 6420     		movs	r0, #100
 2924 10bc FFF7FEFF 		bl	ER_TFT040_writeData
 2925              	.LVL599:
 642:Core/Src/er_tft040.c ****     ER_TFT040_writeData(0x01);
 2926              		.loc 1 642 5 view .LVU621
 2927 10c0 C748     		ldr	r0, .L31+100
 2928 10c2 FFF7FEFF 		bl	ER_TFT040_writeCommand
 2929              	.LVL600:
 643:Core/Src/er_tft040.c ****     ER_TFT040_writeCommand(0xD515);
 2930              		.loc 1 643 5 view .LVU622
 2931 10c6 0120     		movs	r0, #1
 2932 10c8 FFF7FEFF 		bl	ER_TFT040_writeData
 2933              	.LVL601:
 644:Core/Src/er_tft040.c ****     ER_TFT040_writeData(0x92);
 2934              		.loc 1 644 5 view .LVU623
 2935 10cc C548     		ldr	r0, .L31+104
 2936 10ce FFF7FEFF 		bl	ER_TFT040_writeCommand
 2937              	.LVL602:
 645:Core/Src/er_tft040.c ****     ER_TFT040_writeCommand(0xD516);
ARM GAS  /var/folders/_5/7dt5dlyd7598cb98063hl5tr0000gn/T//cc5bI3Gx.s 			page 78


 2938              		.loc 1 645 5 view .LVU624
 2939 10d2 9220     		movs	r0, #146
 2940 10d4 FFF7FEFF 		bl	ER_TFT040_writeData
 2941              	.LVL603:
 646:Core/Src/er_tft040.c ****     ER_TFT040_writeData(0x01);
 2942              		.loc 1 646 5 view .LVU625
 2943 10d8 C348     		ldr	r0, .L31+108
 2944 10da FFF7FEFF 		bl	ER_TFT040_writeCommand
 2945              	.LVL604:
 647:Core/Src/er_tft040.c ****     ER_TFT040_writeCommand(0xD517);
 2946              		.loc 1 647 5 view .LVU626
 2947 10de 0120     		movs	r0, #1
 2948 10e0 FFF7FEFF 		bl	ER_TFT040_writeData
 2949              	.LVL605:
 648:Core/Src/er_tft040.c ****     ER_TFT040_writeData(0xD4);
 2950              		.loc 1 648 5 view .LVU627
 2951 10e4 C148     		ldr	r0, .L31+112
 2952 10e6 FFF7FEFF 		bl	ER_TFT040_writeCommand
 2953              	.LVL606:
 649:Core/Src/er_tft040.c ****     ER_TFT040_writeCommand(0xD518);
 2954              		.loc 1 649 5 view .LVU628
 2955 10ea D420     		movs	r0, #212
 2956 10ec FFF7FEFF 		bl	ER_TFT040_writeData
 2957              	.LVL607:
 650:Core/Src/er_tft040.c ****     ER_TFT040_writeData(0x02);
 2958              		.loc 1 650 5 view .LVU629
 2959 10f0 BF48     		ldr	r0, .L31+116
 2960 10f2 FFF7FEFF 		bl	ER_TFT040_writeCommand
 2961              	.LVL608:
 651:Core/Src/er_tft040.c ****     ER_TFT040_writeCommand(0xD519);
 2962              		.loc 1 651 5 view .LVU630
 2963 10f6 0220     		movs	r0, #2
 2964 10f8 FFF7FEFF 		bl	ER_TFT040_writeData
 2965              	.LVL609:
 652:Core/Src/er_tft040.c ****     ER_TFT040_writeData(0x07);
 2966              		.loc 1 652 5 view .LVU631
 2967 10fc BD48     		ldr	r0, .L31+120
 2968 10fe FFF7FEFF 		bl	ER_TFT040_writeCommand
 2969              	.LVL610:
 653:Core/Src/er_tft040.c ****     ER_TFT040_writeCommand(0xD51A);
 2970              		.loc 1 653 5 view .LVU632
 2971 1102 0720     		movs	r0, #7
 2972 1104 FFF7FEFF 		bl	ER_TFT040_writeData
 2973              	.LVL611:
 654:Core/Src/er_tft040.c ****     ER_TFT040_writeData(0x02);
 2974              		.loc 1 654 5 view .LVU633
 2975 1108 BB48     		ldr	r0, .L31+124
 2976 110a FFF7FEFF 		bl	ER_TFT040_writeCommand
 2977              	.LVL612:
 655:Core/Src/er_tft040.c ****     ER_TFT040_writeCommand(0xD51B);
 2978              		.loc 1 655 5 view .LVU634
 2979 110e 0220     		movs	r0, #2
 2980 1110 FFF7FEFF 		bl	ER_TFT040_writeData
 2981              	.LVL613:
 656:Core/Src/er_tft040.c ****     ER_TFT040_writeData(0x08);
 2982              		.loc 1 656 5 view .LVU635
 2983 1114 B948     		ldr	r0, .L31+128
ARM GAS  /var/folders/_5/7dt5dlyd7598cb98063hl5tr0000gn/T//cc5bI3Gx.s 			page 79


 2984 1116 FFF7FEFF 		bl	ER_TFT040_writeCommand
 2985              	.LVL614:
 657:Core/Src/er_tft040.c ****     ER_TFT040_writeCommand(0xD51C);
 2986              		.loc 1 657 5 view .LVU636
 2987 111a 0820     		movs	r0, #8
 2988 111c FFF7FEFF 		bl	ER_TFT040_writeData
 2989              	.LVL615:
 658:Core/Src/er_tft040.c ****     ER_TFT040_writeData(0x02);
 2990              		.loc 1 658 5 view .LVU637
 2991 1120 B748     		ldr	r0, .L31+132
 2992 1122 FFF7FEFF 		bl	ER_TFT040_writeCommand
 2993              	.LVL616:
 659:Core/Src/er_tft040.c ****     ER_TFT040_writeCommand(0xD51D);
 2994              		.loc 1 659 5 view .LVU638
 2995 1126 0220     		movs	r0, #2
 2996 1128 FFF7FEFF 		bl	ER_TFT040_writeData
 2997              	.LVL617:
 660:Core/Src/er_tft040.c ****     ER_TFT040_writeData(0x34);
 2998              		.loc 1 660 5 view .LVU639
 2999 112c B548     		ldr	r0, .L31+136
 3000 112e FFF7FEFF 		bl	ER_TFT040_writeCommand
 3001              	.LVL618:
 661:Core/Src/er_tft040.c ****     ER_TFT040_writeCommand(0xD51E);
 3002              		.loc 1 661 5 view .LVU640
 3003 1132 3420     		movs	r0, #52
 3004 1134 FFF7FEFF 		bl	ER_TFT040_writeData
 3005              	.LVL619:
 662:Core/Src/er_tft040.c ****     ER_TFT040_writeData(0x02);
 3006              		.loc 1 662 5 view .LVU641
 3007 1138 B348     		ldr	r0, .L31+140
 3008 113a FFF7FEFF 		bl	ER_TFT040_writeCommand
 3009              	.LVL620:
 663:Core/Src/er_tft040.c ****     ER_TFT040_writeCommand(0xD51F);
 3010              		.loc 1 663 5 view .LVU642
 3011 113e 0220     		movs	r0, #2
 3012 1140 FFF7FEFF 		bl	ER_TFT040_writeData
 3013              	.LVL621:
 664:Core/Src/er_tft040.c ****     ER_TFT040_writeData(0x5F);  //
 3014              		.loc 1 664 5 view .LVU643
 3015 1144 B148     		ldr	r0, .L31+144
 3016 1146 FFF7FEFF 		bl	ER_TFT040_writeCommand
 3017              	.LVL622:
 665:Core/Src/er_tft040.c ****     ER_TFT040_writeCommand(0xD520);
 3018              		.loc 1 665 5 view .LVU644
 3019 114a 5F20     		movs	r0, #95
 3020 114c FFF7FEFF 		bl	ER_TFT040_writeData
 3021              	.LVL623:
 666:Core/Src/er_tft040.c ****     ER_TFT040_writeData(0x02);
 3022              		.loc 1 666 5 view .LVU645
 3023 1150 AF48     		ldr	r0, .L31+148
 3024 1152 FFF7FEFF 		bl	ER_TFT040_writeCommand
 3025              	.LVL624:
 667:Core/Src/er_tft040.c ****     ER_TFT040_writeCommand(0xD521);
 3026              		.loc 1 667 5 view .LVU646
 3027 1156 0220     		movs	r0, #2
 3028 1158 FFF7FEFF 		bl	ER_TFT040_writeData
 3029              	.LVL625:
ARM GAS  /var/folders/_5/7dt5dlyd7598cb98063hl5tr0000gn/T//cc5bI3Gx.s 			page 80


 668:Core/Src/er_tft040.c ****     ER_TFT040_writeData(0x78);
 3030              		.loc 1 668 5 view .LVU647
 3031 115c AD48     		ldr	r0, .L31+152
 3032 115e FFF7FEFF 		bl	ER_TFT040_writeCommand
 3033              	.LVL626:
 669:Core/Src/er_tft040.c ****     ER_TFT040_writeCommand(0xD522);
 3034              		.loc 1 669 5 view .LVU648
 3035 1162 7820     		movs	r0, #120
 3036 1164 FFF7FEFF 		bl	ER_TFT040_writeData
 3037              	.LVL627:
 670:Core/Src/er_tft040.c ****     ER_TFT040_writeData(0x02);
 3038              		.loc 1 670 5 view .LVU649
 3039 1168 AB48     		ldr	r0, .L31+156
 3040 116a FFF7FEFF 		bl	ER_TFT040_writeCommand
 3041              	.LVL628:
 671:Core/Src/er_tft040.c ****     ER_TFT040_writeCommand(0xD523);
 3042              		.loc 1 671 5 view .LVU650
 3043 116e 0220     		movs	r0, #2
 3044 1170 FFF7FEFF 		bl	ER_TFT040_writeData
 3045              	.LVL629:
 672:Core/Src/er_tft040.c ****     ER_TFT040_writeData(0x94);
 3046              		.loc 1 672 5 view .LVU651
 3047 1174 A948     		ldr	r0, .L31+160
 3048 1176 FFF7FEFF 		bl	ER_TFT040_writeCommand
 3049              	.LVL630:
 673:Core/Src/er_tft040.c ****     ER_TFT040_writeCommand(0xD524);
 3050              		.loc 1 673 5 view .LVU652
 3051 117a 9420     		movs	r0, #148
 3052 117c FFF7FEFF 		bl	ER_TFT040_writeData
 3053              	.LVL631:
 674:Core/Src/er_tft040.c ****     ER_TFT040_writeData(0x02);
 3054              		.loc 1 674 5 view .LVU653
 3055 1180 A748     		ldr	r0, .L31+164
 3056 1182 FFF7FEFF 		bl	ER_TFT040_writeCommand
 3057              	.LVL632:
 675:Core/Src/er_tft040.c ****     ER_TFT040_writeCommand(0xD525);
 3058              		.loc 1 675 5 view .LVU654
 3059 1186 0220     		movs	r0, #2
 3060 1188 FFF7FEFF 		bl	ER_TFT040_writeData
 3061              	.LVL633:
 676:Core/Src/er_tft040.c ****     ER_TFT040_writeData(0xA6);
 3062              		.loc 1 676 5 view .LVU655
 3063 118c A548     		ldr	r0, .L31+168
 3064 118e FFF7FEFF 		bl	ER_TFT040_writeCommand
 3065              	.LVL634:
 677:Core/Src/er_tft040.c ****     ER_TFT040_writeCommand(0xD526);
 3066              		.loc 1 677 5 view .LVU656
 3067 1192 A620     		movs	r0, #166
 3068 1194 FFF7FEFF 		bl	ER_TFT040_writeData
 3069              	.LVL635:
 678:Core/Src/er_tft040.c ****     ER_TFT040_writeData(0x02);
 3070              		.loc 1 678 5 view .LVU657
 3071 1198 A348     		ldr	r0, .L31+172
 3072 119a FFF7FEFF 		bl	ER_TFT040_writeCommand
 3073              	.LVL636:
 679:Core/Src/er_tft040.c ****     ER_TFT040_writeCommand(0xD527);
 3074              		.loc 1 679 5 view .LVU658
ARM GAS  /var/folders/_5/7dt5dlyd7598cb98063hl5tr0000gn/T//cc5bI3Gx.s 			page 81


 3075 119e 0220     		movs	r0, #2
 3076 11a0 FFF7FEFF 		bl	ER_TFT040_writeData
 3077              	.LVL637:
 680:Core/Src/er_tft040.c ****     ER_TFT040_writeData(0xBB);
 3078              		.loc 1 680 5 view .LVU659
 3079 11a4 A148     		ldr	r0, .L31+176
 3080 11a6 FFF7FEFF 		bl	ER_TFT040_writeCommand
 3081              	.LVL638:
 681:Core/Src/er_tft040.c ****     ER_TFT040_writeCommand(0xD528);
 3082              		.loc 1 681 5 view .LVU660
 3083 11aa BB20     		movs	r0, #187
 3084 11ac FFF7FEFF 		bl	ER_TFT040_writeData
 3085              	.LVL639:
 682:Core/Src/er_tft040.c ****     ER_TFT040_writeData(0x02);
 3086              		.loc 1 682 5 view .LVU661
 3087 11b0 9F48     		ldr	r0, .L31+180
 3088 11b2 FFF7FEFF 		bl	ER_TFT040_writeCommand
 3089              	.LVL640:
 683:Core/Src/er_tft040.c ****     ER_TFT040_writeCommand(0xD529);
 3090              		.loc 1 683 5 view .LVU662
 3091 11b6 0220     		movs	r0, #2
 3092 11b8 FFF7FEFF 		bl	ER_TFT040_writeData
 3093              	.LVL641:
 684:Core/Src/er_tft040.c ****     ER_TFT040_writeData(0xCA);
 3094              		.loc 1 684 5 view .LVU663
 3095 11bc 9D48     		ldr	r0, .L31+184
 3096 11be FFF7FEFF 		bl	ER_TFT040_writeCommand
 3097              	.LVL642:
 685:Core/Src/er_tft040.c ****     ER_TFT040_writeCommand(0xD52A);
 3098              		.loc 1 685 5 view .LVU664
 3099 11c2 CA20     		movs	r0, #202
 3100 11c4 FFF7FEFF 		bl	ER_TFT040_writeData
 3101              	.LVL643:
 686:Core/Src/er_tft040.c ****     ER_TFT040_writeData(0x02);
 3102              		.loc 1 686 5 view .LVU665
 3103 11c8 9B48     		ldr	r0, .L31+188
 3104 11ca FFF7FEFF 		bl	ER_TFT040_writeCommand
 3105              	.LVL644:
 687:Core/Src/er_tft040.c ****     ER_TFT040_writeCommand(0xD52B);
 3106              		.loc 1 687 5 view .LVU666
 3107 11ce 0220     		movs	r0, #2
 3108 11d0 FFF7FEFF 		bl	ER_TFT040_writeData
 3109              	.LVL645:
 688:Core/Src/er_tft040.c ****     ER_TFT040_writeData(0xDB);
 3110              		.loc 1 688 5 view .LVU667
 3111 11d4 9948     		ldr	r0, .L31+192
 3112 11d6 FFF7FEFF 		bl	ER_TFT040_writeCommand
 3113              	.LVL646:
 689:Core/Src/er_tft040.c ****     ER_TFT040_writeCommand(0xD52C);
 3114              		.loc 1 689 5 view .LVU668
 3115 11da DB20     		movs	r0, #219
 3116 11dc FFF7FEFF 		bl	ER_TFT040_writeData
 3117              	.LVL647:
 690:Core/Src/er_tft040.c ****     ER_TFT040_writeData(0x02);
 3118              		.loc 1 690 5 view .LVU669
 3119 11e0 9748     		ldr	r0, .L31+196
 3120 11e2 FFF7FEFF 		bl	ER_TFT040_writeCommand
ARM GAS  /var/folders/_5/7dt5dlyd7598cb98063hl5tr0000gn/T//cc5bI3Gx.s 			page 82


 3121              	.LVL648:
 691:Core/Src/er_tft040.c ****     ER_TFT040_writeCommand(0xD52D);
 3122              		.loc 1 691 5 view .LVU670
 3123 11e6 0220     		movs	r0, #2
 3124 11e8 FFF7FEFF 		bl	ER_TFT040_writeData
 3125              	.LVL649:
 692:Core/Src/er_tft040.c ****     ER_TFT040_writeData(0xE8);
 3126              		.loc 1 692 5 view .LVU671
 3127 11ec 9548     		ldr	r0, .L31+200
 3128 11ee FFF7FEFF 		bl	ER_TFT040_writeCommand
 3129              	.LVL650:
 693:Core/Src/er_tft040.c ****     ER_TFT040_writeCommand(0xD52E);
 3130              		.loc 1 693 5 view .LVU672
 3131 11f2 E820     		movs	r0, #232
 3132 11f4 FFF7FEFF 		bl	ER_TFT040_writeData
 3133              	.LVL651:
 694:Core/Src/er_tft040.c ****     ER_TFT040_writeData(0x02);
 3134              		.loc 1 694 5 view .LVU673
 3135 11f8 9348     		ldr	r0, .L31+204
 3136 11fa FFF7FEFF 		bl	ER_TFT040_writeCommand
 3137              	.LVL652:
 695:Core/Src/er_tft040.c ****     ER_TFT040_writeCommand(0xD52F);
 3138              		.loc 1 695 5 view .LVU674
 3139 11fe 0220     		movs	r0, #2
 3140 1200 FFF7FEFF 		bl	ER_TFT040_writeData
 3141              	.LVL653:
 696:Core/Src/er_tft040.c ****     ER_TFT040_writeData(0xF9);  //
 3142              		.loc 1 696 5 view .LVU675
 3143 1204 9148     		ldr	r0, .L31+208
 3144 1206 FFF7FEFF 		bl	ER_TFT040_writeCommand
 3145              	.LVL654:
 697:Core/Src/er_tft040.c ****     ER_TFT040_writeCommand(0xD530);
 3146              		.loc 1 697 5 view .LVU676
 3147 120a F920     		movs	r0, #249
 3148 120c FFF7FEFF 		bl	ER_TFT040_writeData
 3149              	.LVL655:
 698:Core/Src/er_tft040.c ****     ER_TFT040_writeData(0x03);
 3150              		.loc 1 698 5 view .LVU677
 3151 1210 8F48     		ldr	r0, .L31+212
 3152 1212 FFF7FEFF 		bl	ER_TFT040_writeCommand
 3153              	.LVL656:
 699:Core/Src/er_tft040.c ****     ER_TFT040_writeCommand(0xD531);
 3154              		.loc 1 699 5 view .LVU678
 3155 1216 0320     		movs	r0, #3
 3156 1218 FFF7FEFF 		bl	ER_TFT040_writeData
 3157              	.LVL657:
 700:Core/Src/er_tft040.c ****     ER_TFT040_writeData(0x1F);
 3158              		.loc 1 700 5 view .LVU679
 3159 121c 8D48     		ldr	r0, .L31+216
 3160 121e FFF7FEFF 		bl	ER_TFT040_writeCommand
 3161              	.LVL658:
 701:Core/Src/er_tft040.c ****     ER_TFT040_writeCommand(0xD532);
 3162              		.loc 1 701 5 view .LVU680
 3163 1222 1F20     		movs	r0, #31
 3164 1224 FFF7FEFF 		bl	ER_TFT040_writeData
 3165              	.LVL659:
 702:Core/Src/er_tft040.c ****     ER_TFT040_writeData(0x03);
ARM GAS  /var/folders/_5/7dt5dlyd7598cb98063hl5tr0000gn/T//cc5bI3Gx.s 			page 83


 3166              		.loc 1 702 5 view .LVU681
 3167 1228 8B48     		ldr	r0, .L31+220
 3168 122a FFF7FEFF 		bl	ER_TFT040_writeCommand
 3169              	.LVL660:
 703:Core/Src/er_tft040.c ****     ER_TFT040_writeCommand(0xD533);
 3170              		.loc 1 703 5 view .LVU682
 3171 122e 0320     		movs	r0, #3
 3172 1230 FFF7FEFF 		bl	ER_TFT040_writeData
 3173              	.LVL661:
 704:Core/Src/er_tft040.c ****     ER_TFT040_writeData(0x7F);
 3174              		.loc 1 704 5 view .LVU683
 3175 1234 8948     		ldr	r0, .L31+224
 3176 1236 FFF7FEFF 		bl	ER_TFT040_writeCommand
 3177              	.LVL662:
 705:Core/Src/er_tft040.c **** 
 3178              		.loc 1 705 5 view .LVU684
 3179 123a 7F20     		movs	r0, #127
 3180 123c FFF7FEFF 		bl	ER_TFT040_writeData
 3181              	.LVL663:
 707:Core/Src/er_tft040.c ****     ER_TFT040_writeData(0x00);
 3182              		.loc 1 707 5 view .LVU685
 3183 1240 D620     		movs	r0, #214
 3184 1242 0002     		lsls	r0, r0, #8
 3185 1244 FFF7FEFF 		bl	ER_TFT040_writeCommand
 3186              	.LVL664:
 708:Core/Src/er_tft040.c ****     ER_TFT040_writeCommand(0xD601);
 3187              		.loc 1 708 5 view .LVU686
 3188 1248 0020     		movs	r0, #0
 3189 124a FFF7FEFF 		bl	ER_TFT040_writeData
 3190              	.LVL665:
 709:Core/Src/er_tft040.c ****     ER_TFT040_writeData(0x2D);
 3191              		.loc 1 709 5 view .LVU687
 3192 124e 8448     		ldr	r0, .L31+228
 3193 1250 FFF7FEFF 		bl	ER_TFT040_writeCommand
 3194              	.LVL666:
 710:Core/Src/er_tft040.c ****     ER_TFT040_writeCommand(0xD602);
 3195              		.loc 1 710 5 view .LVU688
 3196 1254 2D20     		movs	r0, #45
 3197 1256 FFF7FEFF 		bl	ER_TFT040_writeData
 3198              	.LVL667:
 711:Core/Src/er_tft040.c ****     ER_TFT040_writeData(0x00);
 3199              		.loc 1 711 5 view .LVU689
 3200 125a 8248     		ldr	r0, .L31+232
 3201 125c FFF7FEFF 		bl	ER_TFT040_writeCommand
 3202              	.LVL668:
 712:Core/Src/er_tft040.c ****     ER_TFT040_writeCommand(0xD603);
 3203              		.loc 1 712 5 view .LVU690
 3204 1260 0020     		movs	r0, #0
 3205 1262 FFF7FEFF 		bl	ER_TFT040_writeData
 3206              	.LVL669:
 713:Core/Src/er_tft040.c ****     ER_TFT040_writeData(0x2E);
 3207              		.loc 1 713 5 view .LVU691
 3208 1266 8048     		ldr	r0, .L31+236
 3209 1268 FFF7FEFF 		bl	ER_TFT040_writeCommand
 3210              	.LVL670:
 714:Core/Src/er_tft040.c ****     ER_TFT040_writeCommand(0xD604);
 3211              		.loc 1 714 5 view .LVU692
ARM GAS  /var/folders/_5/7dt5dlyd7598cb98063hl5tr0000gn/T//cc5bI3Gx.s 			page 84


 3212 126c 2E20     		movs	r0, #46
 3213 126e FFF7FEFF 		bl	ER_TFT040_writeData
 3214              	.LVL671:
 715:Core/Src/er_tft040.c ****     ER_TFT040_writeData(0x00);
 3215              		.loc 1 715 5 view .LVU693
 3216 1272 7E48     		ldr	r0, .L31+240
 3217 1274 FFF7FEFF 		bl	ER_TFT040_writeCommand
 3218              	.LVL672:
 716:Core/Src/er_tft040.c ****     ER_TFT040_writeCommand(0xD605);
 3219              		.loc 1 716 5 view .LVU694
 3220 1278 0020     		movs	r0, #0
 3221 127a FFF7FEFF 		bl	ER_TFT040_writeData
 3222              	.LVL673:
 717:Core/Src/er_tft040.c ****     ER_TFT040_writeData(0x32);
 3223              		.loc 1 717 5 view .LVU695
 3224 127e 7C48     		ldr	r0, .L31+244
 3225 1280 FFF7FEFF 		bl	ER_TFT040_writeCommand
 3226              	.LVL674:
 718:Core/Src/er_tft040.c ****     ER_TFT040_writeCommand(0xD606);
 3227              		.loc 1 718 5 view .LVU696
 3228 1284 3220     		movs	r0, #50
 3229 1286 FFF7FEFF 		bl	ER_TFT040_writeData
 3230              	.LVL675:
 719:Core/Src/er_tft040.c ****     ER_TFT040_writeData(0x00);
 3231              		.loc 1 719 5 view .LVU697
 3232 128a 7A48     		ldr	r0, .L31+248
 3233 128c FFF7FEFF 		bl	ER_TFT040_writeCommand
 3234              	.LVL676:
 720:Core/Src/er_tft040.c ****     ER_TFT040_writeCommand(0xD607);
 3235              		.loc 1 720 5 view .LVU698
 3236 1290 0020     		movs	r0, #0
 3237 1292 FFF7FEFF 		bl	ER_TFT040_writeData
 3238              	.LVL677:
 721:Core/Src/er_tft040.c ****     ER_TFT040_writeData(0x44);
 3239              		.loc 1 721 5 view .LVU699
 3240 1296 7848     		ldr	r0, .L31+252
 3241 1298 FFF7FEFF 		bl	ER_TFT040_writeCommand
 3242              	.LVL678:
 722:Core/Src/er_tft040.c ****     ER_TFT040_writeCommand(0xD608);
 3243              		.loc 1 722 5 view .LVU700
 3244 129c 4420     		movs	r0, #68
 3245 129e FFF7FEFF 		bl	ER_TFT040_writeData
 3246              	.LVL679:
 723:Core/Src/er_tft040.c ****     ER_TFT040_writeData(0x00);
 3247              		.loc 1 723 5 view .LVU701
 3248 12a2 7648     		ldr	r0, .L31+256
 3249 12a4 FFF7FEFF 		bl	ER_TFT040_writeCommand
 3250              	.LVL680:
 724:Core/Src/er_tft040.c ****     ER_TFT040_writeCommand(0xD609);
 3251              		.loc 1 724 5 view .LVU702
 3252 12a8 0020     		movs	r0, #0
 3253 12aa FFF7FEFF 		bl	ER_TFT040_writeData
 3254              	.LVL681:
 725:Core/Src/er_tft040.c ****     ER_TFT040_writeData(0x53);
 3255              		.loc 1 725 5 view .LVU703
 3256 12ae 7448     		ldr	r0, .L31+260
 3257 12b0 FFF7FEFF 		bl	ER_TFT040_writeCommand
ARM GAS  /var/folders/_5/7dt5dlyd7598cb98063hl5tr0000gn/T//cc5bI3Gx.s 			page 85


 3258              	.LVL682:
 726:Core/Src/er_tft040.c ****     ER_TFT040_writeCommand(0xD60A);
 3259              		.loc 1 726 5 view .LVU704
 3260 12b4 5320     		movs	r0, #83
 3261 12b6 FFF7FEFF 		bl	ER_TFT040_writeData
 3262              	.LVL683:
 727:Core/Src/er_tft040.c ****     ER_TFT040_writeData(0x00);
 3263              		.loc 1 727 5 view .LVU705
 3264 12ba 7248     		ldr	r0, .L31+264
 3265 12bc FFF7FEFF 		bl	ER_TFT040_writeCommand
 3266              	.LVL684:
 728:Core/Src/er_tft040.c ****     ER_TFT040_writeCommand(0xD60B);
 3267              		.loc 1 728 5 view .LVU706
 3268 12c0 0020     		movs	r0, #0
 3269 12c2 FFF7FEFF 		bl	ER_TFT040_writeData
 3270              	.LVL685:
 729:Core/Src/er_tft040.c ****     ER_TFT040_writeData(0x88);
 3271              		.loc 1 729 5 view .LVU707
 3272 12c6 7048     		ldr	r0, .L31+268
 3273 12c8 FFF7FEFF 		bl	ER_TFT040_writeCommand
 3274              	.LVL686:
 730:Core/Src/er_tft040.c ****     ER_TFT040_writeCommand(0xD60C);
 3275              		.loc 1 730 5 view .LVU708
 3276 12cc 8820     		movs	r0, #136
 3277 12ce FFF7FEFF 		bl	ER_TFT040_writeData
 3278              	.LVL687:
 731:Core/Src/er_tft040.c ****     ER_TFT040_writeData(0x00);
 3279              		.loc 1 731 5 view .LVU709
 3280 12d2 6E48     		ldr	r0, .L31+272
 3281 12d4 FFF7FEFF 		bl	ER_TFT040_writeCommand
 3282              	.LVL688:
 732:Core/Src/er_tft040.c ****     ER_TFT040_writeCommand(0xD60D);
 3283              		.loc 1 732 5 view .LVU710
 3284 12d8 0020     		movs	r0, #0
 3285 12da FFF7FEFF 		bl	ER_TFT040_writeData
 3286              	.LVL689:
 733:Core/Src/er_tft040.c ****     ER_TFT040_writeData(0xB6);
 3287              		.loc 1 733 5 view .LVU711
 3288 12de 6C48     		ldr	r0, .L31+276
 3289 12e0 FFF7FEFF 		bl	ER_TFT040_writeCommand
 3290              	.LVL690:
 734:Core/Src/er_tft040.c ****     ER_TFT040_writeCommand(0xD60E);
 3291              		.loc 1 734 5 view .LVU712
 3292 12e4 B620     		movs	r0, #182
 3293 12e6 FFF7FEFF 		bl	ER_TFT040_writeData
 3294              	.LVL691:
 735:Core/Src/er_tft040.c ****     ER_TFT040_writeData(0x00);
 3295              		.loc 1 735 5 view .LVU713
 3296 12ea 6A48     		ldr	r0, .L31+280
 3297 12ec FFF7FEFF 		bl	ER_TFT040_writeCommand
 3298              	.LVL692:
 736:Core/Src/er_tft040.c ****     ER_TFT040_writeCommand(0xD60F);
 3299              		.loc 1 736 5 view .LVU714
 3300 12f0 0020     		movs	r0, #0
 3301 12f2 FFF7FEFF 		bl	ER_TFT040_writeData
 3302              	.LVL693:
 737:Core/Src/er_tft040.c ****     ER_TFT040_writeData(0xF3);  //
ARM GAS  /var/folders/_5/7dt5dlyd7598cb98063hl5tr0000gn/T//cc5bI3Gx.s 			page 86


 3303              		.loc 1 737 5 view .LVU715
 3304 12f6 6848     		ldr	r0, .L31+284
 3305 12f8 FFF7FEFF 		bl	ER_TFT040_writeCommand
 3306              	.LVL694:
 738:Core/Src/er_tft040.c ****     ER_TFT040_writeCommand(0xD610);
 3307              		.loc 1 738 5 view .LVU716
 3308 12fc F320     		movs	r0, #243
 3309 12fe FFF7FEFF 		bl	ER_TFT040_writeData
 3310              	.LVL695:
 739:Core/Src/er_tft040.c ****     ER_TFT040_writeData(0x01);
 3311              		.loc 1 739 5 view .LVU717
 3312 1302 6648     		ldr	r0, .L31+288
 3313 1304 FFF7FEFF 		bl	ER_TFT040_writeCommand
 3314              	.LVL696:
 740:Core/Src/er_tft040.c ****     ER_TFT040_writeCommand(0xD611);
 3315              		.loc 1 740 5 view .LVU718
 3316 1308 0120     		movs	r0, #1
 3317 130a FFF7FEFF 		bl	ER_TFT040_writeData
 3318              	.LVL697:
 741:Core/Src/er_tft040.c ****     ER_TFT040_writeData(0x22);
 3319              		.loc 1 741 5 view .LVU719
 3320 130e 6448     		ldr	r0, .L31+292
 3321 1310 FFF7FEFF 		bl	ER_TFT040_writeCommand
 3322              	.LVL698:
 742:Core/Src/er_tft040.c ****     ER_TFT040_writeCommand(0xD612);
 3323              		.loc 1 742 5 view .LVU720
 3324 1314 2220     		movs	r0, #34
 3325 1316 FFF7FEFF 		bl	ER_TFT040_writeData
 3326              	.LVL699:
 743:Core/Src/er_tft040.c ****     ER_TFT040_writeData(0x01);
 3327              		.loc 1 743 5 view .LVU721
 3328 131a 6248     		ldr	r0, .L31+296
 3329 131c FFF7FEFF 		bl	ER_TFT040_writeCommand
 3330              	.LVL700:
 744:Core/Src/er_tft040.c ****     ER_TFT040_writeCommand(0xD613);
 3331              		.loc 1 744 5 view .LVU722
 3332 1320 0120     		movs	r0, #1
 3333 1322 FFF7FEFF 		bl	ER_TFT040_writeData
 3334              	.LVL701:
 745:Core/Src/er_tft040.c ****     ER_TFT040_writeData(0x64);
 3335              		.loc 1 745 5 view .LVU723
 3336 1326 6048     		ldr	r0, .L31+300
 3337 1328 FFF7FEFF 		bl	ER_TFT040_writeCommand
 3338              	.LVL702:
 746:Core/Src/er_tft040.c ****     ER_TFT040_writeCommand(0xD614);
 3339              		.loc 1 746 5 view .LVU724
 3340 132c 6420     		movs	r0, #100
 3341 132e FFF7FEFF 		bl	ER_TFT040_writeData
 3342              	.LVL703:
 747:Core/Src/er_tft040.c ****     ER_TFT040_writeData(0x01);
 3343              		.loc 1 747 5 view .LVU725
 3344 1332 5E48     		ldr	r0, .L31+304
 3345 1334 FFF7FEFF 		bl	ER_TFT040_writeCommand
 3346              	.LVL704:
 748:Core/Src/er_tft040.c ****     ER_TFT040_writeCommand(0xD615);
 3347              		.loc 1 748 5 view .LVU726
 3348 1338 0120     		movs	r0, #1
ARM GAS  /var/folders/_5/7dt5dlyd7598cb98063hl5tr0000gn/T//cc5bI3Gx.s 			page 87


 3349 133a FFF7FEFF 		bl	ER_TFT040_writeData
 3350              	.LVL705:
 749:Core/Src/er_tft040.c ****     ER_TFT040_writeData(0x92);
 3351              		.loc 1 749 5 view .LVU727
 3352 133e 5C48     		ldr	r0, .L31+308
 3353 1340 FFF7FEFF 		bl	ER_TFT040_writeCommand
 3354              	.LVL706:
 750:Core/Src/er_tft040.c ****     ER_TFT040_writeCommand(0xD616);
 3355              		.loc 1 750 5 view .LVU728
 3356 1344 9220     		movs	r0, #146
 3357 1346 FFF7FEFF 		bl	ER_TFT040_writeData
 3358              	.LVL707:
 751:Core/Src/er_tft040.c ****     ER_TFT040_writeData(0x01);
 3359              		.loc 1 751 5 view .LVU729
 3360 134a 5A48     		ldr	r0, .L31+312
 3361 134c FFF7FEFF 		bl	ER_TFT040_writeCommand
 3362              	.LVL708:
 752:Core/Src/er_tft040.c ****     ER_TFT040_writeCommand(0xD617);
 3363              		.loc 1 752 5 view .LVU730
 3364 1350 0120     		movs	r0, #1
 3365 1352 FFF7FEFF 		bl	ER_TFT040_writeData
 3366              	.LVL709:
 753:Core/Src/er_tft040.c ****     ER_TFT040_writeData(0xD4);
 3367              		.loc 1 753 5 view .LVU731
 3368 1356 5848     		ldr	r0, .L31+316
 3369 1358 FFF7FEFF 		bl	ER_TFT040_writeCommand
 3370              	.LVL710:
 754:Core/Src/er_tft040.c ****     ER_TFT040_writeCommand(0xD618);
 3371              		.loc 1 754 5 view .LVU732
 3372 135c D420     		movs	r0, #212
 3373 135e FFF7FEFF 		bl	ER_TFT040_writeData
 3374              	.LVL711:
 755:Core/Src/er_tft040.c ****     ER_TFT040_writeData(0x02);
 3375              		.loc 1 755 5 view .LVU733
 3376 1362 5648     		ldr	r0, .L31+320
 3377 1364 FFF7FEFF 		bl	ER_TFT040_writeCommand
 3378              	.LVL712:
 756:Core/Src/er_tft040.c ****     ER_TFT040_writeCommand(0xD619);
 3379              		.loc 1 756 5 view .LVU734
 3380 1368 0220     		movs	r0, #2
 3381 136a FFF7FEFF 		bl	ER_TFT040_writeData
 3382              	.LVL713:
 757:Core/Src/er_tft040.c ****     ER_TFT040_writeData(0x07);
 3383              		.loc 1 757 5 view .LVU735
 3384 136e 5448     		ldr	r0, .L31+324
 3385 1370 FFF7FEFF 		bl	ER_TFT040_writeCommand
 3386              	.LVL714:
 758:Core/Src/er_tft040.c ****     ER_TFT040_writeCommand(0xD61A);
 3387              		.loc 1 758 5 view .LVU736
 3388 1374 0720     		movs	r0, #7
 3389 1376 FFF7FEFF 		bl	ER_TFT040_writeData
 3390              	.LVL715:
 3391 137a A3E0     		b	.L32
 3392              	.L33:
 3393              		.align	2
 3394              	.L31:
 3395 137c 2ED40000 		.word	54318
ARM GAS  /var/folders/_5/7dt5dlyd7598cb98063hl5tr0000gn/T//cc5bI3Gx.s 			page 88


 3396 1380 2FD40000 		.word	54319
 3397 1384 30D40000 		.word	54320
 3398 1388 31D40000 		.word	54321
 3399 138c 32D40000 		.word	54322
 3400 1390 33D40000 		.word	54323
 3401 1394 01D50000 		.word	54529
 3402 1398 02D50000 		.word	54530
 3403 139c 03D50000 		.word	54531
 3404 13a0 04D50000 		.word	54532
 3405 13a4 05D50000 		.word	54533
 3406 13a8 06D50000 		.word	54534
 3407 13ac 07D50000 		.word	54535
 3408 13b0 08D50000 		.word	54536
 3409 13b4 09D50000 		.word	54537
 3410 13b8 0AD50000 		.word	54538
 3411 13bc 0BD50000 		.word	54539
 3412 13c0 0CD50000 		.word	54540
 3413 13c4 0DD50000 		.word	54541
 3414 13c8 0ED50000 		.word	54542
 3415 13cc 0FD50000 		.word	54543
 3416 13d0 10D50000 		.word	54544
 3417 13d4 11D50000 		.word	54545
 3418 13d8 12D50000 		.word	54546
 3419 13dc 13D50000 		.word	54547
 3420 13e0 14D50000 		.word	54548
 3421 13e4 15D50000 		.word	54549
 3422 13e8 16D50000 		.word	54550
 3423 13ec 17D50000 		.word	54551
 3424 13f0 18D50000 		.word	54552
 3425 13f4 19D50000 		.word	54553
 3426 13f8 1AD50000 		.word	54554
 3427 13fc 1BD50000 		.word	54555
 3428 1400 1CD50000 		.word	54556
 3429 1404 1DD50000 		.word	54557
 3430 1408 1ED50000 		.word	54558
 3431 140c 1FD50000 		.word	54559
 3432 1410 20D50000 		.word	54560
 3433 1414 21D50000 		.word	54561
 3434 1418 22D50000 		.word	54562
 3435 141c 23D50000 		.word	54563
 3436 1420 24D50000 		.word	54564
 3437 1424 25D50000 		.word	54565
 3438 1428 26D50000 		.word	54566
 3439 142c 27D50000 		.word	54567
 3440 1430 28D50000 		.word	54568
 3441 1434 29D50000 		.word	54569
 3442 1438 2AD50000 		.word	54570
 3443 143c 2BD50000 		.word	54571
 3444 1440 2CD50000 		.word	54572
 3445 1444 2DD50000 		.word	54573
 3446 1448 2ED50000 		.word	54574
 3447 144c 2FD50000 		.word	54575
 3448 1450 30D50000 		.word	54576
 3449 1454 31D50000 		.word	54577
 3450 1458 32D50000 		.word	54578
 3451 145c 33D50000 		.word	54579
 3452 1460 01D60000 		.word	54785
ARM GAS  /var/folders/_5/7dt5dlyd7598cb98063hl5tr0000gn/T//cc5bI3Gx.s 			page 89


 3453 1464 02D60000 		.word	54786
 3454 1468 03D60000 		.word	54787
 3455 146c 04D60000 		.word	54788
 3456 1470 05D60000 		.word	54789
 3457 1474 06D60000 		.word	54790
 3458 1478 07D60000 		.word	54791
 3459 147c 08D60000 		.word	54792
 3460 1480 09D60000 		.word	54793
 3461 1484 0AD60000 		.word	54794
 3462 1488 0BD60000 		.word	54795
 3463 148c 0CD60000 		.word	54796
 3464 1490 0DD60000 		.word	54797
 3465 1494 0ED60000 		.word	54798
 3466 1498 0FD60000 		.word	54799
 3467 149c 10D60000 		.word	54800
 3468 14a0 11D60000 		.word	54801
 3469 14a4 12D60000 		.word	54802
 3470 14a8 13D60000 		.word	54803
 3471 14ac 14D60000 		.word	54804
 3472 14b0 15D60000 		.word	54805
 3473 14b4 16D60000 		.word	54806
 3474 14b8 17D60000 		.word	54807
 3475 14bc 18D60000 		.word	54808
 3476 14c0 19D60000 		.word	54809
 3477              	.L32:
 759:Core/Src/er_tft040.c ****     ER_TFT040_writeData(0x02);
 3478              		.loc 1 759 5 view .LVU737
 3479 14c4 AA48     		ldr	r0, .L34
 3480 14c6 FFF7FEFF 		bl	ER_TFT040_writeCommand
 3481              	.LVL716:
 760:Core/Src/er_tft040.c ****     ER_TFT040_writeCommand(0xD61B);
 3482              		.loc 1 760 5 view .LVU738
 3483 14ca 0220     		movs	r0, #2
 3484 14cc FFF7FEFF 		bl	ER_TFT040_writeData
 3485              	.LVL717:
 761:Core/Src/er_tft040.c ****     ER_TFT040_writeData(0x08);
 3486              		.loc 1 761 5 view .LVU739
 3487 14d0 A848     		ldr	r0, .L34+4
 3488 14d2 FFF7FEFF 		bl	ER_TFT040_writeCommand
 3489              	.LVL718:
 762:Core/Src/er_tft040.c ****     ER_TFT040_writeCommand(0xD61C);
 3490              		.loc 1 762 5 view .LVU740
 3491 14d6 0820     		movs	r0, #8
 3492 14d8 FFF7FEFF 		bl	ER_TFT040_writeData
 3493              	.LVL719:
 763:Core/Src/er_tft040.c ****     ER_TFT040_writeData(0x02);
 3494              		.loc 1 763 5 view .LVU741
 3495 14dc A648     		ldr	r0, .L34+8
 3496 14de FFF7FEFF 		bl	ER_TFT040_writeCommand
 3497              	.LVL720:
 764:Core/Src/er_tft040.c ****     ER_TFT040_writeCommand(0xD61D);
 3498              		.loc 1 764 5 view .LVU742
 3499 14e2 0220     		movs	r0, #2
 3500 14e4 FFF7FEFF 		bl	ER_TFT040_writeData
 3501              	.LVL721:
 765:Core/Src/er_tft040.c ****     ER_TFT040_writeData(0x34);
 3502              		.loc 1 765 5 view .LVU743
ARM GAS  /var/folders/_5/7dt5dlyd7598cb98063hl5tr0000gn/T//cc5bI3Gx.s 			page 90


 3503 14e8 A448     		ldr	r0, .L34+12
 3504 14ea FFF7FEFF 		bl	ER_TFT040_writeCommand
 3505              	.LVL722:
 766:Core/Src/er_tft040.c ****     ER_TFT040_writeCommand(0xD61E);
 3506              		.loc 1 766 5 view .LVU744
 3507 14ee 3420     		movs	r0, #52
 3508 14f0 FFF7FEFF 		bl	ER_TFT040_writeData
 3509              	.LVL723:
 767:Core/Src/er_tft040.c ****     ER_TFT040_writeData(0x02);
 3510              		.loc 1 767 5 view .LVU745
 3511 14f4 A248     		ldr	r0, .L34+16
 3512 14f6 FFF7FEFF 		bl	ER_TFT040_writeCommand
 3513              	.LVL724:
 768:Core/Src/er_tft040.c ****     ER_TFT040_writeCommand(0xD61F);
 3514              		.loc 1 768 5 view .LVU746
 3515 14fa 0220     		movs	r0, #2
 3516 14fc FFF7FEFF 		bl	ER_TFT040_writeData
 3517              	.LVL725:
 769:Core/Src/er_tft040.c ****     ER_TFT040_writeData(0x5F);  //
 3518              		.loc 1 769 5 view .LVU747
 3519 1500 A048     		ldr	r0, .L34+20
 3520 1502 FFF7FEFF 		bl	ER_TFT040_writeCommand
 3521              	.LVL726:
 770:Core/Src/er_tft040.c ****     ER_TFT040_writeCommand(0xD620);
 3522              		.loc 1 770 5 view .LVU748
 3523 1506 5F20     		movs	r0, #95
 3524 1508 FFF7FEFF 		bl	ER_TFT040_writeData
 3525              	.LVL727:
 771:Core/Src/er_tft040.c ****     ER_TFT040_writeData(0x02);
 3526              		.loc 1 771 5 view .LVU749
 3527 150c 9E48     		ldr	r0, .L34+24
 3528 150e FFF7FEFF 		bl	ER_TFT040_writeCommand
 3529              	.LVL728:
 772:Core/Src/er_tft040.c ****     ER_TFT040_writeCommand(0xD621);
 3530              		.loc 1 772 5 view .LVU750
 3531 1512 0220     		movs	r0, #2
 3532 1514 FFF7FEFF 		bl	ER_TFT040_writeData
 3533              	.LVL729:
 773:Core/Src/er_tft040.c ****     ER_TFT040_writeData(0x78);
 3534              		.loc 1 773 5 view .LVU751
 3535 1518 9C48     		ldr	r0, .L34+28
 3536 151a FFF7FEFF 		bl	ER_TFT040_writeCommand
 3537              	.LVL730:
 774:Core/Src/er_tft040.c ****     ER_TFT040_writeCommand(0xD622);
 3538              		.loc 1 774 5 view .LVU752
 3539 151e 7820     		movs	r0, #120
 3540 1520 FFF7FEFF 		bl	ER_TFT040_writeData
 3541              	.LVL731:
 775:Core/Src/er_tft040.c ****     ER_TFT040_writeData(0x02);
 3542              		.loc 1 775 5 view .LVU753
 3543 1524 9A48     		ldr	r0, .L34+32
 3544 1526 FFF7FEFF 		bl	ER_TFT040_writeCommand
 3545              	.LVL732:
 776:Core/Src/er_tft040.c ****     ER_TFT040_writeCommand(0xD623);
 3546              		.loc 1 776 5 view .LVU754
 3547 152a 0220     		movs	r0, #2
 3548 152c FFF7FEFF 		bl	ER_TFT040_writeData
ARM GAS  /var/folders/_5/7dt5dlyd7598cb98063hl5tr0000gn/T//cc5bI3Gx.s 			page 91


 3549              	.LVL733:
 777:Core/Src/er_tft040.c ****     ER_TFT040_writeData(0x94);
 3550              		.loc 1 777 5 view .LVU755
 3551 1530 9848     		ldr	r0, .L34+36
 3552 1532 FFF7FEFF 		bl	ER_TFT040_writeCommand
 3553              	.LVL734:
 778:Core/Src/er_tft040.c ****     ER_TFT040_writeCommand(0xD624);
 3554              		.loc 1 778 5 view .LVU756
 3555 1536 9420     		movs	r0, #148
 3556 1538 FFF7FEFF 		bl	ER_TFT040_writeData
 3557              	.LVL735:
 779:Core/Src/er_tft040.c ****     ER_TFT040_writeData(0x02);
 3558              		.loc 1 779 5 view .LVU757
 3559 153c 9648     		ldr	r0, .L34+40
 3560 153e FFF7FEFF 		bl	ER_TFT040_writeCommand
 3561              	.LVL736:
 780:Core/Src/er_tft040.c ****     ER_TFT040_writeCommand(0xD625);
 3562              		.loc 1 780 5 view .LVU758
 3563 1542 0220     		movs	r0, #2
 3564 1544 FFF7FEFF 		bl	ER_TFT040_writeData
 3565              	.LVL737:
 781:Core/Src/er_tft040.c ****     ER_TFT040_writeData(0xA6);
 3566              		.loc 1 781 5 view .LVU759
 3567 1548 9448     		ldr	r0, .L34+44
 3568 154a FFF7FEFF 		bl	ER_TFT040_writeCommand
 3569              	.LVL738:
 782:Core/Src/er_tft040.c ****     ER_TFT040_writeCommand(0xD626);
 3570              		.loc 1 782 5 view .LVU760
 3571 154e A620     		movs	r0, #166
 3572 1550 FFF7FEFF 		bl	ER_TFT040_writeData
 3573              	.LVL739:
 783:Core/Src/er_tft040.c ****     ER_TFT040_writeData(0x02);
 3574              		.loc 1 783 5 view .LVU761
 3575 1554 9248     		ldr	r0, .L34+48
 3576 1556 FFF7FEFF 		bl	ER_TFT040_writeCommand
 3577              	.LVL740:
 784:Core/Src/er_tft040.c ****     ER_TFT040_writeCommand(0xD627);
 3578              		.loc 1 784 5 view .LVU762
 3579 155a 0220     		movs	r0, #2
 3580 155c FFF7FEFF 		bl	ER_TFT040_writeData
 3581              	.LVL741:
 785:Core/Src/er_tft040.c ****     ER_TFT040_writeData(0xBB);
 3582              		.loc 1 785 5 view .LVU763
 3583 1560 9048     		ldr	r0, .L34+52
 3584 1562 FFF7FEFF 		bl	ER_TFT040_writeCommand
 3585              	.LVL742:
 786:Core/Src/er_tft040.c ****     ER_TFT040_writeCommand(0xD628);
 3586              		.loc 1 786 5 view .LVU764
 3587 1566 BB20     		movs	r0, #187
 3588 1568 FFF7FEFF 		bl	ER_TFT040_writeData
 3589              	.LVL743:
 787:Core/Src/er_tft040.c ****     ER_TFT040_writeData(0x02);
 3590              		.loc 1 787 5 view .LVU765
 3591 156c 8E48     		ldr	r0, .L34+56
 3592 156e FFF7FEFF 		bl	ER_TFT040_writeCommand
 3593              	.LVL744:
 788:Core/Src/er_tft040.c ****     ER_TFT040_writeCommand(0xD629);
ARM GAS  /var/folders/_5/7dt5dlyd7598cb98063hl5tr0000gn/T//cc5bI3Gx.s 			page 92


 3594              		.loc 1 788 5 view .LVU766
 3595 1572 0220     		movs	r0, #2
 3596 1574 FFF7FEFF 		bl	ER_TFT040_writeData
 3597              	.LVL745:
 789:Core/Src/er_tft040.c ****     ER_TFT040_writeData(0xCA);
 3598              		.loc 1 789 5 view .LVU767
 3599 1578 8C48     		ldr	r0, .L34+60
 3600 157a FFF7FEFF 		bl	ER_TFT040_writeCommand
 3601              	.LVL746:
 790:Core/Src/er_tft040.c ****     ER_TFT040_writeCommand(0xD62A);
 3602              		.loc 1 790 5 view .LVU768
 3603 157e CA20     		movs	r0, #202
 3604 1580 FFF7FEFF 		bl	ER_TFT040_writeData
 3605              	.LVL747:
 791:Core/Src/er_tft040.c ****     ER_TFT040_writeData(0x02);
 3606              		.loc 1 791 5 view .LVU769
 3607 1584 8A48     		ldr	r0, .L34+64
 3608 1586 FFF7FEFF 		bl	ER_TFT040_writeCommand
 3609              	.LVL748:
 792:Core/Src/er_tft040.c ****     ER_TFT040_writeCommand(0xD62B);
 3610              		.loc 1 792 5 view .LVU770
 3611 158a 0220     		movs	r0, #2
 3612 158c FFF7FEFF 		bl	ER_TFT040_writeData
 3613              	.LVL749:
 793:Core/Src/er_tft040.c ****     ER_TFT040_writeData(0xDB);
 3614              		.loc 1 793 5 view .LVU771
 3615 1590 8848     		ldr	r0, .L34+68
 3616 1592 FFF7FEFF 		bl	ER_TFT040_writeCommand
 3617              	.LVL750:
 794:Core/Src/er_tft040.c ****     ER_TFT040_writeCommand(0xD62C);
 3618              		.loc 1 794 5 view .LVU772
 3619 1596 DB20     		movs	r0, #219
 3620 1598 FFF7FEFF 		bl	ER_TFT040_writeData
 3621              	.LVL751:
 795:Core/Src/er_tft040.c ****     ER_TFT040_writeData(0x02);
 3622              		.loc 1 795 5 view .LVU773
 3623 159c 8648     		ldr	r0, .L34+72
 3624 159e FFF7FEFF 		bl	ER_TFT040_writeCommand
 3625              	.LVL752:
 796:Core/Src/er_tft040.c ****     ER_TFT040_writeCommand(0xD62D);
 3626              		.loc 1 796 5 view .LVU774
 3627 15a2 0220     		movs	r0, #2
 3628 15a4 FFF7FEFF 		bl	ER_TFT040_writeData
 3629              	.LVL753:
 797:Core/Src/er_tft040.c ****     ER_TFT040_writeData(0xE8);
 3630              		.loc 1 797 5 view .LVU775
 3631 15a8 8448     		ldr	r0, .L34+76
 3632 15aa FFF7FEFF 		bl	ER_TFT040_writeCommand
 3633              	.LVL754:
 798:Core/Src/er_tft040.c ****     ER_TFT040_writeCommand(0xD62E);
 3634              		.loc 1 798 5 view .LVU776
 3635 15ae E820     		movs	r0, #232
 3636 15b0 FFF7FEFF 		bl	ER_TFT040_writeData
 3637              	.LVL755:
 799:Core/Src/er_tft040.c ****     ER_TFT040_writeData(0x02);
 3638              		.loc 1 799 5 view .LVU777
 3639 15b4 8248     		ldr	r0, .L34+80
ARM GAS  /var/folders/_5/7dt5dlyd7598cb98063hl5tr0000gn/T//cc5bI3Gx.s 			page 93


 3640 15b6 FFF7FEFF 		bl	ER_TFT040_writeCommand
 3641              	.LVL756:
 800:Core/Src/er_tft040.c ****     ER_TFT040_writeCommand(0xD62F);
 3642              		.loc 1 800 5 view .LVU778
 3643 15ba 0220     		movs	r0, #2
 3644 15bc FFF7FEFF 		bl	ER_TFT040_writeData
 3645              	.LVL757:
 801:Core/Src/er_tft040.c ****     ER_TFT040_writeData(0xF9);  //
 3646              		.loc 1 801 5 view .LVU779
 3647 15c0 8048     		ldr	r0, .L34+84
 3648 15c2 FFF7FEFF 		bl	ER_TFT040_writeCommand
 3649              	.LVL758:
 802:Core/Src/er_tft040.c ****     ER_TFT040_writeCommand(0xD630);
 3650              		.loc 1 802 5 view .LVU780
 3651 15c6 F920     		movs	r0, #249
 3652 15c8 FFF7FEFF 		bl	ER_TFT040_writeData
 3653              	.LVL759:
 803:Core/Src/er_tft040.c ****     ER_TFT040_writeData(0x03);
 3654              		.loc 1 803 5 view .LVU781
 3655 15cc 7E48     		ldr	r0, .L34+88
 3656 15ce FFF7FEFF 		bl	ER_TFT040_writeCommand
 3657              	.LVL760:
 804:Core/Src/er_tft040.c ****     ER_TFT040_writeCommand(0xD631);
 3658              		.loc 1 804 5 view .LVU782
 3659 15d2 0320     		movs	r0, #3
 3660 15d4 FFF7FEFF 		bl	ER_TFT040_writeData
 3661              	.LVL761:
 805:Core/Src/er_tft040.c ****     ER_TFT040_writeData(0x1F);
 3662              		.loc 1 805 5 view .LVU783
 3663 15d8 7C48     		ldr	r0, .L34+92
 3664 15da FFF7FEFF 		bl	ER_TFT040_writeCommand
 3665              	.LVL762:
 806:Core/Src/er_tft040.c ****     ER_TFT040_writeCommand(0xD632);
 3666              		.loc 1 806 5 view .LVU784
 3667 15de 1F20     		movs	r0, #31
 3668 15e0 FFF7FEFF 		bl	ER_TFT040_writeData
 3669              	.LVL763:
 807:Core/Src/er_tft040.c ****     ER_TFT040_writeData(0x03);
 3670              		.loc 1 807 5 view .LVU785
 3671 15e4 7A48     		ldr	r0, .L34+96
 3672 15e6 FFF7FEFF 		bl	ER_TFT040_writeCommand
 3673              	.LVL764:
 808:Core/Src/er_tft040.c ****     ER_TFT040_writeCommand(0xD633);
 3674              		.loc 1 808 5 view .LVU786
 3675 15ea 0320     		movs	r0, #3
 3676 15ec FFF7FEFF 		bl	ER_TFT040_writeData
 3677              	.LVL765:
 809:Core/Src/er_tft040.c ****     ER_TFT040_writeData(0x7F);
 3678              		.loc 1 809 5 view .LVU787
 3679 15f0 7848     		ldr	r0, .L34+100
 3680 15f2 FFF7FEFF 		bl	ER_TFT040_writeCommand
 3681              	.LVL766:
 810:Core/Src/er_tft040.c **** 
 3682              		.loc 1 810 5 view .LVU788
 3683 15f6 7F20     		movs	r0, #127
 3684 15f8 FFF7FEFF 		bl	ER_TFT040_writeData
 3685              	.LVL767:
ARM GAS  /var/folders/_5/7dt5dlyd7598cb98063hl5tr0000gn/T//cc5bI3Gx.s 			page 94


 813:Core/Src/er_tft040.c ****     ER_TFT040_writeData(0x55);
 3686              		.loc 1 813 5 view .LVU789
 3687 15fc F020     		movs	r0, #240
 3688 15fe 0002     		lsls	r0, r0, #8
 3689 1600 FFF7FEFF 		bl	ER_TFT040_writeCommand
 3690              	.LVL768:
 814:Core/Src/er_tft040.c ****     ER_TFT040_writeCommand(0xF001);
 3691              		.loc 1 814 5 view .LVU790
 3692 1604 5520     		movs	r0, #85
 3693 1606 FFF7FEFF 		bl	ER_TFT040_writeData
 3694              	.LVL769:
 815:Core/Src/er_tft040.c ****     ER_TFT040_writeData(0xAA);
 3695              		.loc 1 815 5 view .LVU791
 3696 160a 7348     		ldr	r0, .L34+104
 3697 160c FFF7FEFF 		bl	ER_TFT040_writeCommand
 3698              	.LVL770:
 816:Core/Src/er_tft040.c ****     ER_TFT040_writeCommand(0xF002);
 3699              		.loc 1 816 5 view .LVU792
 3700 1610 AA20     		movs	r0, #170
 3701 1612 FFF7FEFF 		bl	ER_TFT040_writeData
 3702              	.LVL771:
 817:Core/Src/er_tft040.c ****     ER_TFT040_writeData(0x52);
 3703              		.loc 1 817 5 view .LVU793
 3704 1616 7148     		ldr	r0, .L34+108
 3705 1618 FFF7FEFF 		bl	ER_TFT040_writeCommand
 3706              	.LVL772:
 818:Core/Src/er_tft040.c ****     ER_TFT040_writeCommand(0xF003);
 3707              		.loc 1 818 5 view .LVU794
 3708 161c 5220     		movs	r0, #82
 3709 161e FFF7FEFF 		bl	ER_TFT040_writeData
 3710              	.LVL773:
 819:Core/Src/er_tft040.c ****     ER_TFT040_writeData(0x08);
 3711              		.loc 1 819 5 view .LVU795
 3712 1622 6F48     		ldr	r0, .L34+112
 3713 1624 FFF7FEFF 		bl	ER_TFT040_writeCommand
 3714              	.LVL774:
 820:Core/Src/er_tft040.c ****     ER_TFT040_writeCommand(0xF004);
 3715              		.loc 1 820 5 view .LVU796
 3716 1628 0820     		movs	r0, #8
 3717 162a FFF7FEFF 		bl	ER_TFT040_writeData
 3718              	.LVL775:
 821:Core/Src/er_tft040.c ****     ER_TFT040_writeData(0x00);
 3719              		.loc 1 821 5 view .LVU797
 3720 162e 6D48     		ldr	r0, .L34+116
 3721 1630 FFF7FEFF 		bl	ER_TFT040_writeCommand
 3722              	.LVL776:
 822:Core/Src/er_tft040.c **** 
 3723              		.loc 1 822 5 view .LVU798
 3724 1634 0020     		movs	r0, #0
 3725 1636 FFF7FEFF 		bl	ER_TFT040_writeData
 3726              	.LVL777:
 825:Core/Src/er_tft040.c ****     ER_TFT040_writeData(0xCC);
 3727              		.loc 1 825 5 view .LVU799
 3728 163a B120     		movs	r0, #177
 3729 163c 0002     		lsls	r0, r0, #8
 3730 163e FFF7FEFF 		bl	ER_TFT040_writeCommand
 3731              	.LVL778:
ARM GAS  /var/folders/_5/7dt5dlyd7598cb98063hl5tr0000gn/T//cc5bI3Gx.s 			page 95


 826:Core/Src/er_tft040.c ****     ER_TFT040_writeCommand(0xB101);
 3732              		.loc 1 826 5 view .LVU800
 3733 1642 CC20     		movs	r0, #204
 3734 1644 FFF7FEFF 		bl	ER_TFT040_writeData
 3735              	.LVL779:
 827:Core/Src/er_tft040.c ****     ER_TFT040_writeData(0x00);
 3736              		.loc 1 827 5 view .LVU801
 3737 1648 6748     		ldr	r0, .L34+120
 3738 164a FFF7FEFF 		bl	ER_TFT040_writeCommand
 3739              	.LVL780:
 828:Core/Src/er_tft040.c **** 
 3740              		.loc 1 828 5 view .LVU802
 3741 164e 0020     		movs	r0, #0
 3742 1650 FFF7FEFF 		bl	ER_TFT040_writeData
 3743              	.LVL781:
 830:Core/Src/er_tft040.c ****     ER_TFT040_writeData(0x50);
 3744              		.loc 1 830 5 view .LVU803
 3745 1654 B520     		movs	r0, #181
 3746 1656 0002     		lsls	r0, r0, #8
 3747 1658 FFF7FEFF 		bl	ER_TFT040_writeCommand
 3748              	.LVL782:
 831:Core/Src/er_tft040.c **** 
 3749              		.loc 1 831 5 view .LVU804
 3750 165c 5020     		movs	r0, #80
 3751 165e FFF7FEFF 		bl	ER_TFT040_writeData
 3752              	.LVL783:
 834:Core/Src/er_tft040.c ****     ER_TFT040_writeData(0x05);
 3753              		.loc 1 834 5 view .LVU805
 3754 1662 B620     		movs	r0, #182
 3755 1664 0002     		lsls	r0, r0, #8
 3756 1666 FFF7FEFF 		bl	ER_TFT040_writeCommand
 3757              	.LVL784:
 835:Core/Src/er_tft040.c **** 
 3758              		.loc 1 835 5 view .LVU806
 3759 166a 0520     		movs	r0, #5
 3760 166c FFF7FEFF 		bl	ER_TFT040_writeData
 3761              	.LVL785:
 838:Core/Src/er_tft040.c ****     ER_TFT040_writeData(0x70);
 3762              		.loc 1 838 5 view .LVU807
 3763 1670 B720     		movs	r0, #183
 3764 1672 0002     		lsls	r0, r0, #8
 3765 1674 FFF7FEFF 		bl	ER_TFT040_writeCommand
 3766              	.LVL786:
 839:Core/Src/er_tft040.c ****     ER_TFT040_writeCommand(0xB701);
 3767              		.loc 1 839 5 view .LVU808
 3768 1678 7020     		movs	r0, #112
 3769 167a FFF7FEFF 		bl	ER_TFT040_writeData
 3770              	.LVL787:
 840:Core/Src/er_tft040.c ****     ER_TFT040_writeData(0x70);
 3771              		.loc 1 840 5 view .LVU809
 3772 167e 5B48     		ldr	r0, .L34+124
 3773 1680 FFF7FEFF 		bl	ER_TFT040_writeCommand
 3774              	.LVL788:
 841:Core/Src/er_tft040.c **** 
 3775              		.loc 1 841 5 view .LVU810
 3776 1684 7020     		movs	r0, #112
 3777 1686 FFF7FEFF 		bl	ER_TFT040_writeData
ARM GAS  /var/folders/_5/7dt5dlyd7598cb98063hl5tr0000gn/T//cc5bI3Gx.s 			page 96


 3778              	.LVL789:
 844:Core/Src/er_tft040.c ****     ER_TFT040_writeData(0x01);
 3779              		.loc 1 844 5 view .LVU811
 3780 168a B820     		movs	r0, #184
 3781 168c 0002     		lsls	r0, r0, #8
 3782 168e FFF7FEFF 		bl	ER_TFT040_writeCommand
 3783              	.LVL790:
 845:Core/Src/er_tft040.c ****     ER_TFT040_writeCommand(0xB801);
 3784              		.loc 1 845 5 view .LVU812
 3785 1692 0120     		movs	r0, #1
 3786 1694 FFF7FEFF 		bl	ER_TFT040_writeData
 3787              	.LVL791:
 846:Core/Src/er_tft040.c ****     ER_TFT040_writeData(0x03);
 3788              		.loc 1 846 5 view .LVU813
 3789 1698 5548     		ldr	r0, .L34+128
 3790 169a FFF7FEFF 		bl	ER_TFT040_writeCommand
 3791              	.LVL792:
 847:Core/Src/er_tft040.c ****     ER_TFT040_writeCommand(0xB802);
 3792              		.loc 1 847 5 view .LVU814
 3793 169e 0320     		movs	r0, #3
 3794 16a0 FFF7FEFF 		bl	ER_TFT040_writeData
 3795              	.LVL793:
 848:Core/Src/er_tft040.c ****     ER_TFT040_writeData(0x03);
 3796              		.loc 1 848 5 view .LVU815
 3797 16a4 5348     		ldr	r0, .L34+132
 3798 16a6 FFF7FEFF 		bl	ER_TFT040_writeCommand
 3799              	.LVL794:
 849:Core/Src/er_tft040.c ****     ER_TFT040_writeCommand(0xB803);
 3800              		.loc 1 849 5 view .LVU816
 3801 16aa 0320     		movs	r0, #3
 3802 16ac FFF7FEFF 		bl	ER_TFT040_writeData
 3803              	.LVL795:
 850:Core/Src/er_tft040.c ****     ER_TFT040_writeData(0x03);
 3804              		.loc 1 850 5 view .LVU817
 3805 16b0 5148     		ldr	r0, .L34+136
 3806 16b2 FFF7FEFF 		bl	ER_TFT040_writeCommand
 3807              	.LVL796:
 851:Core/Src/er_tft040.c **** 
 3808              		.loc 1 851 5 view .LVU818
 3809 16b6 0320     		movs	r0, #3
 3810 16b8 FFF7FEFF 		bl	ER_TFT040_writeData
 3811              	.LVL797:
 854:Core/Src/er_tft040.c ****     ER_TFT040_writeData(0x02);
 3812              		.loc 1 854 5 view .LVU819
 3813 16bc BC20     		movs	r0, #188
 3814 16be 0002     		lsls	r0, r0, #8
 3815 16c0 FFF7FEFF 		bl	ER_TFT040_writeCommand
 3816              	.LVL798:
 855:Core/Src/er_tft040.c ****     ER_TFT040_writeCommand(0xBC01);
 3817              		.loc 1 855 5 view .LVU820
 3818 16c4 0220     		movs	r0, #2
 3819 16c6 FFF7FEFF 		bl	ER_TFT040_writeData
 3820              	.LVL799:
 856:Core/Src/er_tft040.c ****     ER_TFT040_writeData(0x00);
 3821              		.loc 1 856 5 view .LVU821
 3822 16ca 4C48     		ldr	r0, .L34+140
 3823 16cc FFF7FEFF 		bl	ER_TFT040_writeCommand
ARM GAS  /var/folders/_5/7dt5dlyd7598cb98063hl5tr0000gn/T//cc5bI3Gx.s 			page 97


 3824              	.LVL800:
 857:Core/Src/er_tft040.c ****     ER_TFT040_writeCommand(0xBC02);
 3825              		.loc 1 857 5 view .LVU822
 3826 16d0 0020     		movs	r0, #0
 3827 16d2 FFF7FEFF 		bl	ER_TFT040_writeData
 3828              	.LVL801:
 858:Core/Src/er_tft040.c ****     ER_TFT040_writeData(0x00);
 3829              		.loc 1 858 5 view .LVU823
 3830 16d6 4A48     		ldr	r0, .L34+144
 3831 16d8 FFF7FEFF 		bl	ER_TFT040_writeCommand
 3832              	.LVL802:
 859:Core/Src/er_tft040.c **** 
 3833              		.loc 1 859 5 view .LVU824
 3834 16dc 0020     		movs	r0, #0
 3835 16de FFF7FEFF 		bl	ER_TFT040_writeData
 3836              	.LVL803:
 862:Core/Src/er_tft040.c ****     ER_TFT040_writeData(0xD0);
 3837              		.loc 1 862 5 view .LVU825
 3838 16e2 C920     		movs	r0, #201
 3839 16e4 0002     		lsls	r0, r0, #8
 3840 16e6 FFF7FEFF 		bl	ER_TFT040_writeCommand
 3841              	.LVL804:
 863:Core/Src/er_tft040.c ****     ER_TFT040_writeCommand(0xC901);
 3842              		.loc 1 863 5 view .LVU826
 3843 16ea D020     		movs	r0, #208
 3844 16ec FFF7FEFF 		bl	ER_TFT040_writeData
 3845              	.LVL805:
 864:Core/Src/er_tft040.c ****     ER_TFT040_writeData(0x02);
 3846              		.loc 1 864 5 view .LVU827
 3847 16f0 4448     		ldr	r0, .L34+148
 3848 16f2 FFF7FEFF 		bl	ER_TFT040_writeCommand
 3849              	.LVL806:
 865:Core/Src/er_tft040.c ****     ER_TFT040_writeCommand(0xC902);
 3850              		.loc 1 865 5 view .LVU828
 3851 16f6 0220     		movs	r0, #2
 3852 16f8 FFF7FEFF 		bl	ER_TFT040_writeData
 3853              	.LVL807:
 866:Core/Src/er_tft040.c ****     ER_TFT040_writeData(0x50);
 3854              		.loc 1 866 5 view .LVU829
 3855 16fc 4248     		ldr	r0, .L34+152
 3856 16fe FFF7FEFF 		bl	ER_TFT040_writeCommand
 3857              	.LVL808:
 867:Core/Src/er_tft040.c ****     ER_TFT040_writeCommand(0xC903);
 3858              		.loc 1 867 5 view .LVU830
 3859 1702 5020     		movs	r0, #80
 3860 1704 FFF7FEFF 		bl	ER_TFT040_writeData
 3861              	.LVL809:
 868:Core/Src/er_tft040.c ****     ER_TFT040_writeData(0x50);
 3862              		.loc 1 868 5 view .LVU831
 3863 1708 4048     		ldr	r0, .L34+156
 3864 170a FFF7FEFF 		bl	ER_TFT040_writeCommand
 3865              	.LVL810:
 869:Core/Src/er_tft040.c ****     ER_TFT040_writeCommand(0xC904);
 3866              		.loc 1 869 5 view .LVU832
 3867 170e 5020     		movs	r0, #80
 3868 1710 FFF7FEFF 		bl	ER_TFT040_writeData
 3869              	.LVL811:
ARM GAS  /var/folders/_5/7dt5dlyd7598cb98063hl5tr0000gn/T//cc5bI3Gx.s 			page 98


 870:Core/Src/er_tft040.c ****     ER_TFT040_writeData(0x50);
 3870              		.loc 1 870 5 view .LVU833
 3871 1714 3E48     		ldr	r0, .L34+160
 3872 1716 FFF7FEFF 		bl	ER_TFT040_writeCommand
 3873              	.LVL812:
 871:Core/Src/er_tft040.c **** 
 3874              		.loc 1 871 5 view .LVU834
 3875 171a 5020     		movs	r0, #80
 3876 171c FFF7FEFF 		bl	ER_TFT040_writeData
 3877              	.LVL813:
 873:Core/Src/er_tft040.c ****     ER_TFT040_writeData(0x00);
 3878              		.loc 1 873 5 view .LVU835
 3879 1720 D420     		movs	r0, #212
 3880 1722 8001     		lsls	r0, r0, #6
 3881 1724 FFF7FEFF 		bl	ER_TFT040_writeCommand
 3882              	.LVL814:
 874:Core/Src/er_tft040.c **** 
 3883              		.loc 1 874 5 view .LVU836
 3884 1728 0020     		movs	r0, #0
 3885 172a FFF7FEFF 		bl	ER_TFT040_writeData
 3886              	.LVL815:
 876:Core/Src/er_tft040.c ****     ER_TFT040_writeData(0x55);  // Data format 16-Bits
 3887              		.loc 1 876 5 view .LVU837
 3888 172e E820     		movs	r0, #232
 3889 1730 8001     		lsls	r0, r0, #6
 3890 1732 FFF7FEFF 		bl	ER_TFT040_writeCommand
 3891              	.LVL816:
 877:Core/Src/er_tft040.c ****     ER_TFT040_writeCommand(0x3600);
 3892              		.loc 1 877 5 view .LVU838
 3893 1736 5520     		movs	r0, #85
 3894 1738 FFF7FEFF 		bl	ER_TFT040_writeData
 3895              	.LVL817:
 878:Core/Src/er_tft040.c ****     ER_TFT040_writeData(0x00);
 3896              		.loc 1 878 5 view .LVU839
 3897 173c D820     		movs	r0, #216
 3898 173e 8001     		lsls	r0, r0, #6
 3899 1740 FFF7FEFF 		bl	ER_TFT040_writeCommand
 3900              	.LVL818:
 879:Core/Src/er_tft040.c **** 
 3901              		.loc 1 879 5 view .LVU840
 3902 1744 0020     		movs	r0, #0
 3903 1746 FFF7FEFF 		bl	ER_TFT040_writeData
 3904              	.LVL819:
 881:Core/Src/er_tft040.c **** 
 3905              		.loc 1 881 5 view .LVU841
 3906 174a 8820     		movs	r0, #136
 3907 174c 4001     		lsls	r0, r0, #5
 3908 174e FFF7FEFF 		bl	ER_TFT040_writeCommand
 3909              	.LVL820:
 883:Core/Src/er_tft040.c **** 
 3910              		.loc 1 883 5 view .LVU842
 3911 1752 7820     		movs	r0, #120
 3912 1754 FFF7FEFF 		bl	HAL_Delay
 3913              	.LVL821:
 885:Core/Src/er_tft040.c **** 
 3914              		.loc 1 885 5 view .LVU843
 3915 1758 0020     		movs	r0, #0
ARM GAS  /var/folders/_5/7dt5dlyd7598cb98063hl5tr0000gn/T//cc5bI3Gx.s 			page 99


 3916 175a FFF7FEFF 		bl	ER_TFT040_clearLCD
 3917              	.LVL822:
 887:Core/Src/er_tft040.c ****     HAL_Delay(100);
 3918              		.loc 1 887 5 view .LVU844
 3919 175e A420     		movs	r0, #164
 3920 1760 8001     		lsls	r0, r0, #6
 3921 1762 FFF7FEFF 		bl	ER_TFT040_writeCommand
 3922              	.LVL823:
 888:Core/Src/er_tft040.c **** }
 3923              		.loc 1 888 5 view .LVU845
 3924 1766 6420     		movs	r0, #100
 3925 1768 FFF7FEFF 		bl	HAL_Delay
 3926              	.LVL824:
 889:Core/Src/er_tft040.c **** 
 3927              		.loc 1 889 1 is_stmt 0 view .LVU846
 3928              		@ sp needed
 3929 176c 10BD     		pop	{r4, pc}
 3930              	.L35:
 3931 176e C046     		.align	2
 3932              	.L34:
 3933 1770 1AD60000 		.word	54810
 3934 1774 1BD60000 		.word	54811
 3935 1778 1CD60000 		.word	54812
 3936 177c 1DD60000 		.word	54813
 3937 1780 1ED60000 		.word	54814
 3938 1784 1FD60000 		.word	54815
 3939 1788 20D60000 		.word	54816
 3940 178c 21D60000 		.word	54817
 3941 1790 22D60000 		.word	54818
 3942 1794 23D60000 		.word	54819
 3943 1798 24D60000 		.word	54820
 3944 179c 25D60000 		.word	54821
 3945 17a0 26D60000 		.word	54822
 3946 17a4 27D60000 		.word	54823
 3947 17a8 28D60000 		.word	54824
 3948 17ac 29D60000 		.word	54825
 3949 17b0 2AD60000 		.word	54826
 3950 17b4 2BD60000 		.word	54827
 3951 17b8 2CD60000 		.word	54828
 3952 17bc 2DD60000 		.word	54829
 3953 17c0 2ED60000 		.word	54830
 3954 17c4 2FD60000 		.word	54831
 3955 17c8 30D60000 		.word	54832
 3956 17cc 31D60000 		.word	54833
 3957 17d0 32D60000 		.word	54834
 3958 17d4 33D60000 		.word	54835
 3959 17d8 01F00000 		.word	61441
 3960 17dc 02F00000 		.word	61442
 3961 17e0 03F00000 		.word	61443
 3962 17e4 04F00000 		.word	61444
 3963 17e8 01B10000 		.word	45313
 3964 17ec 01B70000 		.word	46849
 3965 17f0 01B80000 		.word	47105
 3966 17f4 02B80000 		.word	47106
 3967 17f8 03B80000 		.word	47107
 3968 17fc 01BC0000 		.word	48129
 3969 1800 02BC0000 		.word	48130
ARM GAS  /var/folders/_5/7dt5dlyd7598cb98063hl5tr0000gn/T//cc5bI3Gx.s 			page 100


 3970 1804 01C90000 		.word	51457
 3971 1808 02C90000 		.word	51458
 3972 180c 03C90000 		.word	51459
 3973 1810 04C90000 		.word	51460
 3974              		.cfi_endproc
 3975              	.LFE44:
 3977              		.section	.text.ER_TFT040_drawCharacter,"ax",%progbits
 3978              		.align	1
 3979              		.global	ER_TFT040_drawCharacter
 3980              		.syntax unified
 3981              		.code	16
 3982              		.thumb_func
 3984              	ER_TFT040_drawCharacter:
 3985              	.LVL825:
 3986              	.LFB46:
 900:Core/Src/er_tft040.c **** 
 901:Core/Src/er_tft040.c **** void ER_TFT040_drawCharacter(uint8_t *font, uint8_t character, uint16_t x, uint16_t y, uint16_t fon
 902:Core/Src/er_tft040.c ****                              uint16_t bgcolor) {
 3987              		.loc 1 902 48 is_stmt 1 view -0
 3988              		.cfi_startproc
 3989              		@ args = 8, pretend = 0, frame = 0
 3990              		@ frame_needed = 0, uses_anonymous_args = 0
 3991              		.loc 1 902 48 is_stmt 0 view .LVU848
 3992 0000 F0B5     		push	{r4, r5, r6, r7, lr}
 3993              		.cfi_def_cfa_offset 20
 3994              		.cfi_offset 4, -20
 3995              		.cfi_offset 5, -16
 3996              		.cfi_offset 6, -12
 3997              		.cfi_offset 7, -8
 3998              		.cfi_offset 14, -4
 3999 0002 C646     		mov	lr, r8
 4000 0004 00B5     		push	{lr}
 4001              		.cfi_def_cfa_offset 24
 4002              		.cfi_offset 8, -24
 4003 0006 0500     		movs	r5, r0
 4004 0008 0C00     		movs	r4, r1
 4005 000a 1000     		movs	r0, r2
 4006              	.LVL826:
 4007              		.loc 1 902 48 view .LVU849
 4008 000c 1A00     		movs	r2, r3
 4009              	.LVL827:
 4010              		.loc 1 902 48 view .LVU850
 4011 000e 06AB     		add	r3, sp, #24
 4012              	.LVL828:
 4013              		.loc 1 902 48 view .LVU851
 4014 0010 1B88     		ldrh	r3, [r3]
 4015              	.LVL829:
 4016              		.loc 1 902 48 view .LVU852
 4017 0012 9846     		mov	r8, r3
 4018 0014 07AB     		add	r3, sp, #28
 4019              	.LVL830:
 4020              		.loc 1 902 48 view .LVU853
 4021 0016 1F88     		ldrh	r7, [r3]
 903:Core/Src/er_tft040.c ****     uint8_t i, j;
 4022              		.loc 1 903 5 is_stmt 1 view .LVU854
 904:Core/Src/er_tft040.c ****     uint8_t *temp = font;
 4023              		.loc 1 904 5 view .LVU855
ARM GAS  /var/folders/_5/7dt5dlyd7598cb98063hl5tr0000gn/T//cc5bI3Gx.s 			page 101


 4024              	.LVL831:
 905:Core/Src/er_tft040.c **** 
 906:Core/Src/er_tft040.c ****     ER_TFT040_setCursor(x, x + 7, y, y + 11);
 4025              		.loc 1 906 5 view .LVU856
 4026 0018 1300     		movs	r3, r2
 4027              	.LVL832:
 4028              		.loc 1 906 5 is_stmt 0 view .LVU857
 4029 001a 0B33     		adds	r3, r3, #11
 4030 001c 9BB2     		uxth	r3, r3
 4031 001e C11D     		adds	r1, r0, #7
 4032              	.LVL833:
 4033              		.loc 1 906 5 view .LVU858
 4034 0020 89B2     		uxth	r1, r1
 4035 0022 FFF7FEFF 		bl	ER_TFT040_setCursor
 4036              	.LVL834:
 907:Core/Src/er_tft040.c ****     temp += (character - 32) * 12;
 4037              		.loc 1 907 5 is_stmt 1 view .LVU859
 4038              		.loc 1 907 24 is_stmt 0 view .LVU860
 4039 0026 203C     		subs	r4, r4, #32
 4040              		.loc 1 907 30 view .LVU861
 4041 0028 6300     		lsls	r3, r4, #1
 4042 002a 1B19     		adds	r3, r3, r4
 4043 002c 9B00     		lsls	r3, r3, #2
 4044              		.loc 1 907 10 view .LVU862
 4045 002e ED18     		adds	r5, r5, r3
 4046              	.LVL835:
 908:Core/Src/er_tft040.c ****     for (j = 0; j < 12; j++) {
 4047              		.loc 1 908 5 is_stmt 1 view .LVU863
 4048              		.loc 1 908 12 is_stmt 0 view .LVU864
 4049 0030 0026     		movs	r6, #0
 4050              		.loc 1 908 5 view .LVU865
 4051 0032 13E0     		b	.L37
 4052              	.LVL836:
 4053              	.L38:
 909:Core/Src/er_tft040.c ****         for (i = 0; i < 8; i++) {
 910:Core/Src/er_tft040.c ****             if ((*temp & (1 << (7 - i))) != 0) {
 911:Core/Src/er_tft040.c ****                 ER_TFT040_writeData(fontColor);
 912:Core/Src/er_tft040.c ****             } else {
 913:Core/Src/er_tft040.c ****                 ER_TFT040_writeData(bgcolor);
 4054              		.loc 1 913 17 is_stmt 1 view .LVU866
 4055 0034 3800     		movs	r0, r7
 4056 0036 FFF7FEFF 		bl	ER_TFT040_writeData
 4057              	.LVL837:
 4058              	.L39:
 909:Core/Src/er_tft040.c ****         for (i = 0; i < 8; i++) {
 4059              		.loc 1 909 29 discriminator 2 view .LVU867
 4060 003a 0134     		adds	r4, r4, #1
 4061              	.LVL838:
 909:Core/Src/er_tft040.c ****         for (i = 0; i < 8; i++) {
 4062              		.loc 1 909 29 is_stmt 0 discriminator 2 view .LVU868
 4063 003c E4B2     		uxtb	r4, r4
 4064              	.LVL839:
 4065              	.L41:
 909:Core/Src/er_tft040.c ****         for (i = 0; i < 8; i++) {
 4066              		.loc 1 909 23 is_stmt 1 discriminator 1 view .LVU869
 4067 003e 072C     		cmp	r4, #7
 4068 0040 09D8     		bhi	.L43
ARM GAS  /var/folders/_5/7dt5dlyd7598cb98063hl5tr0000gn/T//cc5bI3Gx.s 			page 102


 910:Core/Src/er_tft040.c ****                 ER_TFT040_writeData(fontColor);
 4069              		.loc 1 910 13 view .LVU870
 910:Core/Src/er_tft040.c ****                 ER_TFT040_writeData(fontColor);
 4070              		.loc 1 910 18 is_stmt 0 view .LVU871
 4071 0042 2B78     		ldrb	r3, [r5]
 910:Core/Src/er_tft040.c ****                 ER_TFT040_writeData(fontColor);
 4072              		.loc 1 910 35 view .LVU872
 4073 0044 0722     		movs	r2, #7
 4074 0046 121B     		subs	r2, r2, r4
 910:Core/Src/er_tft040.c ****                 ER_TFT040_writeData(fontColor);
 4075              		.loc 1 910 42 view .LVU873
 4076 0048 1341     		asrs	r3, r3, r2
 910:Core/Src/er_tft040.c ****                 ER_TFT040_writeData(fontColor);
 4077              		.loc 1 910 16 view .LVU874
 4078 004a DB07     		lsls	r3, r3, #31
 4079 004c F2D5     		bpl	.L38
 911:Core/Src/er_tft040.c ****             } else {
 4080              		.loc 1 911 17 is_stmt 1 view .LVU875
 4081 004e 4046     		mov	r0, r8
 4082 0050 FFF7FEFF 		bl	ER_TFT040_writeData
 4083              	.LVL840:
 4084 0054 F1E7     		b	.L39
 4085              	.L43:
 914:Core/Src/er_tft040.c ****             }
 915:Core/Src/er_tft040.c ****         }
 916:Core/Src/er_tft040.c ****         temp++;
 4086              		.loc 1 916 9 discriminator 2 view .LVU876
 4087              		.loc 1 916 13 is_stmt 0 discriminator 2 view .LVU877
 4088 0056 0135     		adds	r5, r5, #1
 4089              	.LVL841:
 908:Core/Src/er_tft040.c ****         for (i = 0; i < 8; i++) {
 4090              		.loc 1 908 26 is_stmt 1 discriminator 2 view .LVU878
 4091 0058 0136     		adds	r6, r6, #1
 4092              	.LVL842:
 908:Core/Src/er_tft040.c ****         for (i = 0; i < 8; i++) {
 4093              		.loc 1 908 26 is_stmt 0 discriminator 2 view .LVU879
 4094 005a F6B2     		uxtb	r6, r6
 4095              	.LVL843:
 4096              	.L37:
 908:Core/Src/er_tft040.c ****         for (i = 0; i < 8; i++) {
 4097              		.loc 1 908 19 is_stmt 1 discriminator 1 view .LVU880
 4098 005c 0B2E     		cmp	r6, #11
 4099 005e 01D8     		bhi	.L44
 909:Core/Src/er_tft040.c ****             if ((*temp & (1 << (7 - i))) != 0) {
 4100              		.loc 1 909 16 is_stmt 0 view .LVU881
 4101 0060 0024     		movs	r4, #0
 4102 0062 ECE7     		b	.L41
 4103              	.L44:
 917:Core/Src/er_tft040.c ****     }
 918:Core/Src/er_tft040.c **** }
 4104              		.loc 1 918 1 view .LVU882
 4105              		@ sp needed
 4106              	.LVL844:
 4107              	.LVL845:
 4108              		.loc 1 918 1 view .LVU883
 4109 0064 80BC     		pop	{r7}
 4110 0066 B846     		mov	r8, r7
ARM GAS  /var/folders/_5/7dt5dlyd7598cb98063hl5tr0000gn/T//cc5bI3Gx.s 			page 103


 4111 0068 F0BD     		pop	{r4, r5, r6, r7, pc}
 4112              		.cfi_endproc
 4113              	.LFE46:
 4115              		.section	.text.ER_TFT040_drawText,"ax",%progbits
 4116              		.align	1
 4117              		.global	ER_TFT040_drawText
 4118              		.syntax unified
 4119              		.code	16
 4120              		.thumb_func
 4122              	ER_TFT040_drawText:
 4123              	.LVL846:
 4124              	.LFB47:
 919:Core/Src/er_tft040.c **** 
 920:Core/Src/er_tft040.c **** void ER_TFT040_drawText(uint8_t *font, uint8_t *str, uint16_t x, uint16_t y, uint16_t fontColor, ui
 4125              		.loc 1 920 116 is_stmt 1 view -0
 4126              		.cfi_startproc
 4127              		@ args = 8, pretend = 0, frame = 0
 4128              		@ frame_needed = 0, uses_anonymous_args = 0
 4129              		.loc 1 920 116 is_stmt 0 view .LVU885
 4130 0000 F0B5     		push	{r4, r5, r6, r7, lr}
 4131              		.cfi_def_cfa_offset 20
 4132              		.cfi_offset 4, -20
 4133              		.cfi_offset 5, -16
 4134              		.cfi_offset 6, -12
 4135              		.cfi_offset 7, -8
 4136              		.cfi_offset 14, -4
 4137 0002 CE46     		mov	lr, r9
 4138 0004 4746     		mov	r7, r8
 4139 0006 80B5     		push	{r7, lr}
 4140              		.cfi_def_cfa_offset 28
 4141              		.cfi_offset 8, -28
 4142              		.cfi_offset 9, -24
 4143 0008 83B0     		sub	sp, sp, #12
 4144              		.cfi_def_cfa_offset 40
 4145 000a 0700     		movs	r7, r0
 4146 000c 0C00     		movs	r4, r1
 4147 000e 1E00     		movs	r6, r3
 4148 0010 0AAB     		add	r3, sp, #40
 4149              	.LVL847:
 4150              		.loc 1 920 116 view .LVU886
 4151 0012 1B88     		ldrh	r3, [r3]
 4152              	.LVL848:
 4153              		.loc 1 920 116 view .LVU887
 4154 0014 9946     		mov	r9, r3
 4155 0016 0BAB     		add	r3, sp, #44
 4156              	.LVL849:
 4157              		.loc 1 920 116 view .LVU888
 4158 0018 1B88     		ldrh	r3, [r3]
 4159              	.LVL850:
 4160              		.loc 1 920 116 view .LVU889
 4161 001a 9846     		mov	r8, r3
 921:Core/Src/er_tft040.c ****     unsigned int x1, y1;
 4162              		.loc 1 921 5 is_stmt 1 view .LVU890
 922:Core/Src/er_tft040.c ****     x1 = x;
 4163              		.loc 1 922 5 view .LVU891
 4164              		.loc 1 922 8 is_stmt 0 view .LVU892
 4165 001c 1500     		movs	r5, r2
ARM GAS  /var/folders/_5/7dt5dlyd7598cb98063hl5tr0000gn/T//cc5bI3Gx.s 			page 104


 4166              	.LVL851:
 923:Core/Src/er_tft040.c ****     y1 = y;
 4167              		.loc 1 923 5 is_stmt 1 view .LVU893
 924:Core/Src/er_tft040.c ****     while (*str != '\0') {
 4168              		.loc 1 924 5 view .LVU894
 4169              		.loc 1 924 11 is_stmt 0 view .LVU895
 4170 001e 0AE0     		b	.L46
 4171              	.LVL852:
 4172              	.L47:
 925:Core/Src/er_tft040.c ****         ER_TFT040_drawCharacter(font, *str, x1, y1, fontColor, bgcolor);
 4173              		.loc 1 925 9 is_stmt 1 view .LVU896
 4174 0020 AAB2     		uxth	r2, r5
 4175 0022 4346     		mov	r3, r8
 4176 0024 0193     		str	r3, [sp, #4]
 4177 0026 4B46     		mov	r3, r9
 4178 0028 0093     		str	r3, [sp]
 4179 002a 3300     		movs	r3, r6
 4180 002c 3800     		movs	r0, r7
 4181 002e FFF7FEFF 		bl	ER_TFT040_drawCharacter
 4182              	.LVL853:
 926:Core/Src/er_tft040.c ****         x1 += 7;
 4183              		.loc 1 926 9 view .LVU897
 4184              		.loc 1 926 12 is_stmt 0 view .LVU898
 4185 0032 0735     		adds	r5, r5, #7
 4186              	.LVL854:
 927:Core/Src/er_tft040.c ****         str++;
 4187              		.loc 1 927 9 is_stmt 1 view .LVU899
 4188              		.loc 1 927 12 is_stmt 0 view .LVU900
 4189 0034 0134     		adds	r4, r4, #1
 4190              	.LVL855:
 4191              	.L46:
 924:Core/Src/er_tft040.c ****         ER_TFT040_drawCharacter(font, *str, x1, y1, fontColor, bgcolor);
 4192              		.loc 1 924 17 is_stmt 1 view .LVU901
 924:Core/Src/er_tft040.c ****         ER_TFT040_drawCharacter(font, *str, x1, y1, fontColor, bgcolor);
 4193              		.loc 1 924 12 is_stmt 0 view .LVU902
 4194 0036 2178     		ldrb	r1, [r4]
 924:Core/Src/er_tft040.c ****         ER_TFT040_drawCharacter(font, *str, x1, y1, fontColor, bgcolor);
 4195              		.loc 1 924 17 view .LVU903
 4196 0038 0029     		cmp	r1, #0
 4197 003a F1D1     		bne	.L47
 928:Core/Src/er_tft040.c ****     }
 929:Core/Src/er_tft040.c **** }
 4198              		.loc 1 929 1 view .LVU904
 4199 003c 03B0     		add	sp, sp, #12
 4200              		@ sp needed
 4201              	.LVL856:
 4202              	.LVL857:
 4203              	.LVL858:
 4204              	.LVL859:
 4205              		.loc 1 929 1 view .LVU905
 4206 003e C0BC     		pop	{r6, r7}
 4207 0040 B946     		mov	r9, r7
 4208 0042 B046     		mov	r8, r6
 4209 0044 F0BD     		pop	{r4, r5, r6, r7, pc}
 4210              		.cfi_endproc
 4211              	.LFE47:
 4213              		.section	.text.ER_TFT040_drawPicture,"ax",%progbits
ARM GAS  /var/folders/_5/7dt5dlyd7598cb98063hl5tr0000gn/T//cc5bI3Gx.s 			page 105


 4214              		.align	1
 4215              		.global	ER_TFT040_drawPicture
 4216              		.syntax unified
 4217              		.code	16
 4218              		.thumb_func
 4220              	ER_TFT040_drawPicture:
 4221              	.LVL860:
 4222              	.LFB48:
 930:Core/Src/er_tft040.c **** 
 931:Core/Src/er_tft040.c **** void ER_TFT040_drawPicture(uint16_t x, uint16_t y, uint16_t width, uint16_t height, uint8_t picture
 4223              		.loc 1 931 104 is_stmt 1 view -0
 4224              		.cfi_startproc
 4225              		@ args = 4, pretend = 0, frame = 0
 4226              		@ frame_needed = 0, uses_anonymous_args = 0
 4227              		.loc 1 931 104 is_stmt 0 view .LVU907
 4228 0000 F0B5     		push	{r4, r5, r6, r7, lr}
 4229              		.cfi_def_cfa_offset 20
 4230              		.cfi_offset 4, -20
 4231              		.cfi_offset 5, -16
 4232              		.cfi_offset 6, -12
 4233              		.cfi_offset 7, -8
 4234              		.cfi_offset 14, -4
 4235 0002 D646     		mov	lr, r10
 4236 0004 4F46     		mov	r7, r9
 4237 0006 4646     		mov	r6, r8
 4238 0008 C0B5     		push	{r6, r7, lr}
 4239              		.cfi_def_cfa_offset 32
 4240              		.cfi_offset 8, -32
 4241              		.cfi_offset 9, -28
 4242              		.cfi_offset 10, -24
 4243 000a 8046     		mov	r8, r0
 4244 000c 8A46     		mov	r10, r1
 4245 000e 1700     		movs	r7, r2
 4246 0010 9946     		mov	r9, r3
 4247 0012 089E     		ldr	r6, [sp, #32]
 932:Core/Src/er_tft040.c ****     uint16_t i, w, l;
 4248              		.loc 1 932 5 is_stmt 1 view .LVU908
 933:Core/Src/er_tft040.c ****     uint16_t xEnd = x + width - 1;
 4249              		.loc 1 933 5 view .LVU909
 4250              		.loc 1 933 23 is_stmt 0 view .LVU910
 4251 0014 8418     		adds	r4, r0, r2
 4252 0016 A4B2     		uxth	r4, r4
 4253              		.loc 1 933 14 view .LVU911
 4254 0018 013C     		subs	r4, r4, #1
 4255 001a A4B2     		uxth	r4, r4
 4256              	.LVL861:
 934:Core/Src/er_tft040.c ****     uint16_t yEnd = y + height - 1;
 4257              		.loc 1 934 5 is_stmt 1 view .LVU912
 4258              		.loc 1 934 23 is_stmt 0 view .LVU913
 4259 001c 0D00     		movs	r5, r1
 4260 001e 4D44     		add	r5, r5, r9
 4261 0020 ADB2     		uxth	r5, r5
 4262              		.loc 1 934 14 view .LVU914
 4263 0022 013D     		subs	r5, r5, #1
 4264 0024 ADB2     		uxth	r5, r5
 4265              	.LVL862:
 935:Core/Src/er_tft040.c **** 
ARM GAS  /var/folders/_5/7dt5dlyd7598cb98063hl5tr0000gn/T//cc5bI3Gx.s 			page 106


 936:Core/Src/er_tft040.c ****     i = 0;
 4266              		.loc 1 936 5 is_stmt 1 view .LVU915
 937:Core/Src/er_tft040.c **** 
 938:Core/Src/er_tft040.c ****     ER_TFT040_writeCommand(0x3600);
 4267              		.loc 1 938 5 view .LVU916
 4268 0026 D820     		movs	r0, #216
 4269              	.LVL863:
 4270              		.loc 1 938 5 is_stmt 0 view .LVU917
 4271 0028 8001     		lsls	r0, r0, #6
 4272 002a FFF7FEFF 		bl	ER_TFT040_writeCommand
 4273              	.LVL864:
 939:Core/Src/er_tft040.c ****     ER_TFT040_writeData(0xa0);
 4274              		.loc 1 939 5 is_stmt 1 view .LVU918
 4275 002e A020     		movs	r0, #160
 4276 0030 FFF7FEFF 		bl	ER_TFT040_writeData
 4277              	.LVL865:
 940:Core/Src/er_tft040.c ****     ER_TFT040_setCursor(x, xEnd, y, yEnd);
 4278              		.loc 1 940 5 view .LVU919
 4279 0034 2B00     		movs	r3, r5
 4280 0036 5246     		mov	r2, r10
 4281 0038 2100     		movs	r1, r4
 4282 003a 4046     		mov	r0, r8
 4283 003c FFF7FEFF 		bl	ER_TFT040_setCursor
 4284              	.LVL866:
 941:Core/Src/er_tft040.c **** 
 942:Core/Src/er_tft040.c ****     for (l = 0; l < height; l++) {
 4285              		.loc 1 942 5 view .LVU920
 4286              		.loc 1 942 12 is_stmt 0 view .LVU921
 4287 0040 0023     		movs	r3, #0
 4288 0042 9846     		mov	r8, r3
 936:Core/Src/er_tft040.c **** 
 4289              		.loc 1 936 7 view .LVU922
 4290 0044 0024     		movs	r4, #0
 4291              	.LVL867:
 4292              		.loc 1 942 5 view .LVU923
 4293 0046 10E0     		b	.L49
 4294              	.LVL868:
 4295              	.L50:
 943:Core/Src/er_tft040.c ****         for (w = 0; w < width; w++) {
 944:Core/Src/er_tft040.c ****             ER_TFT040_writeData(ER_TFT040_CONVERT_DATA(picture[i], picture[i + 1]));
 4296              		.loc 1 944 13 is_stmt 1 discriminator 3 view .LVU924
 4297              		.loc 1 944 33 is_stmt 0 discriminator 3 view .LVU925
 4298 0048 335D     		ldrb	r3, [r6, r4]
 4299 004a 1B02     		lsls	r3, r3, #8
 4300 004c 3219     		adds	r2, r6, r4
 4301 004e 5078     		ldrb	r0, [r2, #1]
 4302              		.loc 1 944 13 discriminator 3 view .LVU926
 4303 0050 1843     		orrs	r0, r3
 4304 0052 FFF7FEFF 		bl	ER_TFT040_writeData
 4305              	.LVL869:
 945:Core/Src/er_tft040.c ****             i += 2;
 4306              		.loc 1 945 13 is_stmt 1 discriminator 3 view .LVU927
 4307              		.loc 1 945 15 is_stmt 0 discriminator 3 view .LVU928
 4308 0056 0234     		adds	r4, r4, #2
 4309              	.LVL870:
 4310              		.loc 1 945 15 discriminator 3 view .LVU929
 4311 0058 A4B2     		uxth	r4, r4
ARM GAS  /var/folders/_5/7dt5dlyd7598cb98063hl5tr0000gn/T//cc5bI3Gx.s 			page 107


 4312              	.LVL871:
 943:Core/Src/er_tft040.c ****         for (w = 0; w < width; w++) {
 4313              		.loc 1 943 33 is_stmt 1 discriminator 3 view .LVU930
 4314 005a 0135     		adds	r5, r5, #1
 4315              	.LVL872:
 943:Core/Src/er_tft040.c ****         for (w = 0; w < width; w++) {
 4316              		.loc 1 943 33 is_stmt 0 discriminator 3 view .LVU931
 4317 005c ADB2     		uxth	r5, r5
 4318              	.LVL873:
 4319              	.L51:
 943:Core/Src/er_tft040.c ****         for (w = 0; w < width; w++) {
 4320              		.loc 1 943 23 is_stmt 1 discriminator 1 view .LVU932
 4321 005e BD42     		cmp	r5, r7
 4322 0060 F2D3     		bcc	.L50
 942:Core/Src/er_tft040.c ****         for (w = 0; w < width; w++) {
 4323              		.loc 1 942 30 discriminator 2 view .LVU933
 4324 0062 4346     		mov	r3, r8
 4325 0064 0133     		adds	r3, r3, #1
 4326 0066 9BB2     		uxth	r3, r3
 4327 0068 9846     		mov	r8, r3
 4328              	.LVL874:
 4329              	.L49:
 942:Core/Src/er_tft040.c ****         for (w = 0; w < width; w++) {
 4330              		.loc 1 942 19 discriminator 1 view .LVU934
 4331 006a C845     		cmp	r8, r9
 4332 006c 01D2     		bcs	.L53
 943:Core/Src/er_tft040.c ****         for (w = 0; w < width; w++) {
 4333              		.loc 1 943 16 is_stmt 0 view .LVU935
 4334 006e 0025     		movs	r5, #0
 4335 0070 F5E7     		b	.L51
 4336              	.L53:
 946:Core/Src/er_tft040.c ****         }
 947:Core/Src/er_tft040.c ****     }
 948:Core/Src/er_tft040.c **** 
 949:Core/Src/er_tft040.c ****     ER_TFT040_writeCommand(0x3600);
 4337              		.loc 1 949 5 is_stmt 1 view .LVU936
 4338 0072 D820     		movs	r0, #216
 4339 0074 8001     		lsls	r0, r0, #6
 4340 0076 FFF7FEFF 		bl	ER_TFT040_writeCommand
 4341              	.LVL875:
 950:Core/Src/er_tft040.c ****     ER_TFT040_writeData(0x00);
 4342              		.loc 1 950 5 view .LVU937
 4343 007a 0020     		movs	r0, #0
 4344 007c FFF7FEFF 		bl	ER_TFT040_writeData
 4345              	.LVL876:
 951:Core/Src/er_tft040.c **** }
 4346              		.loc 1 951 1 is_stmt 0 view .LVU938
 4347              		@ sp needed
 4348              	.LVL877:
 4349              	.LVL878:
 4350              	.LVL879:
 4351              		.loc 1 951 1 view .LVU939
 4352 0080 E0BC     		pop	{r5, r6, r7}
 4353 0082 BA46     		mov	r10, r7
 4354 0084 B146     		mov	r9, r6
 4355 0086 A846     		mov	r8, r5
 4356 0088 F0BD     		pop	{r4, r5, r6, r7, pc}
ARM GAS  /var/folders/_5/7dt5dlyd7598cb98063hl5tr0000gn/T//cc5bI3Gx.s 			page 108


 4357              		.cfi_endproc
 4358              	.LFE48:
 4360              		.section	.rodata.ER_TFT040_textTest.str1.4,"aMS",%progbits,1
 4361              		.align	2
 4362              	.LC0:
 4363 0000 48454C4C 		.ascii	"HELLOW! PLEASE TOUCH ME!  Welcome used 4 inch TFT L"
 4363      4F572120 
 4363      504C4541 
 4363      53452054 
 4363      4F554348 
 4364 0033 4344206D 		.ascii	"CD module\000"
 4364      6F64756C 
 4364      6500
 4365 003d 000000   		.align	2
 4366              	.LC2:
 4367 0040 54502054 		.ascii	"TP TEST!\000"
 4367      45535421 
 4367      00
 4368 0049 000000   		.align	2
 4369              	.LC4:
 4370 004c 583A00   		.ascii	"X:\000"
 4371 004f 00       		.align	2
 4372              	.LC6:
 4373 0050 302E3030 		.ascii	"0.00\000"
 4373      00
 4374 0055 000000   		.align	2
 4375              	.LC8:
 4376 0058 593A00   		.ascii	"Y:\000"
 4377 005b 00       		.align	2
 4378              	.LC10:
 4379 005c 31322E33 		.ascii	"12.34\000"
 4379      3400
 4380              		.section	.text.ER_TFT040_textTest,"ax",%progbits
 4381              		.align	1
 4382              		.global	ER_TFT040_textTest
 4383              		.syntax unified
 4384              		.code	16
 4385              		.thumb_func
 4387              	ER_TFT040_textTest:
 4388              	.LVL880:
 4389              	.LFB49:
 952:Core/Src/er_tft040.c **** 
 953:Core/Src/er_tft040.c **** void ER_TFT040_textTest(uint8_t *font) {
 4390              		.loc 1 953 40 is_stmt 1 view -0
 4391              		.cfi_startproc
 4392              		@ args = 0, pretend = 0, frame = 0
 4393              		@ frame_needed = 0, uses_anonymous_args = 0
 4394              		.loc 1 953 40 is_stmt 0 view .LVU941
 4395 0000 F0B5     		push	{r4, r5, r6, r7, lr}
 4396              		.cfi_def_cfa_offset 20
 4397              		.cfi_offset 4, -20
 4398              		.cfi_offset 5, -16
 4399              		.cfi_offset 6, -12
 4400              		.cfi_offset 7, -8
 4401              		.cfi_offset 14, -4
 4402 0002 83B0     		sub	sp, sp, #12
 4403              		.cfi_def_cfa_offset 32
ARM GAS  /var/folders/_5/7dt5dlyd7598cb98063hl5tr0000gn/T//cc5bI3Gx.s 			page 109


 4404 0004 0400     		movs	r4, r0
 954:Core/Src/er_tft040.c ****     ER_TFT040_drawText(font, "HELLOW! PLEASE TOUCH ME!  Welcome used 4 inch TFT LCD module", 30, 5,
 4405              		.loc 1 954 5 is_stmt 1 view .LVU942
 4406 0006 1C49     		ldr	r1, .L55
 4407 0008 1C4E     		ldr	r6, .L55+4
 4408 000a 0196     		str	r6, [sp, #4]
 4409 000c F825     		movs	r5, #248
 4410 000e 2D02     		lsls	r5, r5, #8
 4411 0010 0095     		str	r5, [sp]
 4412 0012 0523     		movs	r3, #5
 4413 0014 1E22     		movs	r2, #30
 4414 0016 FFF7FEFF 		bl	ER_TFT040_drawText
 4415              	.LVL881:
 955:Core/Src/er_tft040.c ****     ER_TFT040_drawText(font, "TP TEST!", 80, 100, 0x00FF00, 0xf800);
 4416              		.loc 1 955 5 view .LVU943
 4417 001a 1949     		ldr	r1, .L55+8
 4418 001c 0195     		str	r5, [sp, #4]
 4419 001e FF23     		movs	r3, #255
 4420 0020 1B02     		lsls	r3, r3, #8
 4421 0022 0093     		str	r3, [sp]
 4422 0024 6423     		movs	r3, #100
 4423 0026 5022     		movs	r2, #80
 4424 0028 2000     		movs	r0, r4
 4425 002a FFF7FEFF 		bl	ER_TFT040_drawText
 4426              	.LVL882:
 956:Core/Src/er_tft040.c ****     ER_TFT040_drawText(font, "X:", 10, 305, 0x001f, 0xffff);
 4427              		.loc 1 956 5 view .LVU944
 4428 002e 3227     		movs	r7, #50
 4429 0030 FF37     		adds	r7, r7, #255
 4430 0032 1449     		ldr	r1, .L55+12
 4431 0034 0196     		str	r6, [sp, #4]
 4432 0036 1F23     		movs	r3, #31
 4433 0038 0093     		str	r3, [sp]
 4434 003a 3B00     		movs	r3, r7
 4435 003c 0A22     		movs	r2, #10
 4436 003e 2000     		movs	r0, r4
 4437 0040 FFF7FEFF 		bl	ER_TFT040_drawText
 4438              	.LVL883:
 957:Core/Src/er_tft040.c ****     ER_TFT040_drawText(font, "0.00", 25, 305, 0xf800, 0xffff);
 4439              		.loc 1 957 5 view .LVU945
 4440 0044 1049     		ldr	r1, .L55+16
 4441 0046 0196     		str	r6, [sp, #4]
 4442 0048 0095     		str	r5, [sp]
 4443 004a 3B00     		movs	r3, r7
 4444 004c 1922     		movs	r2, #25
 4445 004e 2000     		movs	r0, r4
 4446 0050 FFF7FEFF 		bl	ER_TFT040_drawText
 4447              	.LVL884:
 958:Core/Src/er_tft040.c ****     ER_TFT040_drawText(font, "Y:", 80, 305, 0xf800, 0xffff);
 4448              		.loc 1 958 5 view .LVU946
 4449 0054 0D49     		ldr	r1, .L55+20
 4450 0056 0196     		str	r6, [sp, #4]
 4451 0058 0095     		str	r5, [sp]
 4452 005a 3B00     		movs	r3, r7
 4453 005c 5022     		movs	r2, #80
 4454 005e 2000     		movs	r0, r4
 4455 0060 FFF7FEFF 		bl	ER_TFT040_drawText
ARM GAS  /var/folders/_5/7dt5dlyd7598cb98063hl5tr0000gn/T//cc5bI3Gx.s 			page 110


 4456              	.LVL885:
 959:Core/Src/er_tft040.c ****     ER_TFT040_drawText(font, "12.34", 95, 305, 0xf800, 0xffff);
 4457              		.loc 1 959 5 view .LVU947
 4458 0064 0A49     		ldr	r1, .L55+24
 4459 0066 0196     		str	r6, [sp, #4]
 4460 0068 0095     		str	r5, [sp]
 4461 006a 3B00     		movs	r3, r7
 4462 006c 5F22     		movs	r2, #95
 4463 006e 2000     		movs	r0, r4
 4464 0070 FFF7FEFF 		bl	ER_TFT040_drawText
 4465              	.LVL886:
 960:Core/Src/er_tft040.c **** 
 961:Core/Src/er_tft040.c ****     // ER_TFT040_writeCommand(0x3600);
 962:Core/Src/er_tft040.c ****     // ER_TFT040_writeData(0x00);
 963:Core/Src/er_tft040.c **** }...
 4466              		.loc 1 963 1 is_stmt 0 view .LVU948
 4467 0074 03B0     		add	sp, sp, #12
 4468              		@ sp needed
 4469              	.LVL887:
 4470              		.loc 1 963 1 view .LVU949
 4471 0076 F0BD     		pop	{r4, r5, r6, r7, pc}
 4472              	.L56:
 4473              		.align	2
 4474              	.L55:
 4475 0078 00000000 		.word	.LC0
 4476 007c FFFF0000 		.word	65535
 4477 0080 40000000 		.word	.LC2
 4478 0084 4C000000 		.word	.LC4
 4479 0088 50000000 		.word	.LC6
 4480 008c 58000000 		.word	.LC8
 4481 0090 5C000000 		.word	.LC10
 4482              		.cfi_endproc
 4483              	.LFE49:
 4485              		.text
 4486              	.Letext0:
 4487              		.file 2 "/Users/tom/Library/Application Support/Code/User/globalStorage/bmd.stm32-for-vscode/@xpac
 4488              		.file 3 "/Users/tom/Library/Application Support/Code/User/globalStorage/bmd.stm32-for-vscode/@xpac
 4489              		.file 4 "Drivers/CMSIS/Device/ST/STM32F0xx/Include/stm32f030x8.h"
 4490              		.file 5 "Drivers/STM32F0xx_HAL_Driver/Inc/stm32f0xx_hal_gpio.h"
 4491              		.file 6 "Drivers/STM32F0xx_HAL_Driver/Inc/stm32f0xx_hal.h"
ARM GAS  /var/folders/_5/7dt5dlyd7598cb98063hl5tr0000gn/T//cc5bI3Gx.s 			page 111


DEFINED SYMBOLS
                            *ABS*:0000000000000000 er_tft040.c
/var/folders/_5/7dt5dlyd7598cb98063hl5tr0000gn/T//cc5bI3Gx.s:19     .text.ER_TFT040_setDataPort:0000000000000000 $t
/var/folders/_5/7dt5dlyd7598cb98063hl5tr0000gn/T//cc5bI3Gx.s:24     .text.ER_TFT040_setDataPort:0000000000000000 ER_TFT040_setDataPort
/var/folders/_5/7dt5dlyd7598cb98063hl5tr0000gn/T//cc5bI3Gx.s:47     .text.ER_TFT040_setDataPort:000000000000000c $d
/var/folders/_5/7dt5dlyd7598cb98063hl5tr0000gn/T//cc5bI3Gx.s:53     .text.ER_TFT040_writeCommand:0000000000000000 $t
/var/folders/_5/7dt5dlyd7598cb98063hl5tr0000gn/T//cc5bI3Gx.s:59     .text.ER_TFT040_writeCommand:0000000000000000 ER_TFT040_writeCommand
/var/folders/_5/7dt5dlyd7598cb98063hl5tr0000gn/T//cc5bI3Gx.s:129    .text.ER_TFT040_writeCommand:0000000000000058 $d
/var/folders/_5/7dt5dlyd7598cb98063hl5tr0000gn/T//cc5bI3Gx.s:134    .text.ER_TFT040_writeData:0000000000000000 $t
/var/folders/_5/7dt5dlyd7598cb98063hl5tr0000gn/T//cc5bI3Gx.s:140    .text.ER_TFT040_writeData:0000000000000000 ER_TFT040_writeData
/var/folders/_5/7dt5dlyd7598cb98063hl5tr0000gn/T//cc5bI3Gx.s:210    .text.ER_TFT040_writeData:0000000000000058 $d
/var/folders/_5/7dt5dlyd7598cb98063hl5tr0000gn/T//cc5bI3Gx.s:215    .text.ER_TFT040_setCursor:0000000000000000 $t
/var/folders/_5/7dt5dlyd7598cb98063hl5tr0000gn/T//cc5bI3Gx.s:221    .text.ER_TFT040_setCursor:0000000000000000 ER_TFT040_setCursor
/var/folders/_5/7dt5dlyd7598cb98063hl5tr0000gn/T//cc5bI3Gx.s:331    .text.ER_TFT040_setCursor:000000000000008c $d
/var/folders/_5/7dt5dlyd7598cb98063hl5tr0000gn/T//cc5bI3Gx.s:341    .text.ER_TFT040_clearLCD:0000000000000000 $t
/var/folders/_5/7dt5dlyd7598cb98063hl5tr0000gn/T//cc5bI3Gx.s:347    .text.ER_TFT040_clearLCD:0000000000000000 ER_TFT040_clearLCD
/var/folders/_5/7dt5dlyd7598cb98063hl5tr0000gn/T//cc5bI3Gx.s:426    .text.ER_TFT040_clearLCD:000000000000003c $d
/var/folders/_5/7dt5dlyd7598cb98063hl5tr0000gn/T//cc5bI3Gx.s:431    .text.ER_TFT040_init:0000000000000000 $t
/var/folders/_5/7dt5dlyd7598cb98063hl5tr0000gn/T//cc5bI3Gx.s:437    .text.ER_TFT040_init:0000000000000000 ER_TFT040_init
/var/folders/_5/7dt5dlyd7598cb98063hl5tr0000gn/T//cc5bI3Gx.s:1120   .text.ER_TFT040_init:00000000000003fc $d
/var/folders/_5/7dt5dlyd7598cb98063hl5tr0000gn/T//cc5bI3Gx.s:1183   .text.ER_TFT040_init:00000000000004f0 $t
/var/folders/_5/7dt5dlyd7598cb98063hl5tr0000gn/T//cc5bI3Gx.s:1864   .text.ER_TFT040_init:00000000000008ec $d
/var/folders/_5/7dt5dlyd7598cb98063hl5tr0000gn/T//cc5bI3Gx.s:1948   .text.ER_TFT040_init:0000000000000a34 $t
/var/folders/_5/7dt5dlyd7598cb98063hl5tr0000gn/T//cc5bI3Gx.s:2628   .text.ER_TFT040_init:0000000000000e30 $d
/var/folders/_5/7dt5dlyd7598cb98063hl5tr0000gn/T//cc5bI3Gx.s:2714   .text.ER_TFT040_init:0000000000000f80 $t
/var/folders/_5/7dt5dlyd7598cb98063hl5tr0000gn/T//cc5bI3Gx.s:3395   .text.ER_TFT040_init:000000000000137c $d
/var/folders/_5/7dt5dlyd7598cb98063hl5tr0000gn/T//cc5bI3Gx.s:3479   .text.ER_TFT040_init:00000000000014c4 $t
/var/folders/_5/7dt5dlyd7598cb98063hl5tr0000gn/T//cc5bI3Gx.s:3933   .text.ER_TFT040_init:0000000000001770 $d
/var/folders/_5/7dt5dlyd7598cb98063hl5tr0000gn/T//cc5bI3Gx.s:3978   .text.ER_TFT040_drawCharacter:0000000000000000 $t
/var/folders/_5/7dt5dlyd7598cb98063hl5tr0000gn/T//cc5bI3Gx.s:3984   .text.ER_TFT040_drawCharacter:0000000000000000 ER_TFT040_drawCharacter
/var/folders/_5/7dt5dlyd7598cb98063hl5tr0000gn/T//cc5bI3Gx.s:4116   .text.ER_TFT040_drawText:0000000000000000 $t
/var/folders/_5/7dt5dlyd7598cb98063hl5tr0000gn/T//cc5bI3Gx.s:4122   .text.ER_TFT040_drawText:0000000000000000 ER_TFT040_drawText
/var/folders/_5/7dt5dlyd7598cb98063hl5tr0000gn/T//cc5bI3Gx.s:4214   .text.ER_TFT040_drawPicture:0000000000000000 $t
/var/folders/_5/7dt5dlyd7598cb98063hl5tr0000gn/T//cc5bI3Gx.s:4220   .text.ER_TFT040_drawPicture:0000000000000000 ER_TFT040_drawPicture
/var/folders/_5/7dt5dlyd7598cb98063hl5tr0000gn/T//cc5bI3Gx.s:4361   .rodata.ER_TFT040_textTest.str1.4:0000000000000000 $d
/var/folders/_5/7dt5dlyd7598cb98063hl5tr0000gn/T//cc5bI3Gx.s:4381   .text.ER_TFT040_textTest:0000000000000000 $t
/var/folders/_5/7dt5dlyd7598cb98063hl5tr0000gn/T//cc5bI3Gx.s:4387   .text.ER_TFT040_textTest:0000000000000000 ER_TFT040_textTest
/var/folders/_5/7dt5dlyd7598cb98063hl5tr0000gn/T//cc5bI3Gx.s:4475   .text.ER_TFT040_textTest:0000000000000078 $d

UNDEFINED SYMBOLS
HAL_GPIO_WritePin
HAL_Delay
