ARM GAS  /var/folders/_5/7dt5dlyd7598cb98063hl5tr0000gn/T//ccLAQ22X.s 			page 1


   1              		.cpu cortex-m0
   2              		.arch armv6s-m
   3              		.fpu softvfp
   4              		.eabi_attribute 20, 1
   5              		.eabi_attribute 21, 1
   6              		.eabi_attribute 23, 3
   7              		.eabi_attribute 24, 1
   8              		.eabi_attribute 25, 1
   9              		.eabi_attribute 26, 1
  10              		.eabi_attribute 30, 1
  11              		.eabi_attribute 34, 0
  12              		.eabi_attribute 18, 4
  13              		.file	"stm32f0xx_hal_msp.c"
  14              		.text
  15              	.Ltext0:
  16              		.cfi_sections	.debug_frame
  17              		.file 1 "Core/Src/stm32f0xx_hal_msp.c"
  18              		.section	.text.HAL_MspInit,"ax",%progbits
  19              		.align	1
  20              		.global	HAL_MspInit
  21              		.syntax unified
  22              		.code	16
  23              		.thumb_func
  25              	HAL_MspInit:
  26              	.LFB40:
   1:Core/Src/stm32f0xx_hal_msp.c **** /* USER CODE BEGIN Header */
   2:Core/Src/stm32f0xx_hal_msp.c **** /**
   3:Core/Src/stm32f0xx_hal_msp.c ****   ******************************************************************************
   4:Core/Src/stm32f0xx_hal_msp.c ****   * @file         stm32f0xx_hal_msp.c
   5:Core/Src/stm32f0xx_hal_msp.c ****   * @brief        This file provides code for the MSP Initialization
   6:Core/Src/stm32f0xx_hal_msp.c ****   *               and de-Initialization codes.
   7:Core/Src/stm32f0xx_hal_msp.c ****   ******************************************************************************
   8:Core/Src/stm32f0xx_hal_msp.c ****   * @attention
   9:Core/Src/stm32f0xx_hal_msp.c ****   *
  10:Core/Src/stm32f0xx_hal_msp.c ****   * Copyright (c) 2023 STMicroelectronics.
  11:Core/Src/stm32f0xx_hal_msp.c ****   * All rights reserved.
  12:Core/Src/stm32f0xx_hal_msp.c ****   *
  13:Core/Src/stm32f0xx_hal_msp.c ****   * This software is licensed under terms that can be found in the LICENSE file
  14:Core/Src/stm32f0xx_hal_msp.c ****   * in the root directory of this software component.
  15:Core/Src/stm32f0xx_hal_msp.c ****   * If no LICENSE file comes with this software, it is provided AS-IS.
  16:Core/Src/stm32f0xx_hal_msp.c ****   *
  17:Core/Src/stm32f0xx_hal_msp.c ****   ******************************************************************************
  18:Core/Src/stm32f0xx_hal_msp.c ****   */
  19:Core/Src/stm32f0xx_hal_msp.c **** /* USER CODE END Header */
  20:Core/Src/stm32f0xx_hal_msp.c **** 
  21:Core/Src/stm32f0xx_hal_msp.c **** /* Includes ------------------------------------------------------------------*/
  22:Core/Src/stm32f0xx_hal_msp.c **** #include "main.h"
  23:Core/Src/stm32f0xx_hal_msp.c **** /* USER CODE BEGIN Includes */
  24:Core/Src/stm32f0xx_hal_msp.c **** 
  25:Core/Src/stm32f0xx_hal_msp.c **** /* USER CODE END Includes */
  26:Core/Src/stm32f0xx_hal_msp.c **** 
  27:Core/Src/stm32f0xx_hal_msp.c **** /* Private typedef -----------------------------------------------------------*/
  28:Core/Src/stm32f0xx_hal_msp.c **** /* USER CODE BEGIN TD */
  29:Core/Src/stm32f0xx_hal_msp.c **** 
  30:Core/Src/stm32f0xx_hal_msp.c **** /* USER CODE END TD */
  31:Core/Src/stm32f0xx_hal_msp.c **** 
  32:Core/Src/stm32f0xx_hal_msp.c **** /* Private define ------------------------------------------------------------*/
ARM GAS  /var/folders/_5/7dt5dlyd7598cb98063hl5tr0000gn/T//ccLAQ22X.s 			page 2


  33:Core/Src/stm32f0xx_hal_msp.c **** /* USER CODE BEGIN Define */
  34:Core/Src/stm32f0xx_hal_msp.c **** 
  35:Core/Src/stm32f0xx_hal_msp.c **** /* USER CODE END Define */
  36:Core/Src/stm32f0xx_hal_msp.c **** 
  37:Core/Src/stm32f0xx_hal_msp.c **** /* Private macro -------------------------------------------------------------*/
  38:Core/Src/stm32f0xx_hal_msp.c **** /* USER CODE BEGIN Macro */
  39:Core/Src/stm32f0xx_hal_msp.c **** 
  40:Core/Src/stm32f0xx_hal_msp.c **** /* USER CODE END Macro */
  41:Core/Src/stm32f0xx_hal_msp.c **** 
  42:Core/Src/stm32f0xx_hal_msp.c **** /* Private variables ---------------------------------------------------------*/
  43:Core/Src/stm32f0xx_hal_msp.c **** /* USER CODE BEGIN PV */
  44:Core/Src/stm32f0xx_hal_msp.c **** 
  45:Core/Src/stm32f0xx_hal_msp.c **** /* USER CODE END PV */
  46:Core/Src/stm32f0xx_hal_msp.c **** 
  47:Core/Src/stm32f0xx_hal_msp.c **** /* Private function prototypes -----------------------------------------------*/
  48:Core/Src/stm32f0xx_hal_msp.c **** /* USER CODE BEGIN PFP */
  49:Core/Src/stm32f0xx_hal_msp.c **** 
  50:Core/Src/stm32f0xx_hal_msp.c **** /* USER CODE END PFP */
  51:Core/Src/stm32f0xx_hal_msp.c **** 
  52:Core/Src/stm32f0xx_hal_msp.c **** /* External functions --------------------------------------------------------*/
  53:Core/Src/stm32f0xx_hal_msp.c **** /* USER CODE BEGIN ExternalFunctions */
  54:Core/Src/stm32f0xx_hal_msp.c **** 
  55:Core/Src/stm32f0xx_hal_msp.c **** /* USER CODE END ExternalFunctions */
  56:Core/Src/stm32f0xx_hal_msp.c **** 
  57:Core/Src/stm32f0xx_hal_msp.c **** /* USER CODE BEGIN 0 */
  58:Core/Src/stm32f0xx_hal_msp.c **** 
  59:Core/Src/stm32f0xx_hal_msp.c **** /* USER CODE END 0 */
  60:Core/Src/stm32f0xx_hal_msp.c **** /**
  61:Core/Src/stm32f0xx_hal_msp.c ****   * Initializes the Global MSP.
  62:Core/Src/stm32f0xx_hal_msp.c ****   */
  63:Core/Src/stm32f0xx_hal_msp.c **** void HAL_MspInit(void)
  64:Core/Src/stm32f0xx_hal_msp.c **** {
  27              		.loc 1 64 1 view -0
  28              		.cfi_startproc
  29              		@ args = 0, pretend = 0, frame = 8
  30              		@ frame_needed = 0, uses_anonymous_args = 0
  31              		@ link register save eliminated.
  32 0000 82B0     		sub	sp, sp, #8
  33              		.cfi_def_cfa_offset 8
  65:Core/Src/stm32f0xx_hal_msp.c ****   /* USER CODE BEGIN MspInit 0 */
  66:Core/Src/stm32f0xx_hal_msp.c **** 
  67:Core/Src/stm32f0xx_hal_msp.c ****   /* USER CODE END MspInit 0 */
  68:Core/Src/stm32f0xx_hal_msp.c **** 
  69:Core/Src/stm32f0xx_hal_msp.c ****   __HAL_RCC_SYSCFG_CLK_ENABLE();
  34              		.loc 1 69 3 view .LVU1
  35              	.LBB2:
  36              		.loc 1 69 3 view .LVU2
  37              		.loc 1 69 3 view .LVU3
  38 0002 0A4B     		ldr	r3, .L2
  39 0004 9969     		ldr	r1, [r3, #24]
  40 0006 0122     		movs	r2, #1
  41 0008 1143     		orrs	r1, r2
  42 000a 9961     		str	r1, [r3, #24]
  43              		.loc 1 69 3 view .LVU4
  44 000c 9969     		ldr	r1, [r3, #24]
  45 000e 0A40     		ands	r2, r1
  46 0010 0092     		str	r2, [sp]
ARM GAS  /var/folders/_5/7dt5dlyd7598cb98063hl5tr0000gn/T//ccLAQ22X.s 			page 3


  47              		.loc 1 69 3 view .LVU5
  48 0012 009A     		ldr	r2, [sp]
  49              	.LBE2:
  50              		.loc 1 69 3 view .LVU6
  70:Core/Src/stm32f0xx_hal_msp.c ****   __HAL_RCC_PWR_CLK_ENABLE();
  51              		.loc 1 70 3 view .LVU7
  52              	.LBB3:
  53              		.loc 1 70 3 view .LVU8
  54              		.loc 1 70 3 view .LVU9
  55 0014 DA69     		ldr	r2, [r3, #28]
  56 0016 8021     		movs	r1, #128
  57 0018 4905     		lsls	r1, r1, #21
  58 001a 0A43     		orrs	r2, r1
  59 001c DA61     		str	r2, [r3, #28]
  60              		.loc 1 70 3 view .LVU10
  61 001e DB69     		ldr	r3, [r3, #28]
  62 0020 0B40     		ands	r3, r1
  63 0022 0193     		str	r3, [sp, #4]
  64              		.loc 1 70 3 view .LVU11
  65 0024 019B     		ldr	r3, [sp, #4]
  66              	.LBE3:
  67              		.loc 1 70 3 view .LVU12
  71:Core/Src/stm32f0xx_hal_msp.c **** 
  72:Core/Src/stm32f0xx_hal_msp.c ****   /* System interrupt init*/
  73:Core/Src/stm32f0xx_hal_msp.c **** 
  74:Core/Src/stm32f0xx_hal_msp.c ****   /* USER CODE BEGIN MspInit 1 */
  75:Core/Src/stm32f0xx_hal_msp.c **** 
  76:Core/Src/stm32f0xx_hal_msp.c ****   /* USER CODE END MspInit 1 */
  77:Core/Src/stm32f0xx_hal_msp.c **** }
  68              		.loc 1 77 1 is_stmt 0 view .LVU13
  69 0026 02B0     		add	sp, sp, #8
  70              		@ sp needed
  71 0028 7047     		bx	lr
  72              	.L3:
  73 002a C046     		.align	2
  74              	.L2:
  75 002c 00100240 		.word	1073876992
  76              		.cfi_endproc
  77              	.LFE40:
  79              		.section	.text.HAL_I2C_MspInit,"ax",%progbits
  80              		.align	1
  81              		.global	HAL_I2C_MspInit
  82              		.syntax unified
  83              		.code	16
  84              		.thumb_func
  86              	HAL_I2C_MspInit:
  87              	.LVL0:
  88              	.LFB41:
  78:Core/Src/stm32f0xx_hal_msp.c **** 
  79:Core/Src/stm32f0xx_hal_msp.c **** /**
  80:Core/Src/stm32f0xx_hal_msp.c **** * @brief I2C MSP Initialization
  81:Core/Src/stm32f0xx_hal_msp.c **** * This function configures the hardware resources used in this example
  82:Core/Src/stm32f0xx_hal_msp.c **** * @param hi2c: I2C handle pointer
  83:Core/Src/stm32f0xx_hal_msp.c **** * @retval None
  84:Core/Src/stm32f0xx_hal_msp.c **** */
  85:Core/Src/stm32f0xx_hal_msp.c **** void HAL_I2C_MspInit(I2C_HandleTypeDef* hi2c)
  86:Core/Src/stm32f0xx_hal_msp.c **** {
ARM GAS  /var/folders/_5/7dt5dlyd7598cb98063hl5tr0000gn/T//ccLAQ22X.s 			page 4


  89              		.loc 1 86 1 is_stmt 1 view -0
  90              		.cfi_startproc
  91              		@ args = 0, pretend = 0, frame = 32
  92              		@ frame_needed = 0, uses_anonymous_args = 0
  93              		.loc 1 86 1 is_stmt 0 view .LVU15
  94 0000 30B5     		push	{r4, r5, lr}
  95              		.cfi_def_cfa_offset 12
  96              		.cfi_offset 4, -12
  97              		.cfi_offset 5, -8
  98              		.cfi_offset 14, -4
  99 0002 89B0     		sub	sp, sp, #36
 100              		.cfi_def_cfa_offset 48
 101 0004 0400     		movs	r4, r0
  87:Core/Src/stm32f0xx_hal_msp.c ****   GPIO_InitTypeDef GPIO_InitStruct = {0};
 102              		.loc 1 87 3 is_stmt 1 view .LVU16
 103              		.loc 1 87 20 is_stmt 0 view .LVU17
 104 0006 1422     		movs	r2, #20
 105 0008 0021     		movs	r1, #0
 106 000a 03A8     		add	r0, sp, #12
 107              	.LVL1:
 108              		.loc 1 87 20 view .LVU18
 109 000c FFF7FEFF 		bl	memset
 110              	.LVL2:
  88:Core/Src/stm32f0xx_hal_msp.c ****   if(hi2c->Instance==I2C2)
 111              		.loc 1 88 3 is_stmt 1 view .LVU19
 112              		.loc 1 88 10 is_stmt 0 view .LVU20
 113 0010 2268     		ldr	r2, [r4]
 114              		.loc 1 88 5 view .LVU21
 115 0012 104B     		ldr	r3, .L7
 116 0014 9A42     		cmp	r2, r3
 117 0016 01D0     		beq	.L6
 118              	.LVL3:
 119              	.L4:
  89:Core/Src/stm32f0xx_hal_msp.c ****   {
  90:Core/Src/stm32f0xx_hal_msp.c ****   /* USER CODE BEGIN I2C2_MspInit 0 */
  91:Core/Src/stm32f0xx_hal_msp.c **** 
  92:Core/Src/stm32f0xx_hal_msp.c ****   /* USER CODE END I2C2_MspInit 0 */
  93:Core/Src/stm32f0xx_hal_msp.c **** 
  94:Core/Src/stm32f0xx_hal_msp.c ****     __HAL_RCC_GPIOF_CLK_ENABLE();
  95:Core/Src/stm32f0xx_hal_msp.c ****     /**I2C2 GPIO Configuration
  96:Core/Src/stm32f0xx_hal_msp.c ****     PF6     ------> I2C2_SCL
  97:Core/Src/stm32f0xx_hal_msp.c ****     PF7     ------> I2C2_SDA
  98:Core/Src/stm32f0xx_hal_msp.c ****     */
  99:Core/Src/stm32f0xx_hal_msp.c ****     GPIO_InitStruct.Pin = GPIO_PIN_6|GPIO_PIN_7;
 100:Core/Src/stm32f0xx_hal_msp.c ****     GPIO_InitStruct.Mode = GPIO_MODE_AF_OD;
 101:Core/Src/stm32f0xx_hal_msp.c ****     GPIO_InitStruct.Pull = GPIO_NOPULL;
 102:Core/Src/stm32f0xx_hal_msp.c ****     GPIO_InitStruct.Speed = GPIO_SPEED_FREQ_HIGH;
 103:Core/Src/stm32f0xx_hal_msp.c ****     HAL_GPIO_Init(GPIOF, &GPIO_InitStruct);
 104:Core/Src/stm32f0xx_hal_msp.c **** 
 105:Core/Src/stm32f0xx_hal_msp.c ****     /* Peripheral clock enable */
 106:Core/Src/stm32f0xx_hal_msp.c ****     __HAL_RCC_I2C2_CLK_ENABLE();
 107:Core/Src/stm32f0xx_hal_msp.c ****   /* USER CODE BEGIN I2C2_MspInit 1 */
 108:Core/Src/stm32f0xx_hal_msp.c **** 
 109:Core/Src/stm32f0xx_hal_msp.c ****   /* USER CODE END I2C2_MspInit 1 */
 110:Core/Src/stm32f0xx_hal_msp.c ****   }
 111:Core/Src/stm32f0xx_hal_msp.c **** 
 112:Core/Src/stm32f0xx_hal_msp.c **** }
ARM GAS  /var/folders/_5/7dt5dlyd7598cb98063hl5tr0000gn/T//ccLAQ22X.s 			page 5


 120              		.loc 1 112 1 view .LVU22
 121 0018 09B0     		add	sp, sp, #36
 122              		@ sp needed
 123 001a 30BD     		pop	{r4, r5, pc}
 124              	.LVL4:
 125              	.L6:
  94:Core/Src/stm32f0xx_hal_msp.c ****     /**I2C2 GPIO Configuration
 126              		.loc 1 94 5 is_stmt 1 view .LVU23
 127              	.LBB4:
  94:Core/Src/stm32f0xx_hal_msp.c ****     /**I2C2 GPIO Configuration
 128              		.loc 1 94 5 view .LVU24
  94:Core/Src/stm32f0xx_hal_msp.c ****     /**I2C2 GPIO Configuration
 129              		.loc 1 94 5 view .LVU25
 130 001c 0E4C     		ldr	r4, .L7+4
 131              	.LVL5:
  94:Core/Src/stm32f0xx_hal_msp.c ****     /**I2C2 GPIO Configuration
 132              		.loc 1 94 5 is_stmt 0 view .LVU26
 133 001e 6369     		ldr	r3, [r4, #20]
 134 0020 8025     		movs	r5, #128
 135 0022 ED03     		lsls	r5, r5, #15
 136 0024 2B43     		orrs	r3, r5
 137 0026 6361     		str	r3, [r4, #20]
  94:Core/Src/stm32f0xx_hal_msp.c ****     /**I2C2 GPIO Configuration
 138              		.loc 1 94 5 is_stmt 1 view .LVU27
 139 0028 6369     		ldr	r3, [r4, #20]
 140 002a 2B40     		ands	r3, r5
 141 002c 0193     		str	r3, [sp, #4]
  94:Core/Src/stm32f0xx_hal_msp.c ****     /**I2C2 GPIO Configuration
 142              		.loc 1 94 5 view .LVU28
 143 002e 019B     		ldr	r3, [sp, #4]
 144              	.LBE4:
  94:Core/Src/stm32f0xx_hal_msp.c ****     /**I2C2 GPIO Configuration
 145              		.loc 1 94 5 view .LVU29
  99:Core/Src/stm32f0xx_hal_msp.c ****     GPIO_InitStruct.Mode = GPIO_MODE_AF_OD;
 146              		.loc 1 99 5 view .LVU30
  99:Core/Src/stm32f0xx_hal_msp.c ****     GPIO_InitStruct.Mode = GPIO_MODE_AF_OD;
 147              		.loc 1 99 25 is_stmt 0 view .LVU31
 148 0030 C023     		movs	r3, #192
 149 0032 0393     		str	r3, [sp, #12]
 100:Core/Src/stm32f0xx_hal_msp.c ****     GPIO_InitStruct.Pull = GPIO_NOPULL;
 150              		.loc 1 100 5 is_stmt 1 view .LVU32
 100:Core/Src/stm32f0xx_hal_msp.c ****     GPIO_InitStruct.Pull = GPIO_NOPULL;
 151              		.loc 1 100 26 is_stmt 0 view .LVU33
 152 0034 AE3B     		subs	r3, r3, #174
 153 0036 0493     		str	r3, [sp, #16]
 101:Core/Src/stm32f0xx_hal_msp.c ****     GPIO_InitStruct.Speed = GPIO_SPEED_FREQ_HIGH;
 154              		.loc 1 101 5 is_stmt 1 view .LVU34
 102:Core/Src/stm32f0xx_hal_msp.c ****     HAL_GPIO_Init(GPIOF, &GPIO_InitStruct);
 155              		.loc 1 102 5 view .LVU35
 102:Core/Src/stm32f0xx_hal_msp.c ****     HAL_GPIO_Init(GPIOF, &GPIO_InitStruct);
 156              		.loc 1 102 27 is_stmt 0 view .LVU36
 157 0038 0F3B     		subs	r3, r3, #15
 158 003a 0693     		str	r3, [sp, #24]
 103:Core/Src/stm32f0xx_hal_msp.c **** 
 159              		.loc 1 103 5 is_stmt 1 view .LVU37
 160 003c 03A9     		add	r1, sp, #12
 161 003e 0748     		ldr	r0, .L7+8
ARM GAS  /var/folders/_5/7dt5dlyd7598cb98063hl5tr0000gn/T//ccLAQ22X.s 			page 6


 162 0040 FFF7FEFF 		bl	HAL_GPIO_Init
 163              	.LVL6:
 106:Core/Src/stm32f0xx_hal_msp.c ****   /* USER CODE BEGIN I2C2_MspInit 1 */
 164              		.loc 1 106 5 view .LVU38
 165              	.LBB5:
 106:Core/Src/stm32f0xx_hal_msp.c ****   /* USER CODE BEGIN I2C2_MspInit 1 */
 166              		.loc 1 106 5 view .LVU39
 106:Core/Src/stm32f0xx_hal_msp.c ****   /* USER CODE BEGIN I2C2_MspInit 1 */
 167              		.loc 1 106 5 view .LVU40
 168 0044 E369     		ldr	r3, [r4, #28]
 169 0046 2B43     		orrs	r3, r5
 170 0048 E361     		str	r3, [r4, #28]
 106:Core/Src/stm32f0xx_hal_msp.c ****   /* USER CODE BEGIN I2C2_MspInit 1 */
 171              		.loc 1 106 5 view .LVU41
 172 004a E369     		ldr	r3, [r4, #28]
 173 004c 2B40     		ands	r3, r5
 174 004e 0293     		str	r3, [sp, #8]
 106:Core/Src/stm32f0xx_hal_msp.c ****   /* USER CODE BEGIN I2C2_MspInit 1 */
 175              		.loc 1 106 5 view .LVU42
 176 0050 029B     		ldr	r3, [sp, #8]
 177              	.LBE5:
 106:Core/Src/stm32f0xx_hal_msp.c ****   /* USER CODE BEGIN I2C2_MspInit 1 */
 178              		.loc 1 106 5 view .LVU43
 179              		.loc 1 112 1 is_stmt 0 view .LVU44
 180 0052 E1E7     		b	.L4
 181              	.L8:
 182              		.align	2
 183              	.L7:
 184 0054 00580040 		.word	1073764352
 185 0058 00100240 		.word	1073876992
 186 005c 00140048 		.word	1207964672
 187              		.cfi_endproc
 188              	.LFE41:
 190              		.section	.text.HAL_I2C_MspDeInit,"ax",%progbits
 191              		.align	1
 192              		.global	HAL_I2C_MspDeInit
 193              		.syntax unified
 194              		.code	16
 195              		.thumb_func
 197              	HAL_I2C_MspDeInit:
 198              	.LVL7:
 199              	.LFB42:
 113:Core/Src/stm32f0xx_hal_msp.c **** 
 114:Core/Src/stm32f0xx_hal_msp.c **** /**
 115:Core/Src/stm32f0xx_hal_msp.c **** * @brief I2C MSP De-Initialization
 116:Core/Src/stm32f0xx_hal_msp.c **** * This function freeze the hardware resources used in this example
 117:Core/Src/stm32f0xx_hal_msp.c **** * @param hi2c: I2C handle pointer
 118:Core/Src/stm32f0xx_hal_msp.c **** * @retval None
 119:Core/Src/stm32f0xx_hal_msp.c **** */
 120:Core/Src/stm32f0xx_hal_msp.c **** void HAL_I2C_MspDeInit(I2C_HandleTypeDef* hi2c)
 121:Core/Src/stm32f0xx_hal_msp.c **** {
 200              		.loc 1 121 1 is_stmt 1 view -0
 201              		.cfi_startproc
 202              		@ args = 0, pretend = 0, frame = 0
 203              		@ frame_needed = 0, uses_anonymous_args = 0
 204              		.loc 1 121 1 is_stmt 0 view .LVU46
 205 0000 10B5     		push	{r4, lr}
ARM GAS  /var/folders/_5/7dt5dlyd7598cb98063hl5tr0000gn/T//ccLAQ22X.s 			page 7


 206              		.cfi_def_cfa_offset 8
 207              		.cfi_offset 4, -8
 208              		.cfi_offset 14, -4
 122:Core/Src/stm32f0xx_hal_msp.c ****   if(hi2c->Instance==I2C2)
 209              		.loc 1 122 3 is_stmt 1 view .LVU47
 210              		.loc 1 122 10 is_stmt 0 view .LVU48
 211 0002 0268     		ldr	r2, [r0]
 212              		.loc 1 122 5 view .LVU49
 213 0004 094B     		ldr	r3, .L12
 214 0006 9A42     		cmp	r2, r3
 215 0008 00D0     		beq	.L11
 216              	.LVL8:
 217              	.L9:
 123:Core/Src/stm32f0xx_hal_msp.c ****   {
 124:Core/Src/stm32f0xx_hal_msp.c ****   /* USER CODE BEGIN I2C2_MspDeInit 0 */
 125:Core/Src/stm32f0xx_hal_msp.c **** 
 126:Core/Src/stm32f0xx_hal_msp.c ****   /* USER CODE END I2C2_MspDeInit 0 */
 127:Core/Src/stm32f0xx_hal_msp.c ****     /* Peripheral clock disable */
 128:Core/Src/stm32f0xx_hal_msp.c ****     __HAL_RCC_I2C2_CLK_DISABLE();
 129:Core/Src/stm32f0xx_hal_msp.c **** 
 130:Core/Src/stm32f0xx_hal_msp.c ****     /**I2C2 GPIO Configuration
 131:Core/Src/stm32f0xx_hal_msp.c ****     PF6     ------> I2C2_SCL
 132:Core/Src/stm32f0xx_hal_msp.c ****     PF7     ------> I2C2_SDA
 133:Core/Src/stm32f0xx_hal_msp.c ****     */
 134:Core/Src/stm32f0xx_hal_msp.c ****     HAL_GPIO_DeInit(GPIOF, GPIO_PIN_6);
 135:Core/Src/stm32f0xx_hal_msp.c **** 
 136:Core/Src/stm32f0xx_hal_msp.c ****     HAL_GPIO_DeInit(GPIOF, GPIO_PIN_7);
 137:Core/Src/stm32f0xx_hal_msp.c **** 
 138:Core/Src/stm32f0xx_hal_msp.c ****   /* USER CODE BEGIN I2C2_MspDeInit 1 */
 139:Core/Src/stm32f0xx_hal_msp.c **** 
 140:Core/Src/stm32f0xx_hal_msp.c ****   /* USER CODE END I2C2_MspDeInit 1 */
 141:Core/Src/stm32f0xx_hal_msp.c ****   }
 142:Core/Src/stm32f0xx_hal_msp.c **** 
 143:Core/Src/stm32f0xx_hal_msp.c **** }
 218              		.loc 1 143 1 view .LVU50
 219              		@ sp needed
 220 000a 10BD     		pop	{r4, pc}
 221              	.LVL9:
 222              	.L11:
 128:Core/Src/stm32f0xx_hal_msp.c **** 
 223              		.loc 1 128 5 is_stmt 1 view .LVU51
 224 000c 084A     		ldr	r2, .L12+4
 225 000e D369     		ldr	r3, [r2, #28]
 226 0010 0849     		ldr	r1, .L12+8
 227 0012 0B40     		ands	r3, r1
 228 0014 D361     		str	r3, [r2, #28]
 134:Core/Src/stm32f0xx_hal_msp.c **** 
 229              		.loc 1 134 5 view .LVU52
 230 0016 084C     		ldr	r4, .L12+12
 231 0018 4021     		movs	r1, #64
 232 001a 2000     		movs	r0, r4
 233              	.LVL10:
 134:Core/Src/stm32f0xx_hal_msp.c **** 
 234              		.loc 1 134 5 is_stmt 0 view .LVU53
 235 001c FFF7FEFF 		bl	HAL_GPIO_DeInit
 236              	.LVL11:
 136:Core/Src/stm32f0xx_hal_msp.c **** 
ARM GAS  /var/folders/_5/7dt5dlyd7598cb98063hl5tr0000gn/T//ccLAQ22X.s 			page 8


 237              		.loc 1 136 5 is_stmt 1 view .LVU54
 238 0020 8021     		movs	r1, #128
 239 0022 2000     		movs	r0, r4
 240 0024 FFF7FEFF 		bl	HAL_GPIO_DeInit
 241              	.LVL12:
 242              		.loc 1 143 1 is_stmt 0 view .LVU55
 243 0028 EFE7     		b	.L9
 244              	.L13:
 245 002a C046     		.align	2
 246              	.L12:
 247 002c 00580040 		.word	1073764352
 248 0030 00100240 		.word	1073876992
 249 0034 FFFFBFFF 		.word	-4194305
 250 0038 00140048 		.word	1207964672
 251              		.cfi_endproc
 252              	.LFE42:
 254              		.section	.text.HAL_UART_MspInit,"ax",%progbits
 255              		.align	1
 256              		.global	HAL_UART_MspInit
 257              		.syntax unified
 258              		.code	16
 259              		.thumb_func
 261              	HAL_UART_MspInit:
 262              	.LVL13:
 263              	.LFB43:
 144:Core/Src/stm32f0xx_hal_msp.c **** 
 145:Core/Src/stm32f0xx_hal_msp.c **** /**
 146:Core/Src/stm32f0xx_hal_msp.c **** * @brief UART MSP Initialization
 147:Core/Src/stm32f0xx_hal_msp.c **** * This function configures the hardware resources used in this example
 148:Core/Src/stm32f0xx_hal_msp.c **** * @param huart: UART handle pointer
 149:Core/Src/stm32f0xx_hal_msp.c **** * @retval None
 150:Core/Src/stm32f0xx_hal_msp.c **** */
 151:Core/Src/stm32f0xx_hal_msp.c **** void HAL_UART_MspInit(UART_HandleTypeDef* huart)
 152:Core/Src/stm32f0xx_hal_msp.c **** {
 264              		.loc 1 152 1 is_stmt 1 view -0
 265              		.cfi_startproc
 266              		@ args = 0, pretend = 0, frame = 32
 267              		@ frame_needed = 0, uses_anonymous_args = 0
 268              		.loc 1 152 1 is_stmt 0 view .LVU57
 269 0000 10B5     		push	{r4, lr}
 270              		.cfi_def_cfa_offset 8
 271              		.cfi_offset 4, -8
 272              		.cfi_offset 14, -4
 273 0002 88B0     		sub	sp, sp, #32
 274              		.cfi_def_cfa_offset 40
 275 0004 0400     		movs	r4, r0
 153:Core/Src/stm32f0xx_hal_msp.c ****   GPIO_InitTypeDef GPIO_InitStruct = {0};
 276              		.loc 1 153 3 is_stmt 1 view .LVU58
 277              		.loc 1 153 20 is_stmt 0 view .LVU59
 278 0006 1422     		movs	r2, #20
 279 0008 0021     		movs	r1, #0
 280 000a 03A8     		add	r0, sp, #12
 281              	.LVL14:
 282              		.loc 1 153 20 view .LVU60
 283 000c FFF7FEFF 		bl	memset
 284              	.LVL15:
 154:Core/Src/stm32f0xx_hal_msp.c ****   if(huart->Instance==USART1)
ARM GAS  /var/folders/_5/7dt5dlyd7598cb98063hl5tr0000gn/T//ccLAQ22X.s 			page 9


 285              		.loc 1 154 3 is_stmt 1 view .LVU61
 286              		.loc 1 154 11 is_stmt 0 view .LVU62
 287 0010 2268     		ldr	r2, [r4]
 288              		.loc 1 154 5 view .LVU63
 289 0012 134B     		ldr	r3, .L17
 290 0014 9A42     		cmp	r2, r3
 291 0016 01D0     		beq	.L16
 292              	.L14:
 155:Core/Src/stm32f0xx_hal_msp.c ****   {
 156:Core/Src/stm32f0xx_hal_msp.c ****   /* USER CODE BEGIN USART1_MspInit 0 */
 157:Core/Src/stm32f0xx_hal_msp.c **** 
 158:Core/Src/stm32f0xx_hal_msp.c ****   /* USER CODE END USART1_MspInit 0 */
 159:Core/Src/stm32f0xx_hal_msp.c ****     /* Peripheral clock enable */
 160:Core/Src/stm32f0xx_hal_msp.c ****     __HAL_RCC_USART1_CLK_ENABLE();
 161:Core/Src/stm32f0xx_hal_msp.c **** 
 162:Core/Src/stm32f0xx_hal_msp.c ****     __HAL_RCC_GPIOA_CLK_ENABLE();
 163:Core/Src/stm32f0xx_hal_msp.c ****     /**USART1 GPIO Configuration
 164:Core/Src/stm32f0xx_hal_msp.c ****     PA9     ------> USART1_TX
 165:Core/Src/stm32f0xx_hal_msp.c ****     PA10     ------> USART1_RX
 166:Core/Src/stm32f0xx_hal_msp.c ****     */
 167:Core/Src/stm32f0xx_hal_msp.c ****     GPIO_InitStruct.Pin = GPIO_PIN_9|GPIO_PIN_10;
 168:Core/Src/stm32f0xx_hal_msp.c ****     GPIO_InitStruct.Mode = GPIO_MODE_AF_PP;
 169:Core/Src/stm32f0xx_hal_msp.c ****     GPIO_InitStruct.Pull = GPIO_NOPULL;
 170:Core/Src/stm32f0xx_hal_msp.c ****     GPIO_InitStruct.Speed = GPIO_SPEED_FREQ_HIGH;
 171:Core/Src/stm32f0xx_hal_msp.c ****     GPIO_InitStruct.Alternate = GPIO_AF1_USART1;
 172:Core/Src/stm32f0xx_hal_msp.c ****     HAL_GPIO_Init(GPIOA, &GPIO_InitStruct);
 173:Core/Src/stm32f0xx_hal_msp.c **** 
 174:Core/Src/stm32f0xx_hal_msp.c ****   /* USER CODE BEGIN USART1_MspInit 1 */
 175:Core/Src/stm32f0xx_hal_msp.c **** 
 176:Core/Src/stm32f0xx_hal_msp.c ****   /* USER CODE END USART1_MspInit 1 */
 177:Core/Src/stm32f0xx_hal_msp.c ****   }
 178:Core/Src/stm32f0xx_hal_msp.c **** 
 179:Core/Src/stm32f0xx_hal_msp.c **** }
 293              		.loc 1 179 1 view .LVU64
 294 0018 08B0     		add	sp, sp, #32
 295              		@ sp needed
 296              	.LVL16:
 297              		.loc 1 179 1 view .LVU65
 298 001a 10BD     		pop	{r4, pc}
 299              	.LVL17:
 300              	.L16:
 160:Core/Src/stm32f0xx_hal_msp.c **** 
 301              		.loc 1 160 5 is_stmt 1 view .LVU66
 302              	.LBB6:
 160:Core/Src/stm32f0xx_hal_msp.c **** 
 303              		.loc 1 160 5 view .LVU67
 160:Core/Src/stm32f0xx_hal_msp.c **** 
 304              		.loc 1 160 5 view .LVU68
 305 001c 114B     		ldr	r3, .L17+4
 306 001e 9A69     		ldr	r2, [r3, #24]
 307 0020 8021     		movs	r1, #128
 308 0022 C901     		lsls	r1, r1, #7
 309 0024 0A43     		orrs	r2, r1
 310 0026 9A61     		str	r2, [r3, #24]
 160:Core/Src/stm32f0xx_hal_msp.c **** 
 311              		.loc 1 160 5 view .LVU69
 312 0028 9A69     		ldr	r2, [r3, #24]
ARM GAS  /var/folders/_5/7dt5dlyd7598cb98063hl5tr0000gn/T//ccLAQ22X.s 			page 10


 313 002a 0A40     		ands	r2, r1
 314 002c 0192     		str	r2, [sp, #4]
 160:Core/Src/stm32f0xx_hal_msp.c **** 
 315              		.loc 1 160 5 view .LVU70
 316 002e 019A     		ldr	r2, [sp, #4]
 317              	.LBE6:
 160:Core/Src/stm32f0xx_hal_msp.c **** 
 318              		.loc 1 160 5 view .LVU71
 162:Core/Src/stm32f0xx_hal_msp.c ****     /**USART1 GPIO Configuration
 319              		.loc 1 162 5 view .LVU72
 320              	.LBB7:
 162:Core/Src/stm32f0xx_hal_msp.c ****     /**USART1 GPIO Configuration
 321              		.loc 1 162 5 view .LVU73
 162:Core/Src/stm32f0xx_hal_msp.c ****     /**USART1 GPIO Configuration
 322              		.loc 1 162 5 view .LVU74
 323 0030 5A69     		ldr	r2, [r3, #20]
 324 0032 8021     		movs	r1, #128
 325 0034 8902     		lsls	r1, r1, #10
 326 0036 0A43     		orrs	r2, r1
 327 0038 5A61     		str	r2, [r3, #20]
 162:Core/Src/stm32f0xx_hal_msp.c ****     /**USART1 GPIO Configuration
 328              		.loc 1 162 5 view .LVU75
 329 003a 5B69     		ldr	r3, [r3, #20]
 330 003c 0B40     		ands	r3, r1
 331 003e 0293     		str	r3, [sp, #8]
 162:Core/Src/stm32f0xx_hal_msp.c ****     /**USART1 GPIO Configuration
 332              		.loc 1 162 5 view .LVU76
 333 0040 029B     		ldr	r3, [sp, #8]
 334              	.LBE7:
 162:Core/Src/stm32f0xx_hal_msp.c ****     /**USART1 GPIO Configuration
 335              		.loc 1 162 5 view .LVU77
 167:Core/Src/stm32f0xx_hal_msp.c ****     GPIO_InitStruct.Mode = GPIO_MODE_AF_PP;
 336              		.loc 1 167 5 view .LVU78
 167:Core/Src/stm32f0xx_hal_msp.c ****     GPIO_InitStruct.Mode = GPIO_MODE_AF_PP;
 337              		.loc 1 167 25 is_stmt 0 view .LVU79
 338 0042 C023     		movs	r3, #192
 339 0044 DB00     		lsls	r3, r3, #3
 340 0046 0393     		str	r3, [sp, #12]
 168:Core/Src/stm32f0xx_hal_msp.c ****     GPIO_InitStruct.Pull = GPIO_NOPULL;
 341              		.loc 1 168 5 is_stmt 1 view .LVU80
 168:Core/Src/stm32f0xx_hal_msp.c ****     GPIO_InitStruct.Pull = GPIO_NOPULL;
 342              		.loc 1 168 26 is_stmt 0 view .LVU81
 343 0048 0223     		movs	r3, #2
 344 004a 0493     		str	r3, [sp, #16]
 169:Core/Src/stm32f0xx_hal_msp.c ****     GPIO_InitStruct.Speed = GPIO_SPEED_FREQ_HIGH;
 345              		.loc 1 169 5 is_stmt 1 view .LVU82
 170:Core/Src/stm32f0xx_hal_msp.c ****     GPIO_InitStruct.Alternate = GPIO_AF1_USART1;
 346              		.loc 1 170 5 view .LVU83
 170:Core/Src/stm32f0xx_hal_msp.c ****     GPIO_InitStruct.Alternate = GPIO_AF1_USART1;
 347              		.loc 1 170 27 is_stmt 0 view .LVU84
 348 004c 0133     		adds	r3, r3, #1
 349 004e 0693     		str	r3, [sp, #24]
 171:Core/Src/stm32f0xx_hal_msp.c ****     HAL_GPIO_Init(GPIOA, &GPIO_InitStruct);
 350              		.loc 1 171 5 is_stmt 1 view .LVU85
 171:Core/Src/stm32f0xx_hal_msp.c ****     HAL_GPIO_Init(GPIOA, &GPIO_InitStruct);
 351              		.loc 1 171 31 is_stmt 0 view .LVU86
 352 0050 023B     		subs	r3, r3, #2
ARM GAS  /var/folders/_5/7dt5dlyd7598cb98063hl5tr0000gn/T//ccLAQ22X.s 			page 11


 353 0052 0793     		str	r3, [sp, #28]
 172:Core/Src/stm32f0xx_hal_msp.c **** 
 354              		.loc 1 172 5 is_stmt 1 view .LVU87
 355 0054 9020     		movs	r0, #144
 356 0056 03A9     		add	r1, sp, #12
 357 0058 C005     		lsls	r0, r0, #23
 358 005a FFF7FEFF 		bl	HAL_GPIO_Init
 359              	.LVL18:
 360              		.loc 1 179 1 is_stmt 0 view .LVU88
 361 005e DBE7     		b	.L14
 362              	.L18:
 363              		.align	2
 364              	.L17:
 365 0060 00380140 		.word	1073821696
 366 0064 00100240 		.word	1073876992
 367              		.cfi_endproc
 368              	.LFE43:
 370              		.section	.text.HAL_UART_MspDeInit,"ax",%progbits
 371              		.align	1
 372              		.global	HAL_UART_MspDeInit
 373              		.syntax unified
 374              		.code	16
 375              		.thumb_func
 377              	HAL_UART_MspDeInit:
 378              	.LVL19:
 379              	.LFB44:
 180:Core/Src/stm32f0xx_hal_msp.c **** 
 181:Core/Src/stm32f0xx_hal_msp.c **** /**
 182:Core/Src/stm32f0xx_hal_msp.c **** * @brief UART MSP De-Initialization
 183:Core/Src/stm32f0xx_hal_msp.c **** * This function freeze the hardware resources used in this example
 184:Core/Src/stm32f0xx_hal_msp.c **** * @param huart: UART handle pointer
 185:Core/Src/stm32f0xx_hal_msp.c **** * @retval None
 186:Core/Src/stm32f0xx_hal_msp.c **** */
 187:Core/Src/stm32f0xx_hal_msp.c **** void HAL_UART_MspDeInit(UART_HandleTypeDef* huart)
 188:Core/Src/stm32f0xx_hal_msp.c **** {
 380              		.loc 1 188 1 is_stmt 1 view -0
 381              		.cfi_startproc
 382              		@ args = 0, pretend = 0, frame = 0
 383              		@ frame_needed = 0, uses_anonymous_args = 0
 384              		.loc 1 188 1 is_stmt 0 view .LVU90
 385 0000 10B5     		push	{r4, lr}
 386              		.cfi_def_cfa_offset 8
 387              		.cfi_offset 4, -8
 388              		.cfi_offset 14, -4
 189:Core/Src/stm32f0xx_hal_msp.c ****   if(huart->Instance==USART1)
 389              		.loc 1 189 3 is_stmt 1 view .LVU91
 390              		.loc 1 189 11 is_stmt 0 view .LVU92
 391 0002 0268     		ldr	r2, [r0]
 392              		.loc 1 189 5 view .LVU93
 393 0004 074B     		ldr	r3, .L22
 394 0006 9A42     		cmp	r2, r3
 395 0008 00D0     		beq	.L21
 396              	.LVL20:
 397              	.L19:
 190:Core/Src/stm32f0xx_hal_msp.c ****   {
 191:Core/Src/stm32f0xx_hal_msp.c ****   /* USER CODE BEGIN USART1_MspDeInit 0 */
 192:Core/Src/stm32f0xx_hal_msp.c **** 
ARM GAS  /var/folders/_5/7dt5dlyd7598cb98063hl5tr0000gn/T//ccLAQ22X.s 			page 12


 193:Core/Src/stm32f0xx_hal_msp.c ****   /* USER CODE END USART1_MspDeInit 0 */
 194:Core/Src/stm32f0xx_hal_msp.c ****     /* Peripheral clock disable */
 195:Core/Src/stm32f0xx_hal_msp.c ****     __HAL_RCC_USART1_CLK_DISABLE();
 196:Core/Src/stm32f0xx_hal_msp.c **** 
 197:Core/Src/stm32f0xx_hal_msp.c ****     /**USART1 GPIO Configuration
 198:Core/Src/stm32f0xx_hal_msp.c ****     PA9     ------> USART1_TX
 199:Core/Src/stm32f0xx_hal_msp.c ****     PA10     ------> USART1_RX
 200:Core/Src/stm32f0xx_hal_msp.c ****     */
 201:Core/Src/stm32f0xx_hal_msp.c ****     HAL_GPIO_DeInit(GPIOA, GPIO_PIN_9|GPIO_PIN_10);
 202:Core/Src/stm32f0xx_hal_msp.c **** 
 203:Core/Src/stm32f0xx_hal_msp.c ****   /* USER CODE BEGIN USART1_MspDeInit 1 */
 204:Core/Src/stm32f0xx_hal_msp.c **** 
 205:Core/Src/stm32f0xx_hal_msp.c ****   /* USER CODE END USART1_MspDeInit 1 */
 206:Core/Src/stm32f0xx_hal_msp.c ****   }
 207:Core/Src/stm32f0xx_hal_msp.c **** 
 208:Core/Src/stm32f0xx_hal_msp.c **** }
 398              		.loc 1 208 1 view .LVU94
 399              		@ sp needed
 400 000a 10BD     		pop	{r4, pc}
 401              	.LVL21:
 402              	.L21:
 195:Core/Src/stm32f0xx_hal_msp.c **** 
 403              		.loc 1 195 5 is_stmt 1 view .LVU95
 404 000c 064A     		ldr	r2, .L22+4
 405 000e 9369     		ldr	r3, [r2, #24]
 406 0010 0649     		ldr	r1, .L22+8
 407 0012 0B40     		ands	r3, r1
 408 0014 9361     		str	r3, [r2, #24]
 201:Core/Src/stm32f0xx_hal_msp.c **** 
 409              		.loc 1 201 5 view .LVU96
 410 0016 C021     		movs	r1, #192
 411 0018 9020     		movs	r0, #144
 412              	.LVL22:
 201:Core/Src/stm32f0xx_hal_msp.c **** 
 413              		.loc 1 201 5 is_stmt 0 view .LVU97
 414 001a C900     		lsls	r1, r1, #3
 415 001c C005     		lsls	r0, r0, #23
 416 001e FFF7FEFF 		bl	HAL_GPIO_DeInit
 417              	.LVL23:
 418              		.loc 1 208 1 view .LVU98
 419 0022 F2E7     		b	.L19
 420              	.L23:
 421              		.align	2
 422              	.L22:
 423 0024 00380140 		.word	1073821696
 424 0028 00100240 		.word	1073876992
 425 002c FFBFFFFF 		.word	-16385
 426              		.cfi_endproc
 427              	.LFE44:
 429              		.text
 430              	.Letext0:
 431              		.file 2 "/Users/tom/Library/Application Support/Code/User/globalStorage/bmd.stm32-for-vscode/@xpac
 432              		.file 3 "/Users/tom/Library/Application Support/Code/User/globalStorage/bmd.stm32-for-vscode/@xpac
 433              		.file 4 "Drivers/CMSIS/Device/ST/STM32F0xx/Include/stm32f030x8.h"
 434              		.file 5 "Drivers/STM32F0xx_HAL_Driver/Inc/stm32f0xx_hal_def.h"
 435              		.file 6 "Drivers/STM32F0xx_HAL_Driver/Inc/stm32f0xx_hal_gpio.h"
 436              		.file 7 "Drivers/STM32F0xx_HAL_Driver/Inc/stm32f0xx_hal_dma.h"
ARM GAS  /var/folders/_5/7dt5dlyd7598cb98063hl5tr0000gn/T//ccLAQ22X.s 			page 13


 437              		.file 8 "Drivers/STM32F0xx_HAL_Driver/Inc/stm32f0xx_hal_i2c.h"
 438              		.file 9 "Drivers/STM32F0xx_HAL_Driver/Inc/stm32f0xx_hal_uart.h"
 439              		.file 10 "<built-in>"
ARM GAS  /var/folders/_5/7dt5dlyd7598cb98063hl5tr0000gn/T//ccLAQ22X.s 			page 14

